	.text
	.file	"C:/Projects/UI-01_sw1_hw1/module_dfu/src/dfu.xc"
                                        # Start of file scope inline assembly
	.inline_definition delay_seconds
	.inline_definition delay_milliseconds
	.inline_definition delay_microseconds
	.inline_definition XUD_SetReady_Out
	.inline_definition XUD_SetReady_OutPtr
	.inline_definition XUD_SetReady_InPtr
	.inline_definition XUD_SetReady_In
	.set DFUHandler.select.0.enable.savedstate,6
	.globl DFUHandler.select.0.enable.savedstate
	.set DFUHandler.select.0.enable.cases.maxtimers,0 $M DFUHandler.select.0.case.0.maxtimers
	.globl DFUHandler.select.0.enable.cases.maxtimers
	.set DFUHandler.select.0.enable.cases.maxcores,0 $M DFUHandler.select.0.case.0.maxcores
	.globl DFUHandler.select.0.enable.cases.maxcores
	.set DFUHandler.select.0.enable.cases.maxchanends,0 $M DFUHandler.select.0.case.0.maxchanends
	.globl DFUHandler.select.0.enable.cases.maxchanends
	.set DFUHandler.select.0.enable.cases,0
	.globl DFUHandler.select.0.enable.cases
	.set DFUHandler.select.0.enable.cases.nstackwords, 0 $M (DFUHandler.select.0.case.0.nstackwords)
	.globl DFUHandler.select.0.enable.cases.nstackwords
	.set DFUHandler.dynalloc_maxchanends, 0
	.globl DFUHandler.dynalloc_maxchanends
	.set DFUHandler.dynalloc_maxcores, 0
	.globl DFUHandler.dynalloc_maxcores
	.set DFUHandler.dynalloc_maxtimers, 0
	.globl DFUHandler.dynalloc_maxtimers
	.set DFUHandler.init.0.savedstate,6
	.globl DFUHandler.init.0.savedstate
	.set DFUHandler.select.yield.enable.savedstate,6
	.globl DFUHandler.select.yield.enable.savedstate
	.set DFUHandler.select.yield.enable.cases.maxtimers,0 $M DFUHandler.select.yield.case.0.maxtimers
	.globl DFUHandler.select.yield.enable.cases.maxtimers
	.set DFUHandler.select.yield.enable.cases.maxcores,0 $M DFUHandler.select.yield.case.0.maxcores
	.globl DFUHandler.select.yield.enable.cases.maxcores
	.set DFUHandler.select.yield.enable.cases.maxchanends,0 $M DFUHandler.select.yield.case.0.maxchanends
	.globl DFUHandler.select.yield.enable.cases.maxchanends
	.set DFUHandler.select.yield.enable.cases,0
	.globl DFUHandler.select.yield.enable.cases
	.set DFUHandler.select.yield.enable.cases.nstackwords, 0 $M (DFUHandler.select.yield.case.0.nstackwords)
	.globl DFUHandler.select.yield.enable.cases.nstackwords
	.set DFUHandler.select.enable.savedstate,6
	.globl DFUHandler.select.enable.savedstate
	.set DFUHandler.select.enable.cases.maxtimers,0 $M DFUHandler.select.case.0.maxtimers
	.globl DFUHandler.select.enable.cases.maxtimers
	.set DFUHandler.select.enable.cases.maxcores,0 $M DFUHandler.select.case.0.maxcores
	.globl DFUHandler.select.enable.cases.maxcores
	.set DFUHandler.select.enable.cases.maxchanends,0 $M DFUHandler.select.case.0.maxchanends
	.globl DFUHandler.select.enable.cases.maxchanends
	.set DFUHandler.select.enable.cases,0
	.globl DFUHandler.select.enable.cases
	.set DFUHandler.select.enable.cases.nstackwords, 0 $M (DFUHandler.select.case.0.nstackwords)
	.globl DFUHandler.select.enable.cases.nstackwords
	.set _SDFUHandler_0.select.0.enable.savedstate,6
	.globl _SDFUHandler_0.select.0.enable.savedstate
	.set _SDFUHandler_0.select.0.enable.cases.maxtimers,0
	.globl _SDFUHandler_0.select.0.enable.cases.maxtimers
	.set _SDFUHandler_0.select.0.enable.cases.maxcores,0
	.globl _SDFUHandler_0.select.0.enable.cases.maxcores
	.set _SDFUHandler_0.select.0.enable.cases.maxchanends,0
	.globl _SDFUHandler_0.select.0.enable.cases.maxchanends
	.set _SDFUHandler_0.select.0.enable.cases,0
	.globl _SDFUHandler_0.select.0.enable.cases
	.set _SDFUHandler_0.select.0.enable.cases.nstackwords, 0
	.globl _SDFUHandler_0.select.0.enable.cases.nstackwords
	.set _SDFUHandler_0.dynalloc_maxchanends, 0
	.globl _SDFUHandler_0.dynalloc_maxchanends
	.set _SDFUHandler_0.dynalloc_maxcores, 0
	.globl _SDFUHandler_0.dynalloc_maxcores
	.set _SDFUHandler_0.dynalloc_maxtimers, 0
	.globl _SDFUHandler_0.dynalloc_maxtimers
	.set _SDFUHandler_0.init.0.savedstate,6
	.globl _SDFUHandler_0.init.0.savedstate
	.set _SDFUHandler_0.select.yield.enable.savedstate,6
	.globl _SDFUHandler_0.select.yield.enable.savedstate
	.set _SDFUHandler_0.select.yield.enable.cases.maxtimers,0
	.globl _SDFUHandler_0.select.yield.enable.cases.maxtimers
	.set _SDFUHandler_0.select.yield.enable.cases.maxcores,0
	.globl _SDFUHandler_0.select.yield.enable.cases.maxcores
	.set _SDFUHandler_0.select.yield.enable.cases.maxchanends,0
	.globl _SDFUHandler_0.select.yield.enable.cases.maxchanends
	.set _SDFUHandler_0.select.yield.enable.cases,0
	.globl _SDFUHandler_0.select.yield.enable.cases
	.set _SDFUHandler_0.select.yield.enable.cases.nstackwords, 0
	.globl _SDFUHandler_0.select.yield.enable.cases.nstackwords
	.set _SDFUHandler_0.select.enable.savedstate,6
	.globl _SDFUHandler_0.select.enable.savedstate
	.set _SDFUHandler_0.select.enable.cases.maxtimers,0
	.globl _SDFUHandler_0.select.enable.cases.maxtimers
	.set _SDFUHandler_0.select.enable.cases.maxcores,0
	.globl _SDFUHandler_0.select.enable.cases.maxcores
	.set _SDFUHandler_0.select.enable.cases.maxchanends,0
	.globl _SDFUHandler_0.select.enable.cases.maxchanends
	.set _SDFUHandler_0.select.enable.cases,0
	.globl _SDFUHandler_0.select.enable.cases
	.set _SDFUHandler_0.select.enable.cases.nstackwords, 0
	.globl _SDFUHandler_0.select.enable.cases.nstackwords
	.weak _i.i_dfu.HandleDfuRequest.maxchanends.group
	.max_reduce _i.i_dfu.HandleDfuRequest.max.maxchanends, _i.i_dfu.HandleDfuRequest.maxchanends.group, 0
	.weak _i.i_dfu.HandleDfuRequest.maxcores.group
	.max_reduce _i.i_dfu.HandleDfuRequest.max.maxcores, _i.i_dfu.HandleDfuRequest.maxcores.group, 0
	.weak _i.i_dfu.HandleDfuRequest.maxtimers.group
	.max_reduce _i.i_dfu.HandleDfuRequest.max.maxtimers, _i.i_dfu.HandleDfuRequest.maxtimers.group, 0
	.weak _i.i_dfu.HandleDfuRequest.nstackwords.group
	.globl _i.i_dfu.HandleDfuRequest.nstackwords.group
	.weak _i.i_dfu.HandleDfuRequest.fns.group
	.globl _i.i_dfu.HandleDfuRequest.fns.group
	.max_reduce _i.i_dfu.HandleDfuRequest.max.nstackwords, _i.i_dfu.HandleDfuRequest.nstackwords.group, 0
	.max_reduce _i.i_dfu.HandleDfuRequest.fns, _i.i_dfu.HandleDfuRequest.fns.group, 0
	.weak _i.i_dfu.finish.maxchanends.group
	.max_reduce _i.i_dfu.finish.max.maxchanends, _i.i_dfu.finish.maxchanends.group, 0
	.weak _i.i_dfu.finish.maxcores.group
	.max_reduce _i.i_dfu.finish.max.maxcores, _i.i_dfu.finish.maxcores.group, 0
	.weak _i.i_dfu.finish.maxtimers.group
	.max_reduce _i.i_dfu.finish.max.maxtimers, _i.i_dfu.finish.maxtimers.group, 0
	.weak _i.i_dfu.finish.nstackwords.group
	.globl _i.i_dfu.finish.nstackwords.group
	.weak _i.i_dfu.finish.fns.group
	.globl _i.i_dfu.finish.fns.group
	.max_reduce _i.i_dfu.finish.max.nstackwords, _i.i_dfu.finish.nstackwords.group, 0
	.max_reduce _i.i_dfu.finish.fns, _i.i_dfu.finish.fns.group, 0
	.weak _i.i_dfu.__interface_init.maxchanends.group
	.max_reduce _i.i_dfu.__interface_init.max.maxchanends, _i.i_dfu.__interface_init.maxchanends.group, 0
	.weak _i.i_dfu.__interface_init.maxcores.group
	.max_reduce _i.i_dfu.__interface_init.max.maxcores, _i.i_dfu.__interface_init.maxcores.group, 0
	.weak _i.i_dfu.__interface_init.maxtimers.group
	.max_reduce _i.i_dfu.__interface_init.max.maxtimers, _i.i_dfu.__interface_init.maxtimers.group, 0
	.weak _i.i_dfu.__interface_init.nstackwords.group
	.globl _i.i_dfu.__interface_init.nstackwords.group
	.weak _i.i_dfu.__interface_init.fns.group
	.globl _i.i_dfu.__interface_init.fns.group
	.max_reduce _i.i_dfu.__interface_init.max.nstackwords, _i.i_dfu.__interface_init.nstackwords.group, 0
	.max_reduce _i.i_dfu.__interface_init.fns, _i.i_dfu.__interface_init.fns.group, 0
	.weak _i.i_dfu._client_call_y.maxchanends.group
	.add_to_set _i.i_dfu._client_call_y.maxchanends.group, (__interface_client_call_y_other.maxchanends + __interface_client_call_y_extra.maxchanends), __interface_client_call_y_other
	.max_reduce _i.i_dfu._client_call_y.max.maxchanends, _i.i_dfu._client_call_y.maxchanends.group, 0
	.weak _i.i_dfu._client_call_y.maxcores.group
	.add_to_set _i.i_dfu._client_call_y.maxcores.group, (__interface_client_call_y_other.maxcores + __interface_client_call_y_extra.maxcores), __interface_client_call_y_other
	.max_reduce _i.i_dfu._client_call_y.max.maxcores, _i.i_dfu._client_call_y.maxcores.group, 0
	.weak _i.i_dfu._client_call_y.maxtimers.group
	.add_to_set _i.i_dfu._client_call_y.maxtimers.group, (__interface_client_call_y_other.maxtimers + __interface_client_call_y_extra.maxtimers), __interface_client_call_y_other
	.max_reduce _i.i_dfu._client_call_y.max.maxtimers, _i.i_dfu._client_call_y.maxtimers.group, 0
	.weak _i.i_dfu._client_call_y.nstackwords.group
	.globl _i.i_dfu._client_call_y.nstackwords.group
	.weak _i.i_dfu._client_call_y.fns.group
	.globl _i.i_dfu._client_call_y.fns.group
	.add_to_set _i.i_dfu._client_call_y.nstackwords.group, (__interface_client_call_y_other.nstackwords + __interface_client_call_y_extra.nstackwords), __interface_client_call_y_other
	.add_to_set _i.i_dfu._client_call_y.fns.group, __interface_client_call_y_other, __interface_client_call_y_other
	.max_reduce _i.i_dfu._client_call_y.max.nstackwords, _i.i_dfu._client_call_y.nstackwords.group, 0
	.max_reduce _i.i_dfu._client_call_y.fns, _i.i_dfu._client_call_y.fns.group, 0
	.set usage.anon.0,0
	.set usage.anon.1,0
	.set usage.anon.2,0
	.set usage.anon.3,0
	.set usage.anon.4,0
	.set usage.anon.5,0
	.set usage.anon.6,0
	.set usage.anon.7,0
	.set usage.anon.8,0
	.set usage.anon.9,0
	.set usage.anon.10,0
	.set usage.anon.11,0
	.set usage.anon.12,0
	.set usage.anon.13,0
	.set usage.anon.14,0
	.set usage.anon.15,0
	.set usage.anon.16,0
	.set usage.anon.17,0
	.set usage.anon.18,0
	.set usage.anon.19,0
	.set usage.anon.20,0
	.set usage.anon.21,0
	.set usage.anon.22,0
	.set usage.anon.23,0
	.set usage.anon.24,0
	.set usage.anon.25,0
	.set usage.anon.26,0
	.set usage.anon.27,0
	.set usage.anon.28,0
	.globread DFUReportResetState,usage.anon.15,"C:/Projects/UI-01_sw1_hw1/module_dfu/src/dfu.xc:358:47: note: object used here\n            if (currentTime - DFUTimerStart > DFUResetTimeout)\n                                              ^~~~~~~~~~~~~~~"
	.globread DFUReportResetState,usage.anon.14,"C:/Projects/UI-01_sw1_hw1/module_dfu/src/dfu.xc:358:31: note: object used here\n            if (currentTime - DFUTimerStart > DFUResetTimeout)\n                              ^~~~~~~~~~~~~"
	.globread usage.anon.19,usage.anon.20,"C:/Projects/UI-01_sw1_hw1/module_dfu/src/dfu.xc:267:52: note: object used here\n    data_buffer[0] = timeout << 8 | (unsigned char)DFU_status;\n                                                   ^~~~~~~~~~"
	.globwrite DFUDeviceRequests,usage.anon.24,"C:/Projects/UI-01_sw1_hw1/module_dfu/src/dfu.xc:557:5: note: object used here\n    g_DFU_state = dfuState;\n    ^~~~~~~~~~~"
	.globwrite usage.anon.25,usage.anon.13,"C:/Projects/UI-01_sw1_hw1/module_dfu/src/dfu.xc:402:5: note: object used here\n    DFUTimer :> s;\n    ^~~~~~~~"
	.globwrite DFUReportResetState,usage.anon.13,"C:/Projects/UI-01_sw1_hw1/module_dfu/src/dfu.xc:357:13: note: object used here\n            DFUTimer :> currentTime;\n            ^~~~~~~~"
	.globwrite DFUReportResetState,usage.anon.24,"C:/Projects/UI-01_sw1_hw1/module_dfu/src/dfu.xc:347:9: note: object used here\n        g_DFU_state = STATE_DFU_IDLE;\n        ^~~~~~~~~~~"
	.globwrite usage.anon.18,usage.anon.17,"C:/Projects/UI-01_sw1_hw1/module_dfu/src/dfu.xc:232:9: note: object used here\n        subPagesLeft = 0;\n        ^~~~~~~~~~~~"
	.globwrite usage.anon.16,usage.anon.17,"C:/Projects/UI-01_sw1_hw1/module_dfu/src/dfu.xc:186:13: note: object used here\n            subPagesLeft = 4;\n            ^~~~~~~~~~~~"
	.globwrite usage.anon.12,usage.anon.15,"C:/Projects/UI-01_sw1_hw1/module_dfu/src/dfu.xc:96:9: note: object used here\n        DFUResetTimeout = timeout * 100000;\n        ^~~~~~~~~~~~~~~"
	.globwrite usage.anon.12,usage.anon.14,"C:/Projects/UI-01_sw1_hw1/module_dfu/src/dfu.xc:99:21: note: object used here\n        DFUTimer :> DFUTimerStart;\n                    ^~~~~~~~~~~~~"
	.globwrite usage.anon.12,usage.anon.13,"C:/Projects/UI-01_sw1_hw1/module_dfu/src/dfu.xc:99:9: note: object used here\n        DFUTimer :> DFUTimerStart;\n        ^~~~~~~~"
	.globwrite usage.anon.11,usage.anon.10,"C:/Projects/UI-01_sw1_hw1/module_dfu/src/dfu.xc:82:9: note: object used here\n        DFU_flash_connected = 0;\n        ^~~~~~~~~~~~~~~~~~~"
	.globwrite usage.anon.9,usage.anon.10,"C:/Projects/UI-01_sw1_hw1/module_dfu/src/dfu.xc:69:6: note: object used here\n        DFU_flash_connected = 1;\n        ^~~~~~~~~~~~~~~~~~~"
	.call DFUDeviceRequests,usage.anon.7
	.call DFUDeviceRequests,XUD_GetBuffer
	.call DFUDeviceRequests,XUD_DoSetRequestStatus
	.call DFUDeviceRequests,XUD_DoGetRequest
	.call DFUHandler,usage.anon.28
	.call DFUHandler,usage.anon.27
	.call DFUHandler,usage.anon.26
	.call DFUHandler,usage.anon.25
	.call DFUHandler,usage.anon.23
	.call DFUHandler,usage.anon.22
	.call DFUHandler,usage.anon.21
	.call DFUHandler,usage.anon.19
	.call DFUHandler,usage.anon.18
	.call DFUHandler,usage.anon.16
	.call DFUHandler,usage.anon.12
	.call usage.anon.25,usage.anon.9
	.call usage.anon.25,flash_cmd_erase_all
	.call DFUReportResetState,usage.anon.8
	.call DFUReportResetState,usage.anon.11
	.call usage.anon.18,usage.anon.9
	.call usage.anon.18,flash_cmd_read_page_data
	.call usage.anon.18,flash_cmd_read_page
	.call usage.anon.16,usage.anon.9
	.call usage.anon.16,flash_cmd_write_page_data
	.call usage.anon.16,flash_cmd_write_page
	.call usage.anon.16,flash_cmd_erase_all
	.call usage.anon.12,usage.anon.9
	.call usage.anon.11,flash_cmd_deinit
	.call usage.anon.11,DFUCustomFlashDisable
	.call usage.anon.9,flash_cmd_init
	.call usage.anon.9,DFUCustomFlashEnable
	.call usage.anon.6,usage.anon.5
	.call usage.anon.2,delay_ticks_longlong
	.call usage.anon.1,delay_ticks_longlong
	.call usage.anon.0,delay_ticks_longlong
	.set usage.anon.3.locnoside, 0
	.set usage.anon.6.locnoside, 0
	.set DFUDelay.locnoside, 0
	.set usage.anon.9.locnoside, 0
	.set usage.anon.11.locnoside, 0
	.set usage.anon.12.locnoside, 0
	.set usage.anon.16.locnoside, 0
	.set usage.anon.18.locnoside, 0
	.set usage.anon.19.locnoside, 0
	.set usage.anon.21.locnoside, 0
	.set usage.anon.22.locnoside, 0
	.set usage.anon.23.locnoside, 0
	.set DFUReportResetState.locnoside, 0
	.set usage.anon.25.locnoside, 0
	.set DFUHandler.locnoside, 0
	.set DFUDeviceRequests.locnoside, 0
	.set usage.anon.9.locnoglobalaccess, 0
	.set usage.anon.11.locnoglobalaccess, 0
	.set usage.anon.12.locnoglobalaccess, 0
	.set usage.anon.16.locnoglobalaccess, 0
	.set usage.anon.18.locnoglobalaccess, 0
	.set usage.anon.19.locnoglobalaccess, 0
	.set DFUReportResetState.locnoglobalaccess, 0
	.set usage.anon.25.locnoglobalaccess, 0
	.set DFUDeviceRequests.locnoglobalaccess, 0
	.set DFUHandler.locnointerfaceaccess, 0
	.set DFUDeviceRequests.locnointerfaceaccess, 0
	.assert 1,usage.anon.28.actnonotificationselect,"C:/Projects/UI-01_sw1_hw1/module_dfu/src/dfu.xc:519:43: error: call to function `XMOS_DFU_LoadState\' which selects on a notification in a combinable function select case\n                        return_data_len = XMOS_DFU_LoadState();\n                                          ^~~~~~~~~~~~~~~~~~~~"
	.assert 1,usage.anon.27.actnonotificationselect,"C:/Projects/UI-01_sw1_hw1/module_dfu/src/dfu.xc:514:43: error: call to function `XMOS_DFU_SaveState\' which selects on a notification in a combinable function select case\n                        return_data_len = XMOS_DFU_SaveState();\n                                          ^~~~~~~~~~~~~~~~~~~~"
	.assert 1,usage.anon.26.actnonotificationselect,"C:/Projects/UI-01_sw1_hw1/module_dfu/src/dfu.xc:509:43: error: call to function `XMOS_DFU_SelectImage\' which selects on a notification in a combinable function select case\n                        return_data_len = XMOS_DFU_SelectImage(sp.wValue, c_user_cmd);\n                                          ^~~~~~~~~~~~~~~~~~~~~~~~~~~~~~~~~~~~~~~~~~~"
	.assert 1,usage.anon.25.actnonotificationselect,"C:/Projects/UI-01_sw1_hw1/module_dfu/src/dfu.xc:493:43: error: call to function `XMOS_DFU_RevertFactory\' which selects on a notification in a combinable function select case\n                        return_data_len = XMOS_DFU_RevertFactory(c_user_cmd);\n                                          ^~~~~~~~~~~~~~~~~~~~~~~~~~~~~~~~~~"
	.assert 1,usage.anon.23.actnonotificationselect,"C:/Projects/UI-01_sw1_hw1/module_dfu/src/dfu.xc:483:43: error: call to function `DFU_Abort\' which selects on a notification in a combinable function select case\n                        return_data_len = DFU_Abort(tmpDfuState);\n                                          ^~~~~~~~~~~~~~~~~~~~~~"
	.assert 1,usage.anon.22.actnonotificationselect,"C:/Projects/UI-01_sw1_hw1/module_dfu/src/dfu.xc:477:43: error: call to function `DFU_GetState\' which selects on a notification in a combinable function select case\n                        return_data_len = DFU_GetState(sp.wLength, data_out, c_user_cmd, tmpDfuState);\n                                          ^~~~~~~~~~~~~~~~~~~~~~~~~~~~~~~~~~~~~~~~~~~~~~~~~~~~~~~~~~~"
	.assert 1,usage.anon.21.actnonotificationselect,"C:/Projects/UI-01_sw1_hw1/module_dfu/src/dfu.xc:472:43: error: call to function `DFU_ClrStatus\' which selects on a notification in a combinable function select case\n                        return_data_len = DFU_ClrStatus(tmpDfuState);\n                                          ^~~~~~~~~~~~~~~~~~~~~~~~~~"
	.assert 1,usage.anon.19.actnonotificationselect,"C:/Projects/UI-01_sw1_hw1/module_dfu/src/dfu.xc:466:43: error: call to function `DFU_GetStatus\' which selects on a notification in a combinable function select case\n                        return_data_len = DFU_GetStatus(sp.wLength, data_out, c_user_cmd, tmpDfuState);\n                                          ^~~~~~~~~~~~~~~~~~~~~~~~~~~~~~~~~~~~~~~~~~~~~~~~~~~~~~~~~~~~"
	.assert 1,usage.anon.18.actnonotificationselect,"C:/Projects/UI-01_sw1_hw1/module_dfu/src/dfu.xc:459:43: error: call to function `DFU_Upload\' which selects on a notification in a combinable function select case\n                        return_data_len = DFU_Upload(sp.wLength, sp.wValue, data_out, tmpDfuState);\n                                          ^~~~~~~~~~~~~~~~~~~~~~~~~~~~~~~~~~~~~~~~~~~~~~~~~~~~~~~~"
	.assert 1,usage.anon.16.actnonotificationselect,"C:/Projects/UI-01_sw1_hw1/module_dfu/src/dfu.xc:454:37: error: call to function `DFU_Dnload\' which selects on a notification in a combinable function select case\n                        returnVal = DFU_Dnload(sp.wLength, sp.wValue, data, c_user_cmd, return_data_len, tmpDfuState);\n                                    ^~~~~~~~~~~~~~~~~~~~~~~~~~~~~~~~~~~~~~~~~~~~~~~~~~~~~~~~~~~~~~~~~~~~~~~~~~~~~~~~~"
	.assert 1,usage.anon.12.actnonotificationselect,"C:/Projects/UI-01_sw1_hw1/module_dfu/src/dfu.xc:446:43: error: call to function `DFU_Detach\' which selects on a notification in a combinable function select case\n                        return_data_len = DFU_Detach(sp.wValue, c_user_cmd, tmpDfuState);\n                                          ^~~~~~~~~~~~~~~~~~~~~~~~~~~~~~~~~~~~~~~~~~~~~~"

                                        # End of file scope inline assembly
	.text
	.globl	_i.i_dfu.DFUHandler._c0.finish
	.align	4
	.type	_i.i_dfu.DFUHandler._c0.finish,@function
	.cc_top _i.i_dfu.DFUHandler._c0.finish.function,_i.i_dfu.DFUHandler._c0.finish
_i.i_dfu.DFUHandler._c0.finish:         # @_i.i_dfu.DFUHandler._c0.finish
	.cfi_startproc
	.issue_mode dual
# BB#0:                                 # %allocas
	{
		nop
		dualentsp 0
	}
.LBB0_1:                                # %LoopTest
                                        # =>This Inner Loop Header: Depth=1
	#DEBUG_VALUE: _i.i_dfu.DFUHandler._c0.finish:p <- R0
	{
		nop
		ldw r1, r0[0]
	}
	bf r1, .LBB0_1
# BB#2:                                 # %ifdone
	#DEBUG_VALUE: _i.i_dfu.DFUHandler._c0.finish:p <- R0
	{
		ldc r1, 0
		nop
	}
	{
		nop
		stw r1, r0[0]
	}
	{
		nop
		retsp 0
	}
	# RETURN_REG_HOLDER
	.cc_bottom _i.i_dfu.DFUHandler._c0.finish.function
	.set	_i.i_dfu.DFUHandler._c0.finish.nstackwords,0
	.globl	_i.i_dfu.DFUHandler._c0.finish.nstackwords
	.set	_i.i_dfu.DFUHandler._c0.finish.maxcores,1
	.globl	_i.i_dfu.DFUHandler._c0.finish.maxcores
	.set	_i.i_dfu.DFUHandler._c0.finish.maxtimers,0
	.globl	_i.i_dfu.DFUHandler._c0.finish.maxtimers
	.set	_i.i_dfu.DFUHandler._c0.finish.maxchanends,0
	.globl	_i.i_dfu.DFUHandler._c0.finish.maxchanends
.Ltmp0:
	.size	_i.i_dfu.DFUHandler._c0.finish, .Ltmp0-_i.i_dfu.DFUHandler._c0.finish
	.cfi_endproc

	.section	.cp.rodata.cst4,"aMc",@progbits,4
	.cc_top .LCPI1_0.data,.LCPI1_0
	.align	4
	.type	.LCPI1_0,@object
	.size	.LCPI1_0, 4
.LCPI1_0:
	.long	4294967056              # 0xffffff10
	.cc_bottom .LCPI1_0.data
	.cc_top .LCPI1_1.data,.LCPI1_1
	.align	4
	.type	.LCPI1_1,@object
	.size	.LCPI1_1, 4
.LCPI1_1:
	.long	285483025               # 0x11042011
	.cc_bottom .LCPI1_1.data
	.cc_top .LCPI1_2.data,.LCPI1_2
	.align	4
	.type	.LCPI1_2,@object
	.size	.LCPI1_2, 4
.LCPI1_2:
	.long	25000000                # 0x17d7840
	.cc_bottom .LCPI1_2.data
	.cc_top .LCPI1_3.data,.LCPI1_3
	.align	4
	.type	.LCPI1_3,@object
	.size	.LCPI1_3, 4
.LCPI1_3:
	.long	100000                  # 0x186a0
	.cc_bottom .LCPI1_3.data
	.text
	.globl	_i.i_dfu.DFUHandler._c0.HandleDfuRequest
	.align	4
	.type	_i.i_dfu.DFUHandler._c0.HandleDfuRequest,@function
	.cc_top _i.i_dfu.DFUHandler._c0.HandleDfuRequest.function,_i.i_dfu.DFUHandler._c0.HandleDfuRequest
_i.i_dfu.DFUHandler._c0.HandleDfuRequest: # @_i.i_dfu.DFUHandler._c0.HandleDfuRequest
.Lfunc_begin1:
	.loc	1 432 0                 # C:/Projects/UI-01_sw1_hw1/module_dfu/src/dfu.xc:432:0
	.cfi_startproc
	.issue_mode dual
# BB#0:                                 # %allocas
	DUALENTSP_lu6 74
.Ltmp1:
	.cfi_def_cfa_offset 296
.Ltmp2:
	.cfi_offset 15, 0
	stw r4, sp[68]                  # 4-byte Folded Spill
	stw r5, sp[69]                  # 4-byte Folded Spill
.Ltmp3:
	.cfi_offset 4, -24
.Ltmp4:
	.cfi_offset 5, -20
	stw r6, sp[70]                  # 4-byte Folded Spill
	stw r7, sp[71]                  # 4-byte Folded Spill
.Ltmp5:
	.cfi_offset 6, -16
.Ltmp6:
	.cfi_offset 7, -12
	stw r8, sp[72]                  # 4-byte Folded Spill
	stw r9, sp[73]                  # 4-byte Folded Spill
.Ltmp7:
	.cfi_offset 8, -8
.Ltmp8:
	.cfi_offset 9, -4
	#DEBUG_VALUE: _i.i_dfu.DFUHandler._c0.HandleDfuRequest:p <- R0
	#DEBUG_VALUE: _i.i_dfu.DFUHandler._c0.HandleDfuRequest:sp <- R1
	#DEBUG_VALUE: _i.i_dfu.DFUHandler._c0.HandleDfuRequest:data_buffer <- R2
	#DEBUG_VALUE: _i.i_dfu.DFUHandler._c0.HandleDfuRequest:data_buffer_length <- R3
.Ltmp9:
	#DEBUG_VALUE: _i.i_dfu.DFUHandler._c0.HandleDfuRequest:data_buffer <- R7
	#DEBUG_VALUE: _i.i_dfu.DFUHandler._c0.HandleDfuRequest:p <- R4
	{
		mov r7, r2
		mov r4, r0
	}
.Ltmp10:
	ldw r0, sp[75]
.Ltmp11:
.LBB1_1:                                # %allocas
                                        # =>This Inner Loop Header: Depth=1
	#DEBUG_VALUE: tmpDfuState <- R0
	#DEBUG_VALUE: _i.i_dfu.DFUHandler._c0.HandleDfuRequest:dfuState <- R0
	{
		nop
		ldw r2, r4[0]
	}
	bf r2, .LBB1_1
.Ltmp12:
# BB#2:                                 # %ifdone
.Lxtalabel0:
	#DEBUG_VALUE: _i.i_dfu.DFUHandler._c0.HandleDfuRequest:p <- R4
	#DEBUG_VALUE: _i.i_dfu.DFUHandler._c0.HandleDfuRequest:sp <- R1
	#DEBUG_VALUE: _i.i_dfu.DFUHandler._c0.HandleDfuRequest:data_buffer <- R7
	#DEBUG_VALUE: _i.i_dfu.DFUHandler._c0.HandleDfuRequest:data_buffer_length <- R3
	#DEBUG_VALUE: _i.i_dfu.DFUHandler._c0.HandleDfuRequest:dfuState <- R0
	#DEBUG_VALUE: tmpDfuState <- R0
	{
		ldc r5, 0
		nop
	}
	{
		nop
		stw r5, r4[0]
	}
	.loc	1 436 0 prologue_end    # C:/Projects/UI-01_sw1_hw1/module_dfu/src/dfu.xc:436:0
.Ltmp13:
	stw r5, sp[67]
	.loc	1 438 0                 # C:/Projects/UI-01_sw1_hw1/module_dfu/src/dfu.xc:438:0
.Ltmp14:
	stw r0, sp[66]
	{
		mkmsk r2, 2
		nop
	}
	{
		nop
		ld8u r3, r1[r2]
	}
.Ltmp15:
	ldc r2, 239
	.loc	1 442 0                 # C:/Projects/UI-01_sw1_hw1/module_dfu/src/dfu.xc:442:0
	{
		lss r2, r2, r3
		nop
	}
	bt r2, .LBB1_7
.Ltmp16:
# BB#3:                                 # %ifdone
.Lxtalabel1:
	#DEBUG_VALUE: _i.i_dfu.DFUHandler._c0.HandleDfuRequest:p <- R4
	#DEBUG_VALUE: _i.i_dfu.DFUHandler._c0.HandleDfuRequest:sp <- R1
	#DEBUG_VALUE: _i.i_dfu.DFUHandler._c0.HandleDfuRequest:data_buffer <- R7
	#DEBUG_VALUE: _i.i_dfu.DFUHandler._c0.HandleDfuRequest:data_buffer_length <- R3
	#DEBUG_VALUE: _i.i_dfu.DFUHandler._c0.HandleDfuRequest:dfuState <- R0
	{
		ldc r2, 6
		nop
	}
	{
		lsu r11, r2, r3
		nop
	}
	bt r11, .LBB1_4
.Ltmp17:
# BB#6:                                 # %ifdone
.Lxtalabel2:
	#DEBUG_VALUE: _i.i_dfu.DFUHandler._c0.HandleDfuRequest:p <- R4
	#DEBUG_VALUE: _i.i_dfu.DFUHandler._c0.HandleDfuRequest:sp <- R1
	#DEBUG_VALUE: _i.i_dfu.DFUHandler._c0.HandleDfuRequest:data_buffer <- R7
	#DEBUG_VALUE: _i.i_dfu.DFUHandler._c0.HandleDfuRequest:data_buffer_length <- R3
	#DEBUG_VALUE: _i.i_dfu.DFUHandler._c0.HandleDfuRequest:dfuState <- R0
	ldw r9, sp[76]

	.xtabranch .Ljumptable0+4,.Ljumptable0+8,.Ljumptable0+12,.Ljumptable0+16,.Ljumptable0+20,.Ljumptable0+24,.Ljumptable0+28
.Ljumptable0:
		
	{
		nop
		bru r3
	}
	.jmptable32 .LBB1_9,.LBB1_16,.LBB1_28,.LBB1_18,.LBB1_30,.LBB1_35,.LBB1_49
.Ltmp18:
.LBB1_9:                                # %switchcase
.Lxtalabel3:
	#DEBUG_VALUE: _i.i_dfu.DFUHandler._c0.HandleDfuRequest:p <- R4
	#DEBUG_VALUE: _i.i_dfu.DFUHandler._c0.HandleDfuRequest:sp <- R1
	#DEBUG_VALUE: _i.i_dfu.DFUHandler._c0.HandleDfuRequest:data_buffer_length <- R3
	#DEBUG_VALUE: _i.i_dfu.DFUHandler._c0.HandleDfuRequest:dfuState <- R0
	.loc	1 445 0                 # C:/Projects/UI-01_sw1_hw1/module_dfu/src/dfu.xc:445:0
	stw r0, sp[66]
	.loc	1 446 0                 # C:/Projects/UI-01_sw1_hw1/module_dfu/src/dfu.xc:446:0
	{
		ldc r5, 0
		nop
	}
	.loc	1 89 5                  # C:/Projects/UI-01_sw1_hw1/module_dfu/src/dfu.xc:89:5
.Ltmp19:
	bf r0, .LBB1_10
.Ltmp20:
# BB#14:                                # %iffalse.i
.Lxtalabel4:
	#DEBUG_VALUE: _i.i_dfu.DFUHandler._c0.HandleDfuRequest:p <- R4
	#DEBUG_VALUE: _i.i_dfu.DFUHandler._c0.HandleDfuRequest:data_buffer_length <- R3
	{
		ldc r0, 10
		nop
	}
	.loc	1 103 0                 # C:/Projects/UI-01_sw1_hw1/module_dfu/src/dfu.xc:103:0
.Ltmp21:
	stw r0, sp[66]
	#DEBUG_VALUE: _i.i_dfu.DFUHandler._c0.HandleDfuRequest:p <- R4
	#DEBUG_VALUE: _i.i_dfu.DFUHandler._c0.HandleDfuRequest:data_buffer_length <- R3
.Ltmp22:
	.loc	1 446 0                 # C:/Projects/UI-01_sw1_hw1/module_dfu/src/dfu.xc:446:0
	stw r5, sp[67]
	bu .LBB1_4
.Ltmp23:
.LBB1_16:                               # %afterboundcheck
                                        # =>This Inner Loop Header: Depth=1
.Lxtalabel5:
	#DEBUG_VALUE: _i.i_dfu.DFUHandler._c0.HandleDfuRequest:p <- R4
	#DEBUG_VALUE: _i.i_dfu.DFUHandler._c0.HandleDfuRequest:sp <- R1
	#DEBUG_VALUE: _i.i_dfu.DFUHandler._c0.HandleDfuRequest:data_buffer <- R7
	#DEBUG_VALUE: _i.i_dfu.DFUHandler._c0.HandleDfuRequest:data_buffer_length <- R3
	.loc	1 453 0                 # C:/Projects/UI-01_sw1_hw1/module_dfu/src/dfu.xc:453:0
	{
		lsu r0, r5, r9
		nop
	}
.Ltrap_info0:
	{
		ecallf r0
		nop
	}
	#DEBUG_VALUE: _i.i_dfu.DFUHandler._c0.HandleDfuRequest:p <- R4
	#DEBUG_VALUE: _i.i_dfu.DFUHandler._c0.HandleDfuRequest:sp <- R1
	#DEBUG_VALUE: _i.i_dfu.DFUHandler._c0.HandleDfuRequest:data_buffer <- R7
	#DEBUG_VALUE: _i.i_dfu.DFUHandler._c0.HandleDfuRequest:data_buffer_length <- R3
	.loc	1 453 0                 # C:/Projects/UI-01_sw1_hw1/module_dfu/src/dfu.xc:453:0
	{
		ldaw r2, sp[50]
		ldw r0, r7[r5]
	}
	.loc	1 453 0                 # C:/Projects/UI-01_sw1_hw1/module_dfu/src/dfu.xc:453:0
	stw r0, r2[r5]
.Ltmp24:
	#DEBUG_VALUE: i <- R5
	.loc	1 452 0                 # C:/Projects/UI-01_sw1_hw1/module_dfu/src/dfu.xc:452:0
	{
		add r5, r5, 1
		ldc r0, 16
	}
.Ltmp25:
	.loc	1 452 0                 # C:/Projects/UI-01_sw1_hw1/module_dfu/src/dfu.xc:452:0
	{
		lss r0, r5, r0
		nop
	}
.Lxta.loop_labels0:
	# LOOPMARKER 3
	bt r0, .LBB1_16
.Ltmp26:
# BB#17:                                # %ifdone28
.Lxtalabel6:
	#DEBUG_VALUE: _i.i_dfu.DFUHandler._c0.HandleDfuRequest:p <- R4
	#DEBUG_VALUE: _i.i_dfu.DFUHandler._c0.HandleDfuRequest:sp <- R1
	#DEBUG_VALUE: _i.i_dfu.DFUHandler._c0.HandleDfuRequest:data_buffer_length <- R3
	.loc	1 454 0                 # C:/Projects/UI-01_sw1_hw1/module_dfu/src/dfu.xc:454:0
	{
		add r0, r1, 8
		ldc r6, 0
	}
	{
		nop
		ld16s r0, r0[r6]
	}
	.loc	1 454 0                 # C:/Projects/UI-01_sw1_hw1/module_dfu/src/dfu.xc:454:0
	{
		zext r0, 16
		add r1, r1, 4
	}
.Ltmp27:
	{
		nop
		ld16s r1, r1[r6]
	}
	.loc	1 454 0                 # C:/Projects/UI-01_sw1_hw1/module_dfu/src/dfu.xc:454:0
	{
		zext r1, 16
		nop
	}
	ldaw r2, sp[66]
.Ltmp28:
	#DEBUG_VALUE: tmpDfuState <- [R2+0]
	.loc	1 454 0                 # C:/Projects/UI-01_sw1_hw1/module_dfu/src/dfu.xc:454:0
	{
		ldaw r2, sp[50]
		stw r2, sp[1]
	}
.Ltmp29:
	ldaw r3, sp[67]
.Ltmp30:
.Lxta.call_labels0:
	bl DFU_Dnload
	{
		mov r3, r0
		nop
	}
	ldw r5, sp[67]
	{
		mov r2, r6
		nop
	}
	bu .LBB1_47
.Ltmp31:
.LBB1_7:                                # %ifdone
.Lxtalabel7:
	#DEBUG_VALUE: _i.i_dfu.DFUHandler._c0.HandleDfuRequest:p <- R4
	#DEBUG_VALUE: _i.i_dfu.DFUHandler._c0.HandleDfuRequest:data_buffer_length <- R3
	ldw r0, cp[.LCPI1_0]
	{
		add r0, r3, r0
		ldc r1, 6
	}
	{
		lsu r1, r1, r0
		mov r6, r5
	}
	{
		mov r2, r5
		mov r3, r5
	}
.Ltmp32:
	bt r1, .LBB1_47
.Ltmp33:
# BB#8:                                 # %ifdone
.Lxtalabel8:
	#DEBUG_VALUE: _i.i_dfu.DFUHandler._c0.HandleDfuRequest:p <- R4
	#DEBUG_VALUE: _i.i_dfu.DFUHandler._c0.HandleDfuRequest:data_buffer_length <- R3

	.xtabranch .Ljumptable1+4,.Ljumptable1+8,.Ljumptable1+12,.Ljumptable1+16,.Ljumptable1+20,.Ljumptable1+24,.Ljumptable1+28
.Ljumptable1:
		
	{
		nop
		bru r0
	}
	.jmptable32 .LBB1_48,.LBB1_41,.LBB1_45,.LBB1_48,.LBB1_34,.LBB1_34,.LBB1_34
.Ltmp34:
.LBB1_48:                               # %switchcase168
.Lxtalabel9:
	#DEBUG_VALUE: _i.i_dfu.DFUHandler._c0.HandleDfuRequest:p <- R4
	#DEBUG_VALUE: _i.i_dfu.DFUHandler._c0.HandleDfuRequest:data_buffer_length <- R3
	{
		ldc r5, 0
		nop
	}
	.loc	1 489 0                 # C:/Projects/UI-01_sw1_hw1/module_dfu/src/dfu.xc:489:0
	stw r5, sp[67]
	{
		mkmsk r6, 1
		mov r2, r5
	}
	bu .LBB1_46
.Ltmp35:
.LBB1_28:                               # %switchcase26
.Lxtalabel10:
	#DEBUG_VALUE: _i.i_dfu.DFUHandler._c0.HandleDfuRequest:p <- R4
	#DEBUG_VALUE: _i.i_dfu.DFUHandler._c0.HandleDfuRequest:sp <- R1
	#DEBUG_VALUE: _i.i_dfu.DFUHandler._c0.HandleDfuRequest:data_buffer <- R7
	#DEBUG_VALUE: _i.i_dfu.DFUHandler._c0.HandleDfuRequest:data_buffer_length <- R3
	#DEBUG_VALUE: data_out <- [SP+136]
	.loc	1 459 0                 # C:/Projects/UI-01_sw1_hw1/module_dfu/src/dfu.xc:459:0
	{
		add r0, r1, 8
		ldc r6, 0
	}
	{
		nop
		ld16s r0, r0[r6]
	}
	.loc	1 459 0                 # C:/Projects/UI-01_sw1_hw1/module_dfu/src/dfu.xc:459:0
	{
		zext r0, 16
		ldaw r8, sp[34]
	}
	ldaw r2, sp[66]
.Ltmp36:
	#DEBUG_VALUE: tmpDfuState <- [R2+0]
	.loc	1 459 0                 # C:/Projects/UI-01_sw1_hw1/module_dfu/src/dfu.xc:459:0
	{
		mov r1, r8
		nop
	}
.Ltmp37:
.Lxta.call_labels1:
	bl DFU_Upload
.Ltmp38:
	{
		mov r5, r0
		nop
	}
.Ltmp39:
	#DEBUG_VALUE: i <- 0
	.loc	1 459 0                 # C:/Projects/UI-01_sw1_hw1/module_dfu/src/dfu.xc:459:0
	stw r5, sp[67]
	{
		ldc r0, 16
		mov r1, r6
	}
.Ltmp40:
.LBB1_29:                               # %LoopBody71
                                        # =>This Inner Loop Header: Depth=1
.Lxtalabel11:
	#DEBUG_VALUE: _i.i_dfu.DFUHandler._c0.HandleDfuRequest:p <- R4
	#DEBUG_VALUE: _i.i_dfu.DFUHandler._c0.HandleDfuRequest:data_buffer <- R7
	#DEBUG_VALUE: _i.i_dfu.DFUHandler._c0.HandleDfuRequest:data_buffer_length <- R3
	#DEBUG_VALUE: data_out <- [SP+136]
	#DEBUG_VALUE: i <- 0
	.loc	1 461 0                 # C:/Projects/UI-01_sw1_hw1/module_dfu/src/dfu.xc:461:0
	{
		lsu r2, r1, r9
		nop
	}
.Ltrap_info1:
	{
		ecallf r2
		nop
	}
	#DEBUG_VALUE: _i.i_dfu.DFUHandler._c0.HandleDfuRequest:p <- R4
	#DEBUG_VALUE: _i.i_dfu.DFUHandler._c0.HandleDfuRequest:data_buffer <- R7
	#DEBUG_VALUE: _i.i_dfu.DFUHandler._c0.HandleDfuRequest:data_buffer_length <- R3
	#DEBUG_VALUE: data_out <- [SP+136]
	#DEBUG_VALUE: i <- 0
	{
		nop
		ldw r2, r8[r1]
	}
	.loc	1 461 0                 # C:/Projects/UI-01_sw1_hw1/module_dfu/src/dfu.xc:461:0
	stw r2, r7[r1]
	.loc	1 460 0                 # C:/Projects/UI-01_sw1_hw1/module_dfu/src/dfu.xc:460:0
	{
		add r1, r1, 1
		nop
	}
.Ltmp41:
	#DEBUG_VALUE: i <- R1
	.loc	1 460 0                 # C:/Projects/UI-01_sw1_hw1/module_dfu/src/dfu.xc:460:0
	{
		lss r2, r1, r0
		nop
	}
.Lxta.loop_labels1:
	# LOOPMARKER 2
	bt r2, .LBB1_29
	bu .LBB1_40
.Ltmp42:
.LBB1_18:                               # %switchcase55
.Lxtalabel12:
	#DEBUG_VALUE: _i.i_dfu.DFUHandler._c0.HandleDfuRequest:p <- R4
	#DEBUG_VALUE: _i.i_dfu.DFUHandler._c0.HandleDfuRequest:data_buffer <- R7
	#DEBUG_VALUE: _i.i_dfu.DFUHandler._c0.HandleDfuRequest:data_buffer_length <- R3
	#DEBUG_VALUE: _i.i_dfu.DFUHandler._c0.HandleDfuRequest:dfuState <- R0
	#DEBUG_VALUE: data_out <- [SP+72]
	#DEBUG_VALUE: DFU_GetStatus:request_len <- 0
	#DEBUG_VALUE: timeout <- 0
	{
		ldc r6, 0
		nop
	}
	.loc	1 267 0                 # C:/Projects/UI-01_sw1_hw1/module_dfu/src/dfu.xc:267:0
.Ltmp43:
	{
		eq r1, r0, 6
		stw r6, sp[18]
	}
	.loc	1 269 0                 # C:/Projects/UI-01_sw1_hw1/module_dfu/src/dfu.xc:269:0
	bt r1, .LBB1_23
.Ltmp44:
# BB#19:                                # %switchcase55
.Lxtalabel13:
	#DEBUG_VALUE: _i.i_dfu.DFUHandler._c0.HandleDfuRequest:p <- R4
	#DEBUG_VALUE: _i.i_dfu.DFUHandler._c0.HandleDfuRequest:data_buffer <- R7
	#DEBUG_VALUE: _i.i_dfu.DFUHandler._c0.HandleDfuRequest:data_buffer_length <- R3
	#DEBUG_VALUE: _i.i_dfu.DFUHandler._c0.HandleDfuRequest:dfuState <- R0
	{
		eq r1, r0, 3
		nop
	}
	bt r1, .LBB1_22
.Ltmp45:
# BB#20:                                # %switchcase55
.Lxtalabel14:
	#DEBUG_VALUE: _i.i_dfu.DFUHandler._c0.HandleDfuRequest:p <- R4
	#DEBUG_VALUE: _i.i_dfu.DFUHandler._c0.HandleDfuRequest:data_buffer <- R7
	#DEBUG_VALUE: _i.i_dfu.DFUHandler._c0.HandleDfuRequest:data_buffer_length <- R3
	#DEBUG_VALUE: _i.i_dfu.DFUHandler._c0.HandleDfuRequest:dfuState <- R0
	{
		sub r1, r0, 7
		mkmsk r3, 1
	}
.Ltmp46:
	{
		lsu r1, r3, r1
		nop
	}
	bt r1, .LBB1_25
.Ltmp47:
# BB#21:                                # %switchcase3.i
.Lxtalabel15:
	#DEBUG_VALUE: _i.i_dfu.DFUHandler._c0.HandleDfuRequest:p <- R4
	#DEBUG_VALUE: _i.i_dfu.DFUHandler._c0.HandleDfuRequest:data_buffer <- R7
	#DEBUG_VALUE: _i.i_dfu.DFUHandler._c0.HandleDfuRequest:data_buffer_length <- R3
	{
		ldc r0, 10
		nop
	}
	bu .LBB1_24
.Ltmp48:
.LBB1_30:                               # %switchcase92
.Lxtalabel16:
	#DEBUG_VALUE: _i.i_dfu.DFUHandler._c0.HandleDfuRequest:p <- R4
	#DEBUG_VALUE: _i.i_dfu.DFUHandler._c0.HandleDfuRequest:data_buffer_length <- R3
	#DEBUG_VALUE: _i.i_dfu.DFUHandler._c0.HandleDfuRequest:dfuState <- R0
	.loc	1 298 5                 # C:/Projects/UI-01_sw1_hw1/module_dfu/src/dfu.xc:298:5
	{
		eq r0, r0, 10
		nop
	}
.Ltmp49:
	.loc	1 300 0                 # C:/Projects/UI-01_sw1_hw1/module_dfu/src/dfu.xc:300:0
	bt r0, .LBB1_31
.Ltmp50:
# BB#32:                                # %switchcase92
.Lxtalabel17:
	#DEBUG_VALUE: _i.i_dfu.DFUHandler._c0.HandleDfuRequest:p <- R4
	#DEBUG_VALUE: _i.i_dfu.DFUHandler._c0.HandleDfuRequest:data_buffer_length <- R3
	{
		ldc r0, 10
		nop
	}
	bu .LBB1_33
.Ltmp51:
.LBB1_35:                               # %switchcase129
.Lxtalabel18:
	#DEBUG_VALUE: _i.i_dfu.DFUHandler._c0.HandleDfuRequest:p <- R4
	#DEBUG_VALUE: _i.i_dfu.DFUHandler._c0.HandleDfuRequest:data_buffer <- R7
	#DEBUG_VALUE: _i.i_dfu.DFUHandler._c0.HandleDfuRequest:data_buffer_length <- R3
	#DEBUG_VALUE: _i.i_dfu.DFUHandler._c0.HandleDfuRequest:dfuState <- R0
	#DEBUG_VALUE: data_out <- [SP+8]
	#DEBUG_VALUE: DFU_GetState:request_len <- 0
	.loc	1 311 0                 # C:/Projects/UI-01_sw1_hw1/module_dfu/src/dfu.xc:311:0
	{
		ldc r1, 8
		stw r0, sp[2]
	}
	.loc	1 313 0                 # C:/Projects/UI-01_sw1_hw1/module_dfu/src/dfu.xc:313:0
	{
		lsu r1, r1, r0
		nop
	}
	bt r1, .LBB1_38
.Ltmp52:
# BB#36:                                # %switchcase129
.Lxtalabel19:
	#DEBUG_VALUE: _i.i_dfu.DFUHandler._c0.HandleDfuRequest:p <- R4
	#DEBUG_VALUE: _i.i_dfu.DFUHandler._c0.HandleDfuRequest:data_buffer <- R7
	#DEBUG_VALUE: _i.i_dfu.DFUHandler._c0.HandleDfuRequest:data_buffer_length <- R3
	#DEBUG_VALUE: _i.i_dfu.DFUHandler._c0.HandleDfuRequest:dfuState <- R0
	{
		mkmsk r1, 1
		nop
	}
	{
		shl r0, r1, r0
		nop
	}
.Ltmp53:
	ldc r1, 400
	{
		and r0, r0, r1
		nop
	}
	bf r0, .LBB1_38
.Ltmp54:
# BB#37:                                # %switchcase3.i205
.Lxtalabel20:
	#DEBUG_VALUE: _i.i_dfu.DFUHandler._c0.HandleDfuRequest:p <- R4
	#DEBUG_VALUE: _i.i_dfu.DFUHandler._c0.HandleDfuRequest:data_buffer <- R7
	#DEBUG_VALUE: _i.i_dfu.DFUHandler._c0.HandleDfuRequest:data_buffer_length <- R3
	{
		ldc r0, 10
		nop
	}
	.loc	1 318 0                 # C:/Projects/UI-01_sw1_hw1/module_dfu/src/dfu.xc:318:0
	stw r0, sp[66]
.Ltmp55:
.LBB1_38:                               # %DFU_GetState.exit
.Lxtalabel21:
	#DEBUG_VALUE: _i.i_dfu.DFUHandler._c0.HandleDfuRequest:p <- R4
	#DEBUG_VALUE: _i.i_dfu.DFUHandler._c0.HandleDfuRequest:data_buffer <- R7
	#DEBUG_VALUE: _i.i_dfu.DFUHandler._c0.HandleDfuRequest:data_buffer_length <- R3
	#DEBUG_VALUE: data_out <- [SP+8]
	{
		mkmsk r5, 1
		nop
	}
	.loc	1 477 0                 # C:/Projects/UI-01_sw1_hw1/module_dfu/src/dfu.xc:477:0
	stw r5, sp[67]
.Ltmp56:
	#DEBUG_VALUE: i <- 0
	{
		ldc r6, 0
		ldaw r0, sp[2]
	}
	{
		ldc r1, 16
		mov r2, r6
	}
.Ltmp57:
.LBB1_39:                               # %LoopBody147
                                        # =>This Inner Loop Header: Depth=1
.Lxtalabel22:
	#DEBUG_VALUE: _i.i_dfu.DFUHandler._c0.HandleDfuRequest:p <- R4
	#DEBUG_VALUE: _i.i_dfu.DFUHandler._c0.HandleDfuRequest:data_buffer <- R7
	#DEBUG_VALUE: _i.i_dfu.DFUHandler._c0.HandleDfuRequest:data_buffer_length <- R3
	#DEBUG_VALUE: data_out <- [SP+8]
	#DEBUG_VALUE: i <- 0
	.loc	1 479 0                 # C:/Projects/UI-01_sw1_hw1/module_dfu/src/dfu.xc:479:0
	{
		lsu r3, r2, r9
		nop
	}
.Ltmp58:
.Ltrap_info2:
	{
		ecallf r3
		nop
	}
	#DEBUG_VALUE: _i.i_dfu.DFUHandler._c0.HandleDfuRequest:p <- R4
	#DEBUG_VALUE: _i.i_dfu.DFUHandler._c0.HandleDfuRequest:data_buffer <- R7
.Ltmp59:
	#DEBUG_VALUE: _i.i_dfu.DFUHandler._c0.HandleDfuRequest:data_buffer_length <- R3
	#DEBUG_VALUE: data_out <- [SP+8]
	#DEBUG_VALUE: i <- 0
	{
		nop
		ldw r3, r0[r2]
	}
.Ltmp60:
	.loc	1 479 0                 # C:/Projects/UI-01_sw1_hw1/module_dfu/src/dfu.xc:479:0
	stw r3, r7[r2]
	.loc	1 478 0                 # C:/Projects/UI-01_sw1_hw1/module_dfu/src/dfu.xc:478:0
	{
		add r2, r2, 1
		nop
	}
.Ltmp61:
	#DEBUG_VALUE: i <- R2
	.loc	1 478 0                 # C:/Projects/UI-01_sw1_hw1/module_dfu/src/dfu.xc:478:0
	{
		lss r3, r2, r1
		nop
	}
.Lxta.loop_labels2:
	# LOOPMARKER 0
	bt r3, .LBB1_39
	bu .LBB1_40
.Ltmp62:
.LBB1_49:                               # %switchcase131
.Lxtalabel23:
	#DEBUG_VALUE: _i.i_dfu.DFUHandler._c0.HandleDfuRequest:p <- R4
	#DEBUG_VALUE: _i.i_dfu.DFUHandler._c0.HandleDfuRequest:data_buffer_length <- R3
	{
		ldc r0, 2
		nop
	}
	bu .LBB1_33
.Ltmp63:
.LBB1_41:                               # %switchcase170
.Lxtalabel24:
	#DEBUG_VALUE: _i.i_dfu.DFUHandler._c0.HandleDfuRequest:p <- R4
	#DEBUG_VALUE: _i.i_dfu.DFUHandler._c0.HandleDfuRequest:data_buffer_length <- R3
	#DEBUG_VALUE: s <- 0
	.loc	1 398 0                 # C:/Projects/UI-01_sw1_hw1/module_dfu/src/dfu.xc:398:0
	{
		ldc r5, 0
		nop
	}
	ldaw r6, dp[DFU_flash_connected]
	{
		nop
		ld8u r0, r6[r5]
	}
	bt r0, .LBB1_44
.Ltmp64:
# BB#42:                                # %iftrue.i208
.Lxtalabel25:
	#DEBUG_VALUE: _i.i_dfu.DFUHandler._c0.HandleDfuRequest:p <- R4
	#DEBUG_VALUE: _i.i_dfu.DFUHandler._c0.HandleDfuRequest:data_buffer_length <- R3
	#DEBUG_VALUE: s <- 0
	.loc	1 62 0                  # C:/Projects/UI-01_sw1_hw1/module_dfu/src/dfu.xc:62:0
.Lxta.call_labels2:
	bl DFUCustomFlashEnable
.Ltmp65:
	.loc	1 63 0                  # C:/Projects/UI-01_sw1_hw1/module_dfu/src/dfu.xc:63:0
.Lxta.call_labels3:
	bl flash_cmd_init
.Ltmp66:
	#DEBUG_VALUE: error <- R0
	bt r0, .LBB1_44
.Ltmp67:
# BB#43:                                # %ifdone3.i209
.Lxtalabel26:
	#DEBUG_VALUE: _i.i_dfu.DFUHandler._c0.HandleDfuRequest:p <- R4
	#DEBUG_VALUE: _i.i_dfu.DFUHandler._c0.HandleDfuRequest:data_buffer_length <- R3
	#DEBUG_VALUE: s <- 0
	{
		mkmsk r0, 1
		nop
	}
	.loc	1 398 0                 # C:/Projects/UI-01_sw1_hw1/module_dfu/src/dfu.xc:398:0
	st8 r0, r6[r5]
.Ltmp68:
.LBB1_44:                               # %DFU_OpenFlash.exit211
	#DEBUG_VALUE: _i.i_dfu.DFUHandler._c0.HandleDfuRequest:p <- R4
	#DEBUG_VALUE: _i.i_dfu.DFUHandler._c0.HandleDfuRequest:data_buffer_length <- R3
	#DEBUG_VALUE: s <- 0
	.loc	1 400 0                 # C:/Projects/UI-01_sw1_hw1/module_dfu/src/dfu.xc:400:0
.Lxta.call_labels4:
	bl flash_cmd_erase_all
.Ltmp69:
	#DEBUG_VALUE: s <- R0
	.loc	1 402 0                 # C:/Projects/UI-01_sw1_hw1/module_dfu/src/dfu.xc:402:0
	{
		gettime r0
		get r11, id
	}
.Ltmp70:
	.loc	1 403 0                 # C:/Projects/UI-01_sw1_hw1/module_dfu/src/dfu.xc:403:0
	ldaw r1, dp[__timers]
	{
		nop
		ldw r1, r1[r11]
	}
	ldw r2, cp[.LCPI1_2]
	.loc	1 403 0                 # C:/Projects/UI-01_sw1_hw1/module_dfu/src/dfu.xc:403:0
	{
		add r0, r0, r2
		nop
	}
	.loc	1 403 0                 # C:/Projects/UI-01_sw1_hw1/module_dfu/src/dfu.xc:403:0
	{
		setd res[r1], r0
		nop
	}
	.loc	1 403 0                 # C:/Projects/UI-01_sw1_hw1/module_dfu/src/dfu.xc:403:0
	{
		setc res[r1], 9
		nop
	}
	.loc	1 403 0                 # C:/Projects/UI-01_sw1_hw1/module_dfu/src/dfu.xc:403:0
.Lxta.endpoint_labels0:
	{
		in r0, res[r1]
		nop
	}
	#DEBUG_VALUE: _i.i_dfu.DFUHandler._c0.HandleDfuRequest:p <- R4
.Ltmp71:
	#DEBUG_VALUE: _i.i_dfu.DFUHandler._c0.HandleDfuRequest:data_buffer_length <- R3
	.loc	1 446 0                 # C:/Projects/UI-01_sw1_hw1/module_dfu/src/dfu.xc:446:0
	stw r5, sp[67]
	bu .LBB1_4
.Ltmp72:
.LBB1_45:                               # %switchcase172
.Lxtalabel27:
	#DEBUG_VALUE: _i.i_dfu.DFUHandler._c0.HandleDfuRequest:p <- R4
	#DEBUG_VALUE: _i.i_dfu.DFUHandler._c0.HandleDfuRequest:data_buffer_length <- R3
	{
		ldc r5, 0
		nop
	}
	.loc	1 499 0                 # C:/Projects/UI-01_sw1_hw1/module_dfu/src/dfu.xc:499:0
	stw r5, sp[67]
	ldw r2, cp[.LCPI1_1]
	{
		mkmsk r6, 1
		nop
	}
	bu .LBB1_46
.Ltmp73:
.LBB1_31:
	#DEBUG_VALUE: _i.i_dfu.DFUHandler._c0.HandleDfuRequest:p <- R4
	#DEBUG_VALUE: _i.i_dfu.DFUHandler._c0.HandleDfuRequest:data_buffer_length <- R3
	{
		ldc r0, 2
		nop
	}
.Ltmp74:
.LBB1_33:                               # %switchcase92
.Lxtalabel28:
	#DEBUG_VALUE: _i.i_dfu.DFUHandler._c0.HandleDfuRequest:p <- R4
	#DEBUG_VALUE: _i.i_dfu.DFUHandler._c0.HandleDfuRequest:data_buffer_length <- R3
	.loc	1 304 0                 # C:/Projects/UI-01_sw1_hw1/module_dfu/src/dfu.xc:304:0
	stw r0, sp[66]
.Ltmp75:
.LBB1_34:                               # %switchcase178
.Lxtalabel29:
	#DEBUG_VALUE: _i.i_dfu.DFUHandler._c0.HandleDfuRequest:p <- R4
	#DEBUG_VALUE: _i.i_dfu.DFUHandler._c0.HandleDfuRequest:data_buffer_length <- R3
	{
		ldc r5, 0
		nop
	}
	#DEBUG_VALUE: _i.i_dfu.DFUHandler._c0.HandleDfuRequest:p <- R4
	#DEBUG_VALUE: _i.i_dfu.DFUHandler._c0.HandleDfuRequest:data_buffer_length <- R3
	.loc	1 446 0                 # C:/Projects/UI-01_sw1_hw1/module_dfu/src/dfu.xc:446:0
	stw r5, sp[67]
.Ltmp76:
.LBB1_4:
	#DEBUG_VALUE: _i.i_dfu.DFUHandler._c0.HandleDfuRequest:p <- R4
	#DEBUG_VALUE: _i.i_dfu.DFUHandler._c0.HandleDfuRequest:data_buffer_length <- R3
	{
		mov r6, r5
		mov r2, r5
	}
.Ltmp77:
.LBB1_46:                               # %switchdone
.Lxtalabel30:
	{
		mov r3, r5
		nop
	}
.LBB1_47:                               # %switchdone
.Lxtalabel31:
.Ltmp78:
	#DEBUG_VALUE: _i.i_dfu.DFUHandler._c0.HandleDfuRequest:p <- R4
	#DEBUG_VALUE: _i.i_dfu.DFUHandler._c0.HandleDfuRequest:data_buffer_length <- R3
	.loc	1 525 0                 # C:/Projects/UI-01_sw1_hw1/module_dfu/src/dfu.xc:525:0
	ldw r0, sp[66]
	{
		mkmsk r1, 1
		nop
	}
	{
		nop
		stw r1, r4[0]
	}
	stw r0, sp[77]
	{
		mov r0, r6
		mov r1, r5
	}
	ldw r8, sp[72]                  # 4-byte Folded Reload
	ldw r9, sp[73]                  # 4-byte Folded Reload
	ldw r6, sp[70]                  # 4-byte Folded Reload
	ldw r7, sp[71]                  # 4-byte Folded Reload
	ldw r4, sp[68]                  # 4-byte Folded Reload
.Ltmp79:
	ldw r5, sp[69]                  # 4-byte Folded Reload
	retsp 74
	# RETURN_REG_HOLDER
.Ltmp80:
.LBB1_10:                               # %iftrue.i
.Lxtalabel32:
	#DEBUG_VALUE: _i.i_dfu.DFUHandler._c0.HandleDfuRequest:p <- R4
	#DEBUG_VALUE: _i.i_dfu.DFUHandler._c0.HandleDfuRequest:sp <- R1
	#DEBUG_VALUE: _i.i_dfu.DFUHandler._c0.HandleDfuRequest:data_buffer_length <- R3
	.loc	1 446 0                 # C:/Projects/UI-01_sw1_hw1/module_dfu/src/dfu.xc:446:0
	{
		add r0, r1, 4
		nop
	}
	{
		nop
		ld16s r6, r0[r5]
	}
	.loc	1 446 0                 # C:/Projects/UI-01_sw1_hw1/module_dfu/src/dfu.xc:446:0
	{
		zext r6, 16
		mkmsk r7, 1
	}
	.loc	1 91 0                  # C:/Projects/UI-01_sw1_hw1/module_dfu/src/dfu.xc:91:0
.Ltmp81:
	stw r7, sp[66]
	.loc	1 93 0                  # C:/Projects/UI-01_sw1_hw1/module_dfu/src/dfu.xc:93:0
	{
		ldc r8, 0
		nop
	}
	ldaw r9, dp[DFU_flash_connected]
	{
		nop
		ld8u r0, r9[r8]
	}
	bt r0, .LBB1_13
.Ltmp82:
# BB#11:                                # %iftrue.i199
.Lxtalabel33:
	#DEBUG_VALUE: _i.i_dfu.DFUHandler._c0.HandleDfuRequest:p <- R4
	#DEBUG_VALUE: _i.i_dfu.DFUHandler._c0.HandleDfuRequest:data_buffer_length <- R3
	.loc	1 62 0                  # C:/Projects/UI-01_sw1_hw1/module_dfu/src/dfu.xc:62:0
.Lxta.call_labels5:
	bl DFUCustomFlashEnable
.Ltmp83:
	.loc	1 63 0                  # C:/Projects/UI-01_sw1_hw1/module_dfu/src/dfu.xc:63:0
.Lxta.call_labels6:
	bl flash_cmd_init
.Ltmp84:
	#DEBUG_VALUE: error <- R0
	bt r0, .LBB1_13
.Ltmp85:
# BB#12:                                # %ifdone3.i
.Lxtalabel34:
	#DEBUG_VALUE: _i.i_dfu.DFUHandler._c0.HandleDfuRequest:p <- R4
	#DEBUG_VALUE: _i.i_dfu.DFUHandler._c0.HandleDfuRequest:data_buffer_length <- R3
	.loc	1 93 0                  # C:/Projects/UI-01_sw1_hw1/module_dfu/src/dfu.xc:93:0
	st8 r7, r9[r8]
.Ltmp86:
.LBB1_13:                               # %DFU_OpenFlash.exit
	#DEBUG_VALUE: _i.i_dfu.DFUHandler._c0.HandleDfuRequest:p <- R4
	#DEBUG_VALUE: _i.i_dfu.DFUHandler._c0.HandleDfuRequest:data_buffer_length <- R3
	ldw r0, cp[.LCPI1_3]
	.loc	1 96 0                  # C:/Projects/UI-01_sw1_hw1/module_dfu/src/dfu.xc:96:0
	mul r0, r6, r0
	.loc	1 96 0                  # C:/Projects/UI-01_sw1_hw1/module_dfu/src/dfu.xc:96:0
	stw r0, dp[DFUResetTimeout]
	.loc	1 99 0                  # C:/Projects/UI-01_sw1_hw1/module_dfu/src/dfu.xc:99:0
	{
		gettime r0
		nop
	}
	.loc	1 99 0                  # C:/Projects/UI-01_sw1_hw1/module_dfu/src/dfu.xc:99:0
	stw r0, dp[DFUTimerStart]
	#DEBUG_VALUE: _i.i_dfu.DFUHandler._c0.HandleDfuRequest:p <- R4
	#DEBUG_VALUE: _i.i_dfu.DFUHandler._c0.HandleDfuRequest:data_buffer_length <- R3
.Ltmp87:
	.loc	1 446 0                 # C:/Projects/UI-01_sw1_hw1/module_dfu/src/dfu.xc:446:0
	stw r5, sp[67]
	bu .LBB1_4
.Ltmp88:
.LBB1_23:                               # %switchcase8.i
.Lxtalabel35:
	#DEBUG_VALUE: _i.i_dfu.DFUHandler._c0.HandleDfuRequest:p <- R4
	#DEBUG_VALUE: _i.i_dfu.DFUHandler._c0.HandleDfuRequest:data_buffer <- R7
	#DEBUG_VALUE: _i.i_dfu.DFUHandler._c0.HandleDfuRequest:data_buffer_length <- R3
	#DEBUG_VALUE: data_out <- [SP+72]
	#DEBUG_VALUE: DFU_GetStatus:request_len <- 0
	#DEBUG_VALUE: timeout <- 0
	{
		ldc r0, 2
		nop
	}
	bu .LBB1_24
.Ltmp89:
.LBB1_22:                               # %switchcase6.i
.Lxtalabel36:
	#DEBUG_VALUE: _i.i_dfu.DFUHandler._c0.HandleDfuRequest:p <- R4
	#DEBUG_VALUE: _i.i_dfu.DFUHandler._c0.HandleDfuRequest:data_buffer <- R7
	#DEBUG_VALUE: _i.i_dfu.DFUHandler._c0.HandleDfuRequest:data_buffer_length <- R3
	{
		ldc r0, 5
		nop
	}
.Ltmp90:
.LBB1_24:                               # %DFU_GetStatus.exit
.Lxtalabel37:
	.loc	1 284 0                 # C:/Projects/UI-01_sw1_hw1/module_dfu/src/dfu.xc:284:0
	stw r0, sp[66]
.Ltmp91:
.LBB1_25:                               # %DFU_GetStatus.exit
.Lxtalabel38:
	#DEBUG_VALUE: _i.i_dfu.DFUHandler._c0.HandleDfuRequest:p <- R4
	#DEBUG_VALUE: _i.i_dfu.DFUHandler._c0.HandleDfuRequest:data_buffer <- R7
	#DEBUG_VALUE: _i.i_dfu.DFUHandler._c0.HandleDfuRequest:data_buffer_length <- R3
	#DEBUG_VALUE: data_out <- [SP+72]
	#DEBUG_VALUE: DFU_GetStatus:request_len <- 0
	#DEBUG_VALUE: timeout <- 0
	{
		nop
		stw r0, sp[19]
	}
	.loc	1 466 0                 # C:/Projects/UI-01_sw1_hw1/module_dfu/src/dfu.xc:466:0
	stw r2, sp[67]
.Ltmp92:
	#DEBUG_VALUE: i <- 0
	{
		ldaw r0, sp[18]
		ldc r1, 16
	}
	{
		mov r3, r6
		nop
	}
.Ltmp93:
.LBB1_26:                               # %LoopBody108
                                        # =>This Inner Loop Header: Depth=1
.Lxtalabel39:
	#DEBUG_VALUE: _i.i_dfu.DFUHandler._c0.HandleDfuRequest:p <- R4
	#DEBUG_VALUE: _i.i_dfu.DFUHandler._c0.HandleDfuRequest:data_buffer <- R7
	#DEBUG_VALUE: _i.i_dfu.DFUHandler._c0.HandleDfuRequest:data_buffer_length <- R3
	#DEBUG_VALUE: data_out <- [SP+72]
	#DEBUG_VALUE: i <- 0
	.loc	1 468 0                 # C:/Projects/UI-01_sw1_hw1/module_dfu/src/dfu.xc:468:0
	{
		lsu r11, r3, r9
		nop
	}
.Ltrap_info3:
	{
		ecallf r11
		nop
	}
	#DEBUG_VALUE: _i.i_dfu.DFUHandler._c0.HandleDfuRequest:p <- R4
	#DEBUG_VALUE: _i.i_dfu.DFUHandler._c0.HandleDfuRequest:data_buffer <- R7
	#DEBUG_VALUE: _i.i_dfu.DFUHandler._c0.HandleDfuRequest:data_buffer_length <- R3
	#DEBUG_VALUE: data_out <- [SP+72]
	#DEBUG_VALUE: i <- 0
	{
		nop
		ldw r11, r0[r3]
	}
	.loc	1 468 0                 # C:/Projects/UI-01_sw1_hw1/module_dfu/src/dfu.xc:468:0
	stw r11, r7[r3]
	.loc	1 467 0                 # C:/Projects/UI-01_sw1_hw1/module_dfu/src/dfu.xc:467:0
	{
		add r3, r3, 1
		nop
	}
.Ltmp94:
	#DEBUG_VALUE: i <- R3
	.loc	1 467 0                 # C:/Projects/UI-01_sw1_hw1/module_dfu/src/dfu.xc:467:0
	{
		lss r11, r3, r1
		nop
	}
.Lxta.loop_labels3:
	# LOOPMARKER 1
	bt r11, .LBB1_26
.Ltmp95:
# BB#27:
	#DEBUG_VALUE: _i.i_dfu.DFUHandler._c0.HandleDfuRequest:p <- R4
	#DEBUG_VALUE: _i.i_dfu.DFUHandler._c0.HandleDfuRequest:data_buffer_length <- R3
	{
		mov r5, r2
		nop
	}
.Ltmp96:
.LBB1_40:
	#DEBUG_VALUE: _i.i_dfu.DFUHandler._c0.HandleDfuRequest:p <- R4
	#DEBUG_VALUE: _i.i_dfu.DFUHandler._c0.HandleDfuRequest:data_buffer_length <- R3
	{
		mov r2, r6
		mov r3, r6
	}
.Ltmp97:
	bu .LBB1_47
	.cc_bottom _i.i_dfu.DFUHandler._c0.HandleDfuRequest.function
	.set	_i.i_dfu.DFUHandler._c0.HandleDfuRequest.nstackwords,((DFU_Dnload.nstackwords $M DFU_Upload.nstackwords $M flash_cmd_erase_all.nstackwords $M DFUCustomFlashEnable.nstackwords $M flash_cmd_init.nstackwords) + 74)
	.globl	_i.i_dfu.DFUHandler._c0.HandleDfuRequest.nstackwords
	.set	_i.i_dfu.DFUHandler._c0.HandleDfuRequest.maxcores,DFUCustomFlashEnable.maxcores $M DFU_Dnload.maxcores $M DFU_Upload.maxcores $M flash_cmd_erase_all.maxcores $M flash_cmd_init.maxcores $M 1
	.globl	_i.i_dfu.DFUHandler._c0.HandleDfuRequest.maxcores
	.set	_i.i_dfu.DFUHandler._c0.HandleDfuRequest.maxtimers,DFUCustomFlashEnable.maxtimers $M DFU_Dnload.maxtimers $M DFU_Upload.maxtimers $M flash_cmd_erase_all.maxtimers $M flash_cmd_init.maxtimers $M 0
	.globl	_i.i_dfu.DFUHandler._c0.HandleDfuRequest.maxtimers
	.set	_i.i_dfu.DFUHandler._c0.HandleDfuRequest.maxchanends,DFUCustomFlashEnable.maxchanends $M DFU_Dnload.maxchanends $M DFU_Upload.maxchanends $M flash_cmd_erase_all.maxchanends $M flash_cmd_init.maxchanends $M 0
	.globl	_i.i_dfu.DFUHandler._c0.HandleDfuRequest.maxchanends
.Ltmp98:
	.size	_i.i_dfu.DFUHandler._c0.HandleDfuRequest, .Ltmp98-_i.i_dfu.DFUHandler._c0.HandleDfuRequest
.Lfunc_end1:
	.cfi_endproc

	.globl	_i.i_dfu.DFUHandler.0.finish
	.align	4
	.type	_i.i_dfu.DFUHandler.0.finish,@function
	.cc_top _i.i_dfu.DFUHandler.0.finish.function,_i.i_dfu.DFUHandler.0.finish
_i.i_dfu.DFUHandler.0.finish:           # @_i.i_dfu.DFUHandler.0.finish
	.cfi_startproc
	.issue_mode dual
# BB#0:                                 # %allocas
	{
		nop
		dualentsp 0
	}
.LBB2_1:                                # %LoopTest
                                        # =>This Inner Loop Header: Depth=1
	#DEBUG_VALUE: _i.i_dfu.DFUHandler.0.finish:p <- R0
	{
		nop
		ldw r1, r0[0]
	}
	bf r1, .LBB2_1
# BB#2:                                 # %ifdone
	#DEBUG_VALUE: _i.i_dfu.DFUHandler.0.finish:p <- R0
	{
		ldc r1, 0
		nop
	}
	{
		nop
		stw r1, r0[0]
	}
	{
		nop
		retsp 0
	}
	# RETURN_REG_HOLDER
	.cc_bottom _i.i_dfu.DFUHandler.0.finish.function
	.set	_i.i_dfu.DFUHandler.0.finish.nstackwords,0
	.globl	_i.i_dfu.DFUHandler.0.finish.nstackwords
	.set	_i.i_dfu.DFUHandler.0.finish.maxcores,1
	.globl	_i.i_dfu.DFUHandler.0.finish.maxcores
	.set	_i.i_dfu.DFUHandler.0.finish.maxtimers,0
	.globl	_i.i_dfu.DFUHandler.0.finish.maxtimers
	.set	_i.i_dfu.DFUHandler.0.finish.maxchanends,0
	.globl	_i.i_dfu.DFUHandler.0.finish.maxchanends
.Ltmp99:
	.size	_i.i_dfu.DFUHandler.0.finish, .Ltmp99-_i.i_dfu.DFUHandler.0.finish
	.cfi_endproc

	.section	.cp.rodata.cst4,"aMc",@progbits,4
	.cc_top .LCPI3_0.data,.LCPI3_0
	.align	4
	.type	.LCPI3_0,@object
	.size	.LCPI3_0, 4
.LCPI3_0:
	.long	4294967056              # 0xffffff10
	.cc_bottom .LCPI3_0.data
	.cc_top .LCPI3_1.data,.LCPI3_1
	.align	4
	.type	.LCPI3_1,@object
	.size	.LCPI3_1, 4
.LCPI3_1:
	.long	285483025               # 0x11042011
	.cc_bottom .LCPI3_1.data
	.cc_top .LCPI3_2.data,.LCPI3_2
	.align	4
	.type	.LCPI3_2,@object
	.size	.LCPI3_2, 4
.LCPI3_2:
	.long	25000000                # 0x17d7840
	.cc_bottom .LCPI3_2.data
	.cc_top .LCPI3_3.data,.LCPI3_3
	.align	4
	.type	.LCPI3_3,@object
	.size	.LCPI3_3, 4
.LCPI3_3:
	.long	100000                  # 0x186a0
	.cc_bottom .LCPI3_3.data
	.text
	.globl	_i.i_dfu.DFUHandler.0.HandleDfuRequest
	.align	4
	.type	_i.i_dfu.DFUHandler.0.HandleDfuRequest,@function
	.cc_top _i.i_dfu.DFUHandler.0.HandleDfuRequest.function,_i.i_dfu.DFUHandler.0.HandleDfuRequest
_i.i_dfu.DFUHandler.0.HandleDfuRequest: # @_i.i_dfu.DFUHandler.0.HandleDfuRequest
.Lfunc_begin3:
	.loc	1 432 0                 # C:/Projects/UI-01_sw1_hw1/module_dfu/src/dfu.xc:432:0
	.cfi_startproc
	.issue_mode dual
# BB#0:                                 # %allocas
	DUALENTSP_lu6 74
.Ltmp100:
	.cfi_def_cfa_offset 296
.Ltmp101:
	.cfi_offset 15, 0
	stw r4, sp[68]                  # 4-byte Folded Spill
	stw r5, sp[69]                  # 4-byte Folded Spill
.Ltmp102:
	.cfi_offset 4, -24
.Ltmp103:
	.cfi_offset 5, -20
	stw r6, sp[70]                  # 4-byte Folded Spill
	stw r7, sp[71]                  # 4-byte Folded Spill
.Ltmp104:
	.cfi_offset 6, -16
.Ltmp105:
	.cfi_offset 7, -12
	stw r8, sp[72]                  # 4-byte Folded Spill
.Ltmp106:
	.cfi_offset 8, -8
	#DEBUG_VALUE: _i.i_dfu.DFUHandler.0.HandleDfuRequest:p <- R0
	#DEBUG_VALUE: _i.i_dfu.DFUHandler.0.HandleDfuRequest:sp <- R1
	#DEBUG_VALUE: _i.i_dfu.DFUHandler.0.HandleDfuRequest:data_buffer <- R2
	#DEBUG_VALUE: _i.i_dfu.DFUHandler.0.HandleDfuRequest:data_buffer_length <- R3
	{
		mov r6, r2
		nop
	}
.Ltmp107:
	#DEBUG_VALUE: _i.i_dfu.DFUHandler.0.HandleDfuRequest:data_buffer <- R6
	ldw r2, sp[75]
.Ltmp108:
.LBB3_1:                                # %allocas
                                        # =>This Inner Loop Header: Depth=1
	#DEBUG_VALUE: tmpDfuState <- R2
	#DEBUG_VALUE: _i.i_dfu.DFUHandler.0.HandleDfuRequest:dfuState <- R2
	{
		nop
		ldw r3, r0[0]
	}
	bf r3, .LBB3_1
.Ltmp109:
# BB#2:                                 # %ifdone
.Lxtalabel40:
	#DEBUG_VALUE: _i.i_dfu.DFUHandler.0.HandleDfuRequest:sp <- R1
	#DEBUG_VALUE: _i.i_dfu.DFUHandler.0.HandleDfuRequest:data_buffer <- R6
	#DEBUG_VALUE: _i.i_dfu.DFUHandler.0.HandleDfuRequest:data_buffer_length <- R3
	#DEBUG_VALUE: _i.i_dfu.DFUHandler.0.HandleDfuRequest:dfuState <- R2
	#DEBUG_VALUE: tmpDfuState <- R2
	{
		ldc r4, 0
		nop
	}
	.loc	1 436 0 prologue_end    # C:/Projects/UI-01_sw1_hw1/module_dfu/src/dfu.xc:436:0
.Ltmp110:
	stw r4, sp[67]
	.loc	1 438 0                 # C:/Projects/UI-01_sw1_hw1/module_dfu/src/dfu.xc:438:0
.Ltmp111:
	stw r2, sp[66]
	{
		mkmsk r0, 2
		nop
	}
	{
		nop
		ld8u r3, r1[r0]
	}
.Ltmp112:
	ldc r0, 239
	.loc	1 442 0                 # C:/Projects/UI-01_sw1_hw1/module_dfu/src/dfu.xc:442:0
	{
		lss r0, r0, r3
		nop
	}
	bt r0, .LBB3_7
.Ltmp113:
# BB#3:                                 # %ifdone
.Lxtalabel41:
	#DEBUG_VALUE: _i.i_dfu.DFUHandler.0.HandleDfuRequest:sp <- R1
	#DEBUG_VALUE: _i.i_dfu.DFUHandler.0.HandleDfuRequest:data_buffer <- R6
	#DEBUG_VALUE: _i.i_dfu.DFUHandler.0.HandleDfuRequest:data_buffer_length <- R3
	#DEBUG_VALUE: _i.i_dfu.DFUHandler.0.HandleDfuRequest:dfuState <- R2
	{
		ldc r0, 6
		nop
	}
	{
		lsu r11, r0, r3
		nop
	}
	bt r11, .LBB3_4
.Ltmp114:
# BB#6:                                 # %ifdone
.Lxtalabel42:
	#DEBUG_VALUE: _i.i_dfu.DFUHandler.0.HandleDfuRequest:sp <- R1
	#DEBUG_VALUE: _i.i_dfu.DFUHandler.0.HandleDfuRequest:data_buffer <- R6
	#DEBUG_VALUE: _i.i_dfu.DFUHandler.0.HandleDfuRequest:data_buffer_length <- R3
	#DEBUG_VALUE: _i.i_dfu.DFUHandler.0.HandleDfuRequest:dfuState <- R2
	ldw r8, sp[76]

	.xtabranch .Ljumptable2+4,.Ljumptable2+8,.Ljumptable2+12,.Ljumptable2+16,.Ljumptable2+20,.Ljumptable2+24,.Ljumptable2+28
.Ljumptable2:
		
	{
		nop
		bru r3
	}
	.jmptable32 .LBB3_9,.LBB3_16,.LBB3_28,.LBB3_18,.LBB3_30,.LBB3_35,.LBB3_49
.Ltmp115:
.LBB3_9:                                # %switchcase
.Lxtalabel43:
	#DEBUG_VALUE: _i.i_dfu.DFUHandler.0.HandleDfuRequest:sp <- R1
	#DEBUG_VALUE: _i.i_dfu.DFUHandler.0.HandleDfuRequest:data_buffer_length <- R3
	#DEBUG_VALUE: _i.i_dfu.DFUHandler.0.HandleDfuRequest:dfuState <- R2
	.loc	1 445 0                 # C:/Projects/UI-01_sw1_hw1/module_dfu/src/dfu.xc:445:0
	stw r2, sp[66]
	.loc	1 446 0                 # C:/Projects/UI-01_sw1_hw1/module_dfu/src/dfu.xc:446:0
	{
		ldc r4, 0
		nop
	}
	.loc	1 89 5                  # C:/Projects/UI-01_sw1_hw1/module_dfu/src/dfu.xc:89:5
.Ltmp116:
	bf r2, .LBB3_10
.Ltmp117:
# BB#14:                                # %iffalse.i
.Lxtalabel44:
	#DEBUG_VALUE: _i.i_dfu.DFUHandler.0.HandleDfuRequest:data_buffer_length <- R3
	{
		ldc r0, 10
		nop
	}
	.loc	1 103 0                 # C:/Projects/UI-01_sw1_hw1/module_dfu/src/dfu.xc:103:0
.Ltmp118:
	stw r0, sp[66]
	#DEBUG_VALUE: _i.i_dfu.DFUHandler.0.HandleDfuRequest:data_buffer_length <- R3
.Ltmp119:
	.loc	1 446 0                 # C:/Projects/UI-01_sw1_hw1/module_dfu/src/dfu.xc:446:0
	stw r4, sp[67]
	bu .LBB3_4
.Ltmp120:
.LBB3_16:                               # %afterboundcheck
                                        # =>This Inner Loop Header: Depth=1
.Lxtalabel45:
	#DEBUG_VALUE: _i.i_dfu.DFUHandler.0.HandleDfuRequest:sp <- R1
	#DEBUG_VALUE: _i.i_dfu.DFUHandler.0.HandleDfuRequest:data_buffer <- R6
	#DEBUG_VALUE: _i.i_dfu.DFUHandler.0.HandleDfuRequest:data_buffer_length <- R3
	.loc	1 453 0                 # C:/Projects/UI-01_sw1_hw1/module_dfu/src/dfu.xc:453:0
	{
		lsu r0, r4, r8
		nop
	}
.Ltrap_info4:
	{
		ecallf r0
		nop
	}
	#DEBUG_VALUE: _i.i_dfu.DFUHandler.0.HandleDfuRequest:sp <- R1
	#DEBUG_VALUE: _i.i_dfu.DFUHandler.0.HandleDfuRequest:data_buffer <- R6
	#DEBUG_VALUE: _i.i_dfu.DFUHandler.0.HandleDfuRequest:data_buffer_length <- R3
	.loc	1 453 0                 # C:/Projects/UI-01_sw1_hw1/module_dfu/src/dfu.xc:453:0
	{
		ldaw r2, sp[50]
		ldw r0, r6[r4]
	}
	.loc	1 453 0                 # C:/Projects/UI-01_sw1_hw1/module_dfu/src/dfu.xc:453:0
	stw r0, r2[r4]
.Ltmp121:
	#DEBUG_VALUE: i <- R4
	.loc	1 452 0                 # C:/Projects/UI-01_sw1_hw1/module_dfu/src/dfu.xc:452:0
	{
		add r4, r4, 1
		ldc r0, 16
	}
.Ltmp122:
	.loc	1 452 0                 # C:/Projects/UI-01_sw1_hw1/module_dfu/src/dfu.xc:452:0
	{
		lss r0, r4, r0
		nop
	}
.Lxta.loop_labels4:
	# LOOPMARKER 3
	bt r0, .LBB3_16
.Ltmp123:
# BB#17:                                # %ifdone27
.Lxtalabel46:
	#DEBUG_VALUE: _i.i_dfu.DFUHandler.0.HandleDfuRequest:sp <- R1
	#DEBUG_VALUE: _i.i_dfu.DFUHandler.0.HandleDfuRequest:data_buffer_length <- R3
	.loc	1 454 0                 # C:/Projects/UI-01_sw1_hw1/module_dfu/src/dfu.xc:454:0
	{
		add r0, r1, 8
		ldc r5, 0
	}
	{
		nop
		ld16s r0, r0[r5]
	}
	.loc	1 454 0                 # C:/Projects/UI-01_sw1_hw1/module_dfu/src/dfu.xc:454:0
	{
		zext r0, 16
		add r1, r1, 4
	}
.Ltmp124:
	{
		nop
		ld16s r1, r1[r5]
	}
	.loc	1 454 0                 # C:/Projects/UI-01_sw1_hw1/module_dfu/src/dfu.xc:454:0
	{
		zext r1, 16
		nop
	}
	ldaw r2, sp[66]
.Ltmp125:
	#DEBUG_VALUE: tmpDfuState <- [R2+0]
	.loc	1 454 0                 # C:/Projects/UI-01_sw1_hw1/module_dfu/src/dfu.xc:454:0
	{
		ldaw r2, sp[50]
		stw r2, sp[1]
	}
.Ltmp126:
	ldaw r3, sp[67]
.Ltmp127:
.Lxta.call_labels7:
	bl DFU_Dnload
	{
		mov r3, r0
		nop
	}
	ldw r4, sp[67]
	{
		mov r2, r5
		nop
	}
	bu .LBB3_47
.Ltmp128:
.LBB3_7:                                # %ifdone
.Lxtalabel47:
	#DEBUG_VALUE: _i.i_dfu.DFUHandler.0.HandleDfuRequest:data_buffer_length <- R3
	ldw r0, cp[.LCPI3_0]
	{
		add r0, r3, r0
		ldc r1, 6
	}
	{
		lsu r1, r1, r0
		mov r5, r4
	}
	{
		mov r2, r4
		mov r3, r4
	}
.Ltmp129:
	bt r1, .LBB3_47
# BB#8:                                 # %ifdone
.Lxtalabel48:
.Ltmp130:
	#DEBUG_VALUE: _i.i_dfu.DFUHandler.0.HandleDfuRequest:data_buffer_length <- R3

	.xtabranch .Ljumptable3+4,.Ljumptable3+8,.Ljumptable3+12,.Ljumptable3+16,.Ljumptable3+20,.Ljumptable3+24,.Ljumptable3+28
.Ljumptable3:
		
	{
		nop
		bru r0
	}
	.jmptable32 .LBB3_48,.LBB3_41,.LBB3_45,.LBB3_48,.LBB3_34,.LBB3_34,.LBB3_34
.Ltmp131:
.LBB3_48:                               # %switchcase167
.Lxtalabel49:
	#DEBUG_VALUE: _i.i_dfu.DFUHandler.0.HandleDfuRequest:data_buffer_length <- R3
	{
		ldc r4, 0
		nop
	}
	.loc	1 489 0                 # C:/Projects/UI-01_sw1_hw1/module_dfu/src/dfu.xc:489:0
	stw r4, sp[67]
	{
		mkmsk r5, 1
		mov r2, r4
	}
	bu .LBB3_46
.Ltmp132:
.LBB3_28:                               # %switchcase25
.Lxtalabel50:
	#DEBUG_VALUE: _i.i_dfu.DFUHandler.0.HandleDfuRequest:sp <- R1
	#DEBUG_VALUE: _i.i_dfu.DFUHandler.0.HandleDfuRequest:data_buffer <- R6
	#DEBUG_VALUE: _i.i_dfu.DFUHandler.0.HandleDfuRequest:data_buffer_length <- R3
	#DEBUG_VALUE: data_out <- [SP+136]
	.loc	1 459 0                 # C:/Projects/UI-01_sw1_hw1/module_dfu/src/dfu.xc:459:0
	{
		add r0, r1, 8
		ldc r5, 0
	}
	{
		nop
		ld16s r0, r0[r5]
	}
	.loc	1 459 0                 # C:/Projects/UI-01_sw1_hw1/module_dfu/src/dfu.xc:459:0
	{
		zext r0, 16
		ldaw r7, sp[34]
	}
	ldaw r2, sp[66]
.Ltmp133:
	#DEBUG_VALUE: tmpDfuState <- [R2+0]
	.loc	1 459 0                 # C:/Projects/UI-01_sw1_hw1/module_dfu/src/dfu.xc:459:0
	{
		mov r1, r7
		nop
	}
.Ltmp134:
.Lxta.call_labels8:
	bl DFU_Upload
.Ltmp135:
	{
		mov r4, r0
		nop
	}
.Ltmp136:
	#DEBUG_VALUE: i <- 0
	.loc	1 459 0                 # C:/Projects/UI-01_sw1_hw1/module_dfu/src/dfu.xc:459:0
	stw r4, sp[67]
	{
		ldc r0, 16
		mov r1, r5
	}
.Ltmp137:
.LBB3_29:                               # %LoopBody70
                                        # =>This Inner Loop Header: Depth=1
.Lxtalabel51:
	#DEBUG_VALUE: _i.i_dfu.DFUHandler.0.HandleDfuRequest:data_buffer <- R6
	#DEBUG_VALUE: _i.i_dfu.DFUHandler.0.HandleDfuRequest:data_buffer_length <- R3
	#DEBUG_VALUE: data_out <- [SP+136]
	#DEBUG_VALUE: i <- 0
	.loc	1 461 0                 # C:/Projects/UI-01_sw1_hw1/module_dfu/src/dfu.xc:461:0
	{
		lsu r2, r1, r8
		nop
	}
.Ltrap_info5:
	{
		ecallf r2
		nop
	}
	#DEBUG_VALUE: _i.i_dfu.DFUHandler.0.HandleDfuRequest:data_buffer <- R6
	#DEBUG_VALUE: _i.i_dfu.DFUHandler.0.HandleDfuRequest:data_buffer_length <- R3
	#DEBUG_VALUE: data_out <- [SP+136]
	#DEBUG_VALUE: i <- 0
	{
		nop
		ldw r2, r7[r1]
	}
	.loc	1 461 0                 # C:/Projects/UI-01_sw1_hw1/module_dfu/src/dfu.xc:461:0
	stw r2, r6[r1]
	.loc	1 460 0                 # C:/Projects/UI-01_sw1_hw1/module_dfu/src/dfu.xc:460:0
	{
		add r1, r1, 1
		nop
	}
.Ltmp138:
	#DEBUG_VALUE: i <- R1
	.loc	1 460 0                 # C:/Projects/UI-01_sw1_hw1/module_dfu/src/dfu.xc:460:0
	{
		lss r2, r1, r0
		nop
	}
.Lxta.loop_labels5:
	# LOOPMARKER 2
	bt r2, .LBB3_29
	bu .LBB3_40
.Ltmp139:
.LBB3_18:                               # %switchcase54
.Lxtalabel52:
	#DEBUG_VALUE: _i.i_dfu.DFUHandler.0.HandleDfuRequest:data_buffer <- R6
	#DEBUG_VALUE: _i.i_dfu.DFUHandler.0.HandleDfuRequest:data_buffer_length <- R3
	#DEBUG_VALUE: _i.i_dfu.DFUHandler.0.HandleDfuRequest:dfuState <- R2
	#DEBUG_VALUE: data_out <- [SP+72]
	#DEBUG_VALUE: DFU_GetStatus:request_len <- 0
	#DEBUG_VALUE: timeout <- 0
	{
		ldc r5, 0
		nop
	}
	.loc	1 267 0                 # C:/Projects/UI-01_sw1_hw1/module_dfu/src/dfu.xc:267:0
.Ltmp140:
	{
		eq r1, r2, 6
		stw r5, sp[18]
	}
	.loc	1 269 0                 # C:/Projects/UI-01_sw1_hw1/module_dfu/src/dfu.xc:269:0
	bt r1, .LBB3_23
.Ltmp141:
# BB#19:                                # %switchcase54
.Lxtalabel53:
	#DEBUG_VALUE: _i.i_dfu.DFUHandler.0.HandleDfuRequest:data_buffer <- R6
	#DEBUG_VALUE: _i.i_dfu.DFUHandler.0.HandleDfuRequest:data_buffer_length <- R3
	#DEBUG_VALUE: _i.i_dfu.DFUHandler.0.HandleDfuRequest:dfuState <- R2
	{
		eq r1, r2, 3
		nop
	}
	bt r1, .LBB3_22
.Ltmp142:
# BB#20:                                # %switchcase54
.Lxtalabel54:
	#DEBUG_VALUE: _i.i_dfu.DFUHandler.0.HandleDfuRequest:data_buffer <- R6
	#DEBUG_VALUE: _i.i_dfu.DFUHandler.0.HandleDfuRequest:data_buffer_length <- R3
	#DEBUG_VALUE: _i.i_dfu.DFUHandler.0.HandleDfuRequest:dfuState <- R2
	{
		sub r1, r2, 7
		mkmsk r3, 1
	}
.Ltmp143:
	{
		lsu r1, r3, r1
		nop
	}
	bt r1, .LBB3_25
.Ltmp144:
# BB#21:                                # %switchcase3.i
.Lxtalabel55:
	#DEBUG_VALUE: _i.i_dfu.DFUHandler.0.HandleDfuRequest:data_buffer <- R6
	#DEBUG_VALUE: _i.i_dfu.DFUHandler.0.HandleDfuRequest:data_buffer_length <- R3
	{
		ldc r2, 10
		nop
	}
	bu .LBB3_24
.Ltmp145:
.LBB3_30:                               # %switchcase91
.Lxtalabel56:
	#DEBUG_VALUE: _i.i_dfu.DFUHandler.0.HandleDfuRequest:data_buffer_length <- R3
	#DEBUG_VALUE: _i.i_dfu.DFUHandler.0.HandleDfuRequest:dfuState <- R2
	.loc	1 298 5                 # C:/Projects/UI-01_sw1_hw1/module_dfu/src/dfu.xc:298:5
	{
		eq r0, r2, 10
		nop
	}
	.loc	1 300 0                 # C:/Projects/UI-01_sw1_hw1/module_dfu/src/dfu.xc:300:0
	bt r0, .LBB3_31
.Ltmp146:
# BB#32:                                # %switchcase91
.Lxtalabel57:
	#DEBUG_VALUE: _i.i_dfu.DFUHandler.0.HandleDfuRequest:data_buffer_length <- R3
	{
		ldc r0, 10
		nop
	}
	bu .LBB3_33
.Ltmp147:
.LBB3_35:                               # %switchcase128
.Lxtalabel58:
	#DEBUG_VALUE: _i.i_dfu.DFUHandler.0.HandleDfuRequest:data_buffer <- R6
	#DEBUG_VALUE: _i.i_dfu.DFUHandler.0.HandleDfuRequest:data_buffer_length <- R3
	#DEBUG_VALUE: _i.i_dfu.DFUHandler.0.HandleDfuRequest:dfuState <- R2
	#DEBUG_VALUE: data_out <- [SP+8]
	#DEBUG_VALUE: DFU_GetState:request_len <- 0
	.loc	1 311 0                 # C:/Projects/UI-01_sw1_hw1/module_dfu/src/dfu.xc:311:0
	{
		ldc r0, 8
		stw r2, sp[2]
	}
	.loc	1 313 0                 # C:/Projects/UI-01_sw1_hw1/module_dfu/src/dfu.xc:313:0
	{
		lsu r0, r0, r2
		nop
	}
	bt r0, .LBB3_38
.Ltmp148:
# BB#36:                                # %switchcase128
.Lxtalabel59:
	#DEBUG_VALUE: _i.i_dfu.DFUHandler.0.HandleDfuRequest:data_buffer <- R6
	#DEBUG_VALUE: _i.i_dfu.DFUHandler.0.HandleDfuRequest:data_buffer_length <- R3
	#DEBUG_VALUE: _i.i_dfu.DFUHandler.0.HandleDfuRequest:dfuState <- R2
	{
		mkmsk r0, 1
		nop
	}
	{
		shl r0, r0, r2
		nop
	}
	ldc r1, 400
	{
		and r0, r0, r1
		nop
	}
	bf r0, .LBB3_38
.Ltmp149:
# BB#37:                                # %switchcase3.i202
.Lxtalabel60:
	#DEBUG_VALUE: _i.i_dfu.DFUHandler.0.HandleDfuRequest:data_buffer <- R6
	#DEBUG_VALUE: _i.i_dfu.DFUHandler.0.HandleDfuRequest:data_buffer_length <- R3
	{
		ldc r0, 10
		nop
	}
	.loc	1 318 0                 # C:/Projects/UI-01_sw1_hw1/module_dfu/src/dfu.xc:318:0
	stw r0, sp[66]
.Ltmp150:
.LBB3_38:                               # %DFU_GetState.exit
.Lxtalabel61:
	#DEBUG_VALUE: _i.i_dfu.DFUHandler.0.HandleDfuRequest:data_buffer <- R6
	#DEBUG_VALUE: _i.i_dfu.DFUHandler.0.HandleDfuRequest:data_buffer_length <- R3
	#DEBUG_VALUE: data_out <- [SP+8]
	{
		mkmsk r4, 1
		nop
	}
	.loc	1 477 0                 # C:/Projects/UI-01_sw1_hw1/module_dfu/src/dfu.xc:477:0
	stw r4, sp[67]
.Ltmp151:
	#DEBUG_VALUE: i <- 0
	{
		ldc r5, 0
		ldaw r0, sp[2]
	}
	{
		ldc r1, 16
		mov r2, r5
	}
.Ltmp152:
.LBB3_39:                               # %LoopBody146
                                        # =>This Inner Loop Header: Depth=1
.Lxtalabel62:
	#DEBUG_VALUE: _i.i_dfu.DFUHandler.0.HandleDfuRequest:data_buffer <- R6
	#DEBUG_VALUE: _i.i_dfu.DFUHandler.0.HandleDfuRequest:data_buffer_length <- R3
	#DEBUG_VALUE: data_out <- [SP+8]
	#DEBUG_VALUE: i <- 0
	.loc	1 479 0                 # C:/Projects/UI-01_sw1_hw1/module_dfu/src/dfu.xc:479:0
	{
		lsu r3, r2, r8
		nop
	}
.Ltmp153:
.Ltrap_info6:
	{
		ecallf r3
		nop
	}
	#DEBUG_VALUE: _i.i_dfu.DFUHandler.0.HandleDfuRequest:data_buffer <- R6
.Ltmp154:
	#DEBUG_VALUE: _i.i_dfu.DFUHandler.0.HandleDfuRequest:data_buffer_length <- R3
	#DEBUG_VALUE: data_out <- [SP+8]
	#DEBUG_VALUE: i <- 0
	{
		nop
		ldw r3, r0[r2]
	}
.Ltmp155:
	.loc	1 479 0                 # C:/Projects/UI-01_sw1_hw1/module_dfu/src/dfu.xc:479:0
	stw r3, r6[r2]
	.loc	1 478 0                 # C:/Projects/UI-01_sw1_hw1/module_dfu/src/dfu.xc:478:0
	{
		add r2, r2, 1
		nop
	}
.Ltmp156:
	#DEBUG_VALUE: i <- R2
	.loc	1 478 0                 # C:/Projects/UI-01_sw1_hw1/module_dfu/src/dfu.xc:478:0
	{
		lss r3, r2, r1
		nop
	}
.Lxta.loop_labels6:
	# LOOPMARKER 0
	bt r3, .LBB3_39
	bu .LBB3_40
.Ltmp157:
.LBB3_49:                               # %switchcase130
.Lxtalabel63:
	#DEBUG_VALUE: _i.i_dfu.DFUHandler.0.HandleDfuRequest:data_buffer_length <- R3
	{
		ldc r0, 2
		nop
	}
	bu .LBB3_33
.Ltmp158:
.LBB3_41:                               # %switchcase169
.Lxtalabel64:
	#DEBUG_VALUE: _i.i_dfu.DFUHandler.0.HandleDfuRequest:data_buffer_length <- R3
	#DEBUG_VALUE: s <- 0
	.loc	1 398 0                 # C:/Projects/UI-01_sw1_hw1/module_dfu/src/dfu.xc:398:0
	{
		ldc r4, 0
		nop
	}
	ldaw r5, dp[DFU_flash_connected]
	{
		nop
		ld8u r0, r5[r4]
	}
	bt r0, .LBB3_44
.Ltmp159:
# BB#42:                                # %iftrue.i205
.Lxtalabel65:
	#DEBUG_VALUE: _i.i_dfu.DFUHandler.0.HandleDfuRequest:data_buffer_length <- R3
	#DEBUG_VALUE: s <- 0
	.loc	1 62 0                  # C:/Projects/UI-01_sw1_hw1/module_dfu/src/dfu.xc:62:0
.Lxta.call_labels9:
	bl DFUCustomFlashEnable
.Ltmp160:
	.loc	1 63 0                  # C:/Projects/UI-01_sw1_hw1/module_dfu/src/dfu.xc:63:0
.Lxta.call_labels10:
	bl flash_cmd_init
.Ltmp161:
	#DEBUG_VALUE: error <- R0
	bt r0, .LBB3_44
.Ltmp162:
# BB#43:                                # %ifdone3.i206
.Lxtalabel66:
	#DEBUG_VALUE: _i.i_dfu.DFUHandler.0.HandleDfuRequest:data_buffer_length <- R3
	#DEBUG_VALUE: s <- 0
	{
		mkmsk r0, 1
		nop
	}
	.loc	1 398 0                 # C:/Projects/UI-01_sw1_hw1/module_dfu/src/dfu.xc:398:0
	st8 r0, r5[r4]
.Ltmp163:
.LBB3_44:                               # %DFU_OpenFlash.exit208
	#DEBUG_VALUE: _i.i_dfu.DFUHandler.0.HandleDfuRequest:data_buffer_length <- R3
	#DEBUG_VALUE: s <- 0
	.loc	1 400 0                 # C:/Projects/UI-01_sw1_hw1/module_dfu/src/dfu.xc:400:0
.Lxta.call_labels11:
	bl flash_cmd_erase_all
.Ltmp164:
	#DEBUG_VALUE: s <- R0
	.loc	1 402 0                 # C:/Projects/UI-01_sw1_hw1/module_dfu/src/dfu.xc:402:0
	{
		gettime r0
		get r11, id
	}
.Ltmp165:
	.loc	1 403 0                 # C:/Projects/UI-01_sw1_hw1/module_dfu/src/dfu.xc:403:0
	ldaw r1, dp[__timers]
	{
		nop
		ldw r1, r1[r11]
	}
	ldw r2, cp[.LCPI3_2]
	.loc	1 403 0                 # C:/Projects/UI-01_sw1_hw1/module_dfu/src/dfu.xc:403:0
	{
		add r0, r0, r2
		nop
	}
	.loc	1 403 0                 # C:/Projects/UI-01_sw1_hw1/module_dfu/src/dfu.xc:403:0
	{
		setd res[r1], r0
		nop
	}
	.loc	1 403 0                 # C:/Projects/UI-01_sw1_hw1/module_dfu/src/dfu.xc:403:0
	{
		setc res[r1], 9
		nop
	}
	.loc	1 403 0                 # C:/Projects/UI-01_sw1_hw1/module_dfu/src/dfu.xc:403:0
.Lxta.endpoint_labels1:
	{
		in r0, res[r1]
		nop
	}
.Ltmp166:
	#DEBUG_VALUE: _i.i_dfu.DFUHandler.0.HandleDfuRequest:data_buffer_length <- R3
	.loc	1 446 0                 # C:/Projects/UI-01_sw1_hw1/module_dfu/src/dfu.xc:446:0
	stw r4, sp[67]
	bu .LBB3_4
.Ltmp167:
.LBB3_45:                               # %switchcase171
.Lxtalabel67:
	#DEBUG_VALUE: _i.i_dfu.DFUHandler.0.HandleDfuRequest:data_buffer_length <- R3
	{
		ldc r4, 0
		nop
	}
	.loc	1 499 0                 # C:/Projects/UI-01_sw1_hw1/module_dfu/src/dfu.xc:499:0
	stw r4, sp[67]
	ldw r2, cp[.LCPI3_1]
	{
		mkmsk r5, 1
		nop
	}
	bu .LBB3_46
.Ltmp168:
.LBB3_31:
	#DEBUG_VALUE: _i.i_dfu.DFUHandler.0.HandleDfuRequest:data_buffer_length <- R3
	{
		ldc r0, 2
		nop
	}
.Ltmp169:
.LBB3_33:                               # %switchcase91
.Lxtalabel68:
	#DEBUG_VALUE: _i.i_dfu.DFUHandler.0.HandleDfuRequest:data_buffer_length <- R3
	.loc	1 304 0                 # C:/Projects/UI-01_sw1_hw1/module_dfu/src/dfu.xc:304:0
	stw r0, sp[66]
.Ltmp170:
.LBB3_34:                               # %switchcase177
.Lxtalabel69:
	#DEBUG_VALUE: _i.i_dfu.DFUHandler.0.HandleDfuRequest:data_buffer_length <- R3
	{
		ldc r4, 0
		nop
	}
	#DEBUG_VALUE: _i.i_dfu.DFUHandler.0.HandleDfuRequest:data_buffer_length <- R3
	.loc	1 446 0                 # C:/Projects/UI-01_sw1_hw1/module_dfu/src/dfu.xc:446:0
	stw r4, sp[67]
.Ltmp171:
.LBB3_4:
	#DEBUG_VALUE: _i.i_dfu.DFUHandler.0.HandleDfuRequest:data_buffer_length <- R3
	{
		mov r5, r4
		mov r2, r4
	}
.Ltmp172:
.LBB3_46:                               # %switchdone
.Lxtalabel70:
	{
		mov r3, r4
		nop
	}
.LBB3_47:                               # %switchdone
.Lxtalabel71:
.Ltmp173:
	#DEBUG_VALUE: _i.i_dfu.DFUHandler.0.HandleDfuRequest:data_buffer_length <- R3
	.loc	1 525 0                 # C:/Projects/UI-01_sw1_hw1/module_dfu/src/dfu.xc:525:0
	ldw r0, sp[66]
	{
		clre
		nop
	}
	stw r0, sp[77]
	{
		mov r0, r5
		mov r1, r4
	}
	ldw r8, sp[72]                  # 4-byte Folded Reload
	ldw r6, sp[70]                  # 4-byte Folded Reload
	ldw r7, sp[71]                  # 4-byte Folded Reload
	ldw r4, sp[68]                  # 4-byte Folded Reload
	ldw r5, sp[69]                  # 4-byte Folded Reload
	retsp 74
	# RETURN_REG_HOLDER
.Ltmp174:
.LBB3_10:                               # %iftrue.i
.Lxtalabel72:
	#DEBUG_VALUE: _i.i_dfu.DFUHandler.0.HandleDfuRequest:sp <- R1
	#DEBUG_VALUE: _i.i_dfu.DFUHandler.0.HandleDfuRequest:data_buffer_length <- R3
	.loc	1 446 0                 # C:/Projects/UI-01_sw1_hw1/module_dfu/src/dfu.xc:446:0
	{
		add r0, r1, 4
		nop
	}
	{
		nop
		ld16s r5, r0[r4]
	}
	.loc	1 446 0                 # C:/Projects/UI-01_sw1_hw1/module_dfu/src/dfu.xc:446:0
	{
		zext r5, 16
		mkmsk r6, 1
	}
	.loc	1 91 0                  # C:/Projects/UI-01_sw1_hw1/module_dfu/src/dfu.xc:91:0
.Ltmp175:
	stw r6, sp[66]
	.loc	1 93 0                  # C:/Projects/UI-01_sw1_hw1/module_dfu/src/dfu.xc:93:0
	{
		ldc r7, 0
		nop
	}
	ldaw r8, dp[DFU_flash_connected]
	{
		nop
		ld8u r0, r8[r7]
	}
	bt r0, .LBB3_13
.Ltmp176:
# BB#11:                                # %iftrue.i196
.Lxtalabel73:
	#DEBUG_VALUE: _i.i_dfu.DFUHandler.0.HandleDfuRequest:data_buffer_length <- R3
	.loc	1 62 0                  # C:/Projects/UI-01_sw1_hw1/module_dfu/src/dfu.xc:62:0
.Lxta.call_labels12:
	bl DFUCustomFlashEnable
.Ltmp177:
	.loc	1 63 0                  # C:/Projects/UI-01_sw1_hw1/module_dfu/src/dfu.xc:63:0
.Lxta.call_labels13:
	bl flash_cmd_init
.Ltmp178:
	#DEBUG_VALUE: error <- R0
	bt r0, .LBB3_13
.Ltmp179:
# BB#12:                                # %ifdone3.i
.Lxtalabel74:
	#DEBUG_VALUE: _i.i_dfu.DFUHandler.0.HandleDfuRequest:data_buffer_length <- R3
	.loc	1 93 0                  # C:/Projects/UI-01_sw1_hw1/module_dfu/src/dfu.xc:93:0
	st8 r6, r8[r7]
.Ltmp180:
.LBB3_13:                               # %DFU_OpenFlash.exit
	#DEBUG_VALUE: _i.i_dfu.DFUHandler.0.HandleDfuRequest:data_buffer_length <- R3
	ldw r0, cp[.LCPI3_3]
	.loc	1 96 0                  # C:/Projects/UI-01_sw1_hw1/module_dfu/src/dfu.xc:96:0
	mul r0, r5, r0
	.loc	1 96 0                  # C:/Projects/UI-01_sw1_hw1/module_dfu/src/dfu.xc:96:0
	stw r0, dp[DFUResetTimeout]
	.loc	1 99 0                  # C:/Projects/UI-01_sw1_hw1/module_dfu/src/dfu.xc:99:0
	{
		gettime r0
		nop
	}
	.loc	1 99 0                  # C:/Projects/UI-01_sw1_hw1/module_dfu/src/dfu.xc:99:0
	stw r0, dp[DFUTimerStart]
	#DEBUG_VALUE: _i.i_dfu.DFUHandler.0.HandleDfuRequest:data_buffer_length <- R3
.Ltmp181:
	.loc	1 446 0                 # C:/Projects/UI-01_sw1_hw1/module_dfu/src/dfu.xc:446:0
	stw r4, sp[67]
	bu .LBB3_4
.Ltmp182:
.LBB3_23:                               # %switchcase8.i
.Lxtalabel75:
	#DEBUG_VALUE: _i.i_dfu.DFUHandler.0.HandleDfuRequest:data_buffer <- R6
	#DEBUG_VALUE: _i.i_dfu.DFUHandler.0.HandleDfuRequest:data_buffer_length <- R3
	#DEBUG_VALUE: data_out <- [SP+72]
	#DEBUG_VALUE: DFU_GetStatus:request_len <- 0
	#DEBUG_VALUE: timeout <- 0
	{
		ldc r2, 2
		nop
	}
	bu .LBB3_24
.Ltmp183:
.LBB3_22:                               # %switchcase6.i
.Lxtalabel76:
	#DEBUG_VALUE: _i.i_dfu.DFUHandler.0.HandleDfuRequest:data_buffer <- R6
	#DEBUG_VALUE: _i.i_dfu.DFUHandler.0.HandleDfuRequest:data_buffer_length <- R3
	{
		ldc r2, 5
		nop
	}
.Ltmp184:
.LBB3_24:                               # %DFU_GetStatus.exit
.Lxtalabel77:
	.loc	1 284 0                 # C:/Projects/UI-01_sw1_hw1/module_dfu/src/dfu.xc:284:0
	stw r2, sp[66]
.Ltmp185:
.LBB3_25:                               # %DFU_GetStatus.exit
.Lxtalabel78:
	#DEBUG_VALUE: _i.i_dfu.DFUHandler.0.HandleDfuRequest:data_buffer <- R6
	#DEBUG_VALUE: _i.i_dfu.DFUHandler.0.HandleDfuRequest:data_buffer_length <- R3
	#DEBUG_VALUE: data_out <- [SP+72]
	#DEBUG_VALUE: DFU_GetStatus:request_len <- 0
	#DEBUG_VALUE: timeout <- 0
	{
		nop
		stw r2, sp[19]
	}
	.loc	1 466 0                 # C:/Projects/UI-01_sw1_hw1/module_dfu/src/dfu.xc:466:0
	stw r0, sp[67]
.Ltmp186:
	#DEBUG_VALUE: i <- 0
	{
		ldaw r1, sp[18]
		ldc r2, 16
	}
	{
		mov r3, r5
		nop
	}
.Ltmp187:
.LBB3_26:                               # %LoopBody107
                                        # =>This Inner Loop Header: Depth=1
.Lxtalabel79:
	#DEBUG_VALUE: _i.i_dfu.DFUHandler.0.HandleDfuRequest:data_buffer <- R6
	#DEBUG_VALUE: _i.i_dfu.DFUHandler.0.HandleDfuRequest:data_buffer_length <- R3
	#DEBUG_VALUE: data_out <- [SP+72]
	#DEBUG_VALUE: i <- 0
	.loc	1 468 0                 # C:/Projects/UI-01_sw1_hw1/module_dfu/src/dfu.xc:468:0
	{
		lsu r11, r3, r8
		nop
	}
.Ltrap_info7:
	{
		ecallf r11
		nop
	}
	#DEBUG_VALUE: _i.i_dfu.DFUHandler.0.HandleDfuRequest:data_buffer <- R6
	#DEBUG_VALUE: _i.i_dfu.DFUHandler.0.HandleDfuRequest:data_buffer_length <- R3
	#DEBUG_VALUE: data_out <- [SP+72]
	#DEBUG_VALUE: i <- 0
	{
		nop
		ldw r11, r1[r3]
	}
	.loc	1 468 0                 # C:/Projects/UI-01_sw1_hw1/module_dfu/src/dfu.xc:468:0
	stw r11, r6[r3]
	.loc	1 467 0                 # C:/Projects/UI-01_sw1_hw1/module_dfu/src/dfu.xc:467:0
	{
		add r3, r3, 1
		nop
	}
.Ltmp188:
	#DEBUG_VALUE: i <- R3
	.loc	1 467 0                 # C:/Projects/UI-01_sw1_hw1/module_dfu/src/dfu.xc:467:0
	{
		lss r11, r3, r2
		nop
	}
.Lxta.loop_labels7:
	# LOOPMARKER 1
	bt r11, .LBB3_26
.Ltmp189:
# BB#27:
	#DEBUG_VALUE: _i.i_dfu.DFUHandler.0.HandleDfuRequest:data_buffer_length <- R3
	{
		mov r4, r0
		nop
	}
.Ltmp190:
.LBB3_40:
	#DEBUG_VALUE: _i.i_dfu.DFUHandler.0.HandleDfuRequest:data_buffer_length <- R3
	{
		mov r2, r5
		mov r3, r5
	}
.Ltmp191:
	bu .LBB3_47
	.cc_bottom _i.i_dfu.DFUHandler.0.HandleDfuRequest.function
	.set	_i.i_dfu.DFUHandler.0.HandleDfuRequest.nstackwords,((DFU_Dnload.nstackwords $M DFU_Upload.nstackwords $M flash_cmd_erase_all.nstackwords $M DFUCustomFlashEnable.nstackwords $M flash_cmd_init.nstackwords) + 74)
	.globl	_i.i_dfu.DFUHandler.0.HandleDfuRequest.nstackwords
	.set	_i.i_dfu.DFUHandler.0.HandleDfuRequest.maxcores,DFUCustomFlashEnable.maxcores $M DFU_Dnload.maxcores $M DFU_Upload.maxcores $M flash_cmd_erase_all.maxcores $M flash_cmd_init.maxcores $M 1
	.globl	_i.i_dfu.DFUHandler.0.HandleDfuRequest.maxcores
	.set	_i.i_dfu.DFUHandler.0.HandleDfuRequest.maxtimers,DFUCustomFlashEnable.maxtimers $M DFU_Dnload.maxtimers $M DFU_Upload.maxtimers $M flash_cmd_erase_all.maxtimers $M flash_cmd_init.maxtimers $M 0
	.globl	_i.i_dfu.DFUHandler.0.HandleDfuRequest.maxtimers
	.set	_i.i_dfu.DFUHandler.0.HandleDfuRequest.maxchanends,DFUCustomFlashEnable.maxchanends $M DFU_Dnload.maxchanends $M DFU_Upload.maxchanends $M flash_cmd_erase_all.maxchanends $M flash_cmd_init.maxchanends $M 0
	.globl	_i.i_dfu.DFUHandler.0.HandleDfuRequest.maxchanends
.Ltmp192:
	.size	_i.i_dfu.DFUHandler.0.HandleDfuRequest, .Ltmp192-_i.i_dfu.DFUHandler.0.HandleDfuRequest
.Lfunc_end3:
	.cfi_endproc

	.globl	_i.i_dfu._SDFUHandler_0._c0.finish
	.align	4
	.type	_i.i_dfu._SDFUHandler_0._c0.finish,@function
	.cc_top _i.i_dfu._SDFUHandler_0._c0.finish.function,_i.i_dfu._SDFUHandler_0._c0.finish
_i.i_dfu._SDFUHandler_0._c0.finish:     # @_i.i_dfu._SDFUHandler_0._c0.finish
	.cfi_startproc
	.issue_mode dual
# BB#0:                                 # %allocas
	{
		nop
		dualentsp 0
	}
.LBB4_1:                                # %LoopTest
                                        # =>This Inner Loop Header: Depth=1
	#DEBUG_VALUE: _i.i_dfu._SDFUHandler_0._c0.finish:p <- R0
	{
		nop
		ldw r1, r0[0]
	}
	bf r1, .LBB4_1
# BB#2:                                 # %ifdone
	#DEBUG_VALUE: _i.i_dfu._SDFUHandler_0._c0.finish:p <- R0
	{
		ldc r1, 0
		nop
	}
	{
		nop
		stw r1, r0[0]
	}
	{
		nop
		retsp 0
	}
	# RETURN_REG_HOLDER
	.cc_bottom _i.i_dfu._SDFUHandler_0._c0.finish.function
	.set	_i.i_dfu._SDFUHandler_0._c0.finish.nstackwords,0
	.globl	_i.i_dfu._SDFUHandler_0._c0.finish.nstackwords
	.set	_i.i_dfu._SDFUHandler_0._c0.finish.maxcores,1
	.globl	_i.i_dfu._SDFUHandler_0._c0.finish.maxcores
	.set	_i.i_dfu._SDFUHandler_0._c0.finish.maxtimers,0
	.globl	_i.i_dfu._SDFUHandler_0._c0.finish.maxtimers
	.set	_i.i_dfu._SDFUHandler_0._c0.finish.maxchanends,0
	.globl	_i.i_dfu._SDFUHandler_0._c0.finish.maxchanends
.Ltmp193:
	.size	_i.i_dfu._SDFUHandler_0._c0.finish, .Ltmp193-_i.i_dfu._SDFUHandler_0._c0.finish
	.cfi_endproc

	.section	.cp.rodata.cst4,"aMc",@progbits,4
	.cc_top .LCPI5_0.data,.LCPI5_0
	.align	4
	.type	.LCPI5_0,@object
	.size	.LCPI5_0, 4
.LCPI5_0:
	.long	4294967056              # 0xffffff10
	.cc_bottom .LCPI5_0.data
	.cc_top .LCPI5_1.data,.LCPI5_1
	.align	4
	.type	.LCPI5_1,@object
	.size	.LCPI5_1, 4
.LCPI5_1:
	.long	285483025               # 0x11042011
	.cc_bottom .LCPI5_1.data
	.cc_top .LCPI5_2.data,.LCPI5_2
	.align	4
	.type	.LCPI5_2,@object
	.size	.LCPI5_2, 4
.LCPI5_2:
	.long	25000000                # 0x17d7840
	.cc_bottom .LCPI5_2.data
	.cc_top .LCPI5_3.data,.LCPI5_3
	.align	4
	.type	.LCPI5_3,@object
	.size	.LCPI5_3, 4
.LCPI5_3:
	.long	100000                  # 0x186a0
	.cc_bottom .LCPI5_3.data
	.text
	.globl	_i.i_dfu._SDFUHandler_0._c0.HandleDfuRequest
	.align	4
	.type	_i.i_dfu._SDFUHandler_0._c0.HandleDfuRequest,@function
	.cc_top _i.i_dfu._SDFUHandler_0._c0.HandleDfuRequest.function,_i.i_dfu._SDFUHandler_0._c0.HandleDfuRequest
_i.i_dfu._SDFUHandler_0._c0.HandleDfuRequest: # @_i.i_dfu._SDFUHandler_0._c0.HandleDfuRequest
.Lfunc_begin5:
	.loc	1 432 0                 # C:/Projects/UI-01_sw1_hw1/module_dfu/src/dfu.xc:432:0
	.cfi_startproc
	.issue_mode dual
# BB#0:                                 # %allocas
	DUALENTSP_lu6 74
.Ltmp194:
	.cfi_def_cfa_offset 296
.Ltmp195:
	.cfi_offset 15, 0
	stw r4, sp[68]                  # 4-byte Folded Spill
	stw r5, sp[69]                  # 4-byte Folded Spill
.Ltmp196:
	.cfi_offset 4, -24
.Ltmp197:
	.cfi_offset 5, -20
	stw r6, sp[70]                  # 4-byte Folded Spill
	stw r7, sp[71]                  # 4-byte Folded Spill
.Ltmp198:
	.cfi_offset 6, -16
.Ltmp199:
	.cfi_offset 7, -12
	stw r8, sp[72]                  # 4-byte Folded Spill
	stw r9, sp[73]                  # 4-byte Folded Spill
.Ltmp200:
	.cfi_offset 8, -8
.Ltmp201:
	.cfi_offset 9, -4
	#DEBUG_VALUE: _i.i_dfu._SDFUHandler_0._c0.HandleDfuRequest:p <- R0
	#DEBUG_VALUE: _i.i_dfu._SDFUHandler_0._c0.HandleDfuRequest:sp <- R1
	#DEBUG_VALUE: _i.i_dfu._SDFUHandler_0._c0.HandleDfuRequest:data_buffer <- R2
	#DEBUG_VALUE: _i.i_dfu._SDFUHandler_0._c0.HandleDfuRequest:data_buffer_length <- R3
.Ltmp202:
	#DEBUG_VALUE: _i.i_dfu._SDFUHandler_0._c0.HandleDfuRequest:data_buffer <- R7
	#DEBUG_VALUE: _i.i_dfu._SDFUHandler_0._c0.HandleDfuRequest:p <- R4
	{
		mov r7, r2
		mov r4, r0
	}
.Ltmp203:
	ldw r0, sp[75]
.Ltmp204:
.LBB5_1:                                # %allocas
                                        # =>This Inner Loop Header: Depth=1
	#DEBUG_VALUE: tmpDfuState <- R0
	#DEBUG_VALUE: _i.i_dfu._SDFUHandler_0._c0.HandleDfuRequest:dfuState <- R0
	{
		nop
		ldw r2, r4[0]
	}
	bf r2, .LBB5_1
.Ltmp205:
# BB#2:                                 # %ifdone
.Lxtalabel80:
	#DEBUG_VALUE: _i.i_dfu._SDFUHandler_0._c0.HandleDfuRequest:p <- R4
	#DEBUG_VALUE: _i.i_dfu._SDFUHandler_0._c0.HandleDfuRequest:sp <- R1
	#DEBUG_VALUE: _i.i_dfu._SDFUHandler_0._c0.HandleDfuRequest:data_buffer <- R7
	#DEBUG_VALUE: _i.i_dfu._SDFUHandler_0._c0.HandleDfuRequest:data_buffer_length <- R3
	#DEBUG_VALUE: _i.i_dfu._SDFUHandler_0._c0.HandleDfuRequest:dfuState <- R0
	#DEBUG_VALUE: tmpDfuState <- R0
	{
		ldc r5, 0
		nop
	}
	{
		nop
		stw r5, r4[0]
	}
	.loc	1 436 0 prologue_end    # C:/Projects/UI-01_sw1_hw1/module_dfu/src/dfu.xc:436:0
.Ltmp206:
	stw r5, sp[67]
	.loc	1 438 0                 # C:/Projects/UI-01_sw1_hw1/module_dfu/src/dfu.xc:438:0
.Ltmp207:
	stw r0, sp[66]
	{
		mkmsk r2, 2
		nop
	}
	{
		nop
		ld8u r3, r1[r2]
	}
.Ltmp208:
	ldc r2, 239
	.loc	1 442 0                 # C:/Projects/UI-01_sw1_hw1/module_dfu/src/dfu.xc:442:0
	{
		lss r2, r2, r3
		nop
	}
	bt r2, .LBB5_7
.Ltmp209:
# BB#3:                                 # %ifdone
.Lxtalabel81:
	#DEBUG_VALUE: _i.i_dfu._SDFUHandler_0._c0.HandleDfuRequest:p <- R4
	#DEBUG_VALUE: _i.i_dfu._SDFUHandler_0._c0.HandleDfuRequest:sp <- R1
	#DEBUG_VALUE: _i.i_dfu._SDFUHandler_0._c0.HandleDfuRequest:data_buffer <- R7
	#DEBUG_VALUE: _i.i_dfu._SDFUHandler_0._c0.HandleDfuRequest:data_buffer_length <- R3
	#DEBUG_VALUE: _i.i_dfu._SDFUHandler_0._c0.HandleDfuRequest:dfuState <- R0
	{
		ldc r2, 6
		nop
	}
	{
		lsu r11, r2, r3
		nop
	}
	bt r11, .LBB5_4
.Ltmp210:
# BB#6:                                 # %ifdone
.Lxtalabel82:
	#DEBUG_VALUE: _i.i_dfu._SDFUHandler_0._c0.HandleDfuRequest:p <- R4
	#DEBUG_VALUE: _i.i_dfu._SDFUHandler_0._c0.HandleDfuRequest:sp <- R1
	#DEBUG_VALUE: _i.i_dfu._SDFUHandler_0._c0.HandleDfuRequest:data_buffer <- R7
	#DEBUG_VALUE: _i.i_dfu._SDFUHandler_0._c0.HandleDfuRequest:data_buffer_length <- R3
	#DEBUG_VALUE: _i.i_dfu._SDFUHandler_0._c0.HandleDfuRequest:dfuState <- R0
	ldw r9, sp[76]

	.xtabranch .Ljumptable4+4,.Ljumptable4+8,.Ljumptable4+12,.Ljumptable4+16,.Ljumptable4+20,.Ljumptable4+24,.Ljumptable4+28
.Ljumptable4:
		
	{
		nop
		bru r3
	}
	.jmptable32 .LBB5_9,.LBB5_16,.LBB5_28,.LBB5_18,.LBB5_30,.LBB5_35,.LBB5_49
.Ltmp211:
.LBB5_9:                                # %switchcase
.Lxtalabel83:
	#DEBUG_VALUE: _i.i_dfu._SDFUHandler_0._c0.HandleDfuRequest:p <- R4
	#DEBUG_VALUE: _i.i_dfu._SDFUHandler_0._c0.HandleDfuRequest:sp <- R1
	#DEBUG_VALUE: _i.i_dfu._SDFUHandler_0._c0.HandleDfuRequest:data_buffer_length <- R3
	#DEBUG_VALUE: _i.i_dfu._SDFUHandler_0._c0.HandleDfuRequest:dfuState <- R0
	.loc	1 445 0                 # C:/Projects/UI-01_sw1_hw1/module_dfu/src/dfu.xc:445:0
	stw r0, sp[66]
	.loc	1 446 0                 # C:/Projects/UI-01_sw1_hw1/module_dfu/src/dfu.xc:446:0
	{
		ldc r5, 0
		nop
	}
	.loc	1 89 5                  # C:/Projects/UI-01_sw1_hw1/module_dfu/src/dfu.xc:89:5
.Ltmp212:
	bf r0, .LBB5_10
.Ltmp213:
# BB#14:                                # %iffalse.i
.Lxtalabel84:
	#DEBUG_VALUE: _i.i_dfu._SDFUHandler_0._c0.HandleDfuRequest:p <- R4
	#DEBUG_VALUE: _i.i_dfu._SDFUHandler_0._c0.HandleDfuRequest:data_buffer_length <- R3
	{
		ldc r0, 10
		nop
	}
	.loc	1 103 0                 # C:/Projects/UI-01_sw1_hw1/module_dfu/src/dfu.xc:103:0
.Ltmp214:
	stw r0, sp[66]
	#DEBUG_VALUE: _i.i_dfu._SDFUHandler_0._c0.HandleDfuRequest:p <- R4
	#DEBUG_VALUE: _i.i_dfu._SDFUHandler_0._c0.HandleDfuRequest:data_buffer_length <- R3
.Ltmp215:
	.loc	1 446 0                 # C:/Projects/UI-01_sw1_hw1/module_dfu/src/dfu.xc:446:0
	stw r5, sp[67]
	bu .LBB5_4
.Ltmp216:
.LBB5_16:                               # %afterboundcheck
                                        # =>This Inner Loop Header: Depth=1
.Lxtalabel85:
	#DEBUG_VALUE: _i.i_dfu._SDFUHandler_0._c0.HandleDfuRequest:p <- R4
	#DEBUG_VALUE: _i.i_dfu._SDFUHandler_0._c0.HandleDfuRequest:sp <- R1
	#DEBUG_VALUE: _i.i_dfu._SDFUHandler_0._c0.HandleDfuRequest:data_buffer <- R7
	#DEBUG_VALUE: _i.i_dfu._SDFUHandler_0._c0.HandleDfuRequest:data_buffer_length <- R3
	.loc	1 453 0                 # C:/Projects/UI-01_sw1_hw1/module_dfu/src/dfu.xc:453:0
	{
		lsu r0, r5, r9
		nop
	}
.Ltrap_info8:
	{
		ecallf r0
		nop
	}
	#DEBUG_VALUE: _i.i_dfu._SDFUHandler_0._c0.HandleDfuRequest:p <- R4
	#DEBUG_VALUE: _i.i_dfu._SDFUHandler_0._c0.HandleDfuRequest:sp <- R1
	#DEBUG_VALUE: _i.i_dfu._SDFUHandler_0._c0.HandleDfuRequest:data_buffer <- R7
	#DEBUG_VALUE: _i.i_dfu._SDFUHandler_0._c0.HandleDfuRequest:data_buffer_length <- R3
	.loc	1 453 0                 # C:/Projects/UI-01_sw1_hw1/module_dfu/src/dfu.xc:453:0
	{
		ldaw r2, sp[50]
		ldw r0, r7[r5]
	}
	.loc	1 453 0                 # C:/Projects/UI-01_sw1_hw1/module_dfu/src/dfu.xc:453:0
	stw r0, r2[r5]
.Ltmp217:
	#DEBUG_VALUE: i <- R5
	.loc	1 452 0                 # C:/Projects/UI-01_sw1_hw1/module_dfu/src/dfu.xc:452:0
	{
		add r5, r5, 1
		ldc r0, 16
	}
.Ltmp218:
	.loc	1 452 0                 # C:/Projects/UI-01_sw1_hw1/module_dfu/src/dfu.xc:452:0
	{
		lss r0, r5, r0
		nop
	}
.Lxta.loop_labels8:
	# LOOPMARKER 3
	bt r0, .LBB5_16
.Ltmp219:
# BB#17:                                # %ifdone27
.Lxtalabel86:
	#DEBUG_VALUE: _i.i_dfu._SDFUHandler_0._c0.HandleDfuRequest:p <- R4
	#DEBUG_VALUE: _i.i_dfu._SDFUHandler_0._c0.HandleDfuRequest:sp <- R1
	#DEBUG_VALUE: _i.i_dfu._SDFUHandler_0._c0.HandleDfuRequest:data_buffer_length <- R3
	.loc	1 454 0                 # C:/Projects/UI-01_sw1_hw1/module_dfu/src/dfu.xc:454:0
	{
		add r0, r1, 8
		ldc r6, 0
	}
	{
		nop
		ld16s r0, r0[r6]
	}
	.loc	1 454 0                 # C:/Projects/UI-01_sw1_hw1/module_dfu/src/dfu.xc:454:0
	{
		zext r0, 16
		add r1, r1, 4
	}
.Ltmp220:
	{
		nop
		ld16s r1, r1[r6]
	}
	.loc	1 454 0                 # C:/Projects/UI-01_sw1_hw1/module_dfu/src/dfu.xc:454:0
	{
		zext r1, 16
		nop
	}
	ldaw r2, sp[66]
.Ltmp221:
	#DEBUG_VALUE: tmpDfuState <- [R2+0]
	.loc	1 454 0                 # C:/Projects/UI-01_sw1_hw1/module_dfu/src/dfu.xc:454:0
	{
		ldaw r2, sp[50]
		stw r2, sp[1]
	}
.Ltmp222:
	ldaw r3, sp[67]
.Ltmp223:
.Lxta.call_labels14:
	bl DFU_Dnload
	{
		mov r3, r0
		nop
	}
	ldw r5, sp[67]
	{
		mov r2, r6
		nop
	}
	bu .LBB5_47
.Ltmp224:
.LBB5_7:                                # %ifdone
.Lxtalabel87:
	#DEBUG_VALUE: _i.i_dfu._SDFUHandler_0._c0.HandleDfuRequest:p <- R4
	#DEBUG_VALUE: _i.i_dfu._SDFUHandler_0._c0.HandleDfuRequest:data_buffer_length <- R3
	ldw r0, cp[.LCPI5_0]
	{
		add r0, r3, r0
		ldc r1, 6
	}
	{
		lsu r1, r1, r0
		mov r6, r5
	}
	{
		mov r2, r5
		mov r3, r5
	}
.Ltmp225:
	bt r1, .LBB5_47
.Ltmp226:
# BB#8:                                 # %ifdone
.Lxtalabel88:
	#DEBUG_VALUE: _i.i_dfu._SDFUHandler_0._c0.HandleDfuRequest:p <- R4
	#DEBUG_VALUE: _i.i_dfu._SDFUHandler_0._c0.HandleDfuRequest:data_buffer_length <- R3

	.xtabranch .Ljumptable5+4,.Ljumptable5+8,.Ljumptable5+12,.Ljumptable5+16,.Ljumptable5+20,.Ljumptable5+24,.Ljumptable5+28
.Ljumptable5:
		
	{
		nop
		bru r0
	}
	.jmptable32 .LBB5_48,.LBB5_41,.LBB5_45,.LBB5_48,.LBB5_34,.LBB5_34,.LBB5_34
.Ltmp227:
.LBB5_48:                               # %switchcase164
.Lxtalabel89:
	#DEBUG_VALUE: _i.i_dfu._SDFUHandler_0._c0.HandleDfuRequest:p <- R4
	#DEBUG_VALUE: _i.i_dfu._SDFUHandler_0._c0.HandleDfuRequest:data_buffer_length <- R3
	{
		ldc r5, 0
		nop
	}
	.loc	1 489 0                 # C:/Projects/UI-01_sw1_hw1/module_dfu/src/dfu.xc:489:0
	stw r5, sp[67]
	{
		mkmsk r6, 1
		mov r2, r5
	}
	bu .LBB5_46
.Ltmp228:
.LBB5_28:                               # %switchcase25
.Lxtalabel90:
	#DEBUG_VALUE: _i.i_dfu._SDFUHandler_0._c0.HandleDfuRequest:p <- R4
	#DEBUG_VALUE: _i.i_dfu._SDFUHandler_0._c0.HandleDfuRequest:sp <- R1
	#DEBUG_VALUE: _i.i_dfu._SDFUHandler_0._c0.HandleDfuRequest:data_buffer <- R7
	#DEBUG_VALUE: _i.i_dfu._SDFUHandler_0._c0.HandleDfuRequest:data_buffer_length <- R3
	#DEBUG_VALUE: data_out <- [SP+136]
	.loc	1 459 0                 # C:/Projects/UI-01_sw1_hw1/module_dfu/src/dfu.xc:459:0
	{
		add r0, r1, 8
		ldc r6, 0
	}
	{
		nop
		ld16s r0, r0[r6]
	}
	.loc	1 459 0                 # C:/Projects/UI-01_sw1_hw1/module_dfu/src/dfu.xc:459:0
	{
		zext r0, 16
		ldaw r8, sp[34]
	}
	ldaw r2, sp[66]
.Ltmp229:
	#DEBUG_VALUE: tmpDfuState <- [R2+0]
	.loc	1 459 0                 # C:/Projects/UI-01_sw1_hw1/module_dfu/src/dfu.xc:459:0
	{
		mov r1, r8
		nop
	}
.Ltmp230:
.Lxta.call_labels15:
	bl DFU_Upload
.Ltmp231:
	{
		mov r5, r0
		nop
	}
.Ltmp232:
	#DEBUG_VALUE: i <- 0
	.loc	1 459 0                 # C:/Projects/UI-01_sw1_hw1/module_dfu/src/dfu.xc:459:0
	stw r5, sp[67]
	{
		ldc r0, 16
		mov r1, r6
	}
.Ltmp233:
.LBB5_29:                               # %LoopBody69
                                        # =>This Inner Loop Header: Depth=1
.Lxtalabel91:
	#DEBUG_VALUE: _i.i_dfu._SDFUHandler_0._c0.HandleDfuRequest:p <- R4
	#DEBUG_VALUE: _i.i_dfu._SDFUHandler_0._c0.HandleDfuRequest:data_buffer <- R7
	#DEBUG_VALUE: _i.i_dfu._SDFUHandler_0._c0.HandleDfuRequest:data_buffer_length <- R3
	#DEBUG_VALUE: data_out <- [SP+136]
	#DEBUG_VALUE: i <- 0
	.loc	1 461 0                 # C:/Projects/UI-01_sw1_hw1/module_dfu/src/dfu.xc:461:0
	{
		lsu r2, r1, r9
		nop
	}
.Ltrap_info9:
	{
		ecallf r2
		nop
	}
	#DEBUG_VALUE: _i.i_dfu._SDFUHandler_0._c0.HandleDfuRequest:p <- R4
	#DEBUG_VALUE: _i.i_dfu._SDFUHandler_0._c0.HandleDfuRequest:data_buffer <- R7
	#DEBUG_VALUE: _i.i_dfu._SDFUHandler_0._c0.HandleDfuRequest:data_buffer_length <- R3
	#DEBUG_VALUE: data_out <- [SP+136]
	#DEBUG_VALUE: i <- 0
	{
		nop
		ldw r2, r8[r1]
	}
	.loc	1 461 0                 # C:/Projects/UI-01_sw1_hw1/module_dfu/src/dfu.xc:461:0
	stw r2, r7[r1]
	.loc	1 460 0                 # C:/Projects/UI-01_sw1_hw1/module_dfu/src/dfu.xc:460:0
	{
		add r1, r1, 1
		nop
	}
.Ltmp234:
	#DEBUG_VALUE: i <- R1
	.loc	1 460 0                 # C:/Projects/UI-01_sw1_hw1/module_dfu/src/dfu.xc:460:0
	{
		lss r2, r1, r0
		nop
	}
.Lxta.loop_labels9:
	# LOOPMARKER 2
	bt r2, .LBB5_29
	bu .LBB5_40
.Ltmp235:
.LBB5_18:                               # %switchcase53
.Lxtalabel92:
	#DEBUG_VALUE: _i.i_dfu._SDFUHandler_0._c0.HandleDfuRequest:p <- R4
	#DEBUG_VALUE: _i.i_dfu._SDFUHandler_0._c0.HandleDfuRequest:data_buffer <- R7
	#DEBUG_VALUE: _i.i_dfu._SDFUHandler_0._c0.HandleDfuRequest:data_buffer_length <- R3
	#DEBUG_VALUE: _i.i_dfu._SDFUHandler_0._c0.HandleDfuRequest:dfuState <- R0
	#DEBUG_VALUE: data_out <- [SP+72]
	#DEBUG_VALUE: DFU_GetStatus:request_len <- 0
	#DEBUG_VALUE: timeout <- 0
	{
		ldc r6, 0
		nop
	}
	.loc	1 267 0                 # C:/Projects/UI-01_sw1_hw1/module_dfu/src/dfu.xc:267:0
.Ltmp236:
	{
		eq r1, r0, 6
		stw r6, sp[18]
	}
	.loc	1 269 0                 # C:/Projects/UI-01_sw1_hw1/module_dfu/src/dfu.xc:269:0
	bt r1, .LBB5_23
.Ltmp237:
# BB#19:                                # %switchcase53
.Lxtalabel93:
	#DEBUG_VALUE: _i.i_dfu._SDFUHandler_0._c0.HandleDfuRequest:p <- R4
	#DEBUG_VALUE: _i.i_dfu._SDFUHandler_0._c0.HandleDfuRequest:data_buffer <- R7
	#DEBUG_VALUE: _i.i_dfu._SDFUHandler_0._c0.HandleDfuRequest:data_buffer_length <- R3
	#DEBUG_VALUE: _i.i_dfu._SDFUHandler_0._c0.HandleDfuRequest:dfuState <- R0
	{
		eq r1, r0, 3
		nop
	}
	bt r1, .LBB5_22
.Ltmp238:
# BB#20:                                # %switchcase53
.Lxtalabel94:
	#DEBUG_VALUE: _i.i_dfu._SDFUHandler_0._c0.HandleDfuRequest:p <- R4
	#DEBUG_VALUE: _i.i_dfu._SDFUHandler_0._c0.HandleDfuRequest:data_buffer <- R7
	#DEBUG_VALUE: _i.i_dfu._SDFUHandler_0._c0.HandleDfuRequest:data_buffer_length <- R3
	#DEBUG_VALUE: _i.i_dfu._SDFUHandler_0._c0.HandleDfuRequest:dfuState <- R0
	{
		sub r1, r0, 7
		mkmsk r3, 1
	}
.Ltmp239:
	{
		lsu r1, r3, r1
		nop
	}
	bt r1, .LBB5_25
.Ltmp240:
# BB#21:                                # %switchcase3.i
.Lxtalabel95:
	#DEBUG_VALUE: _i.i_dfu._SDFUHandler_0._c0.HandleDfuRequest:p <- R4
	#DEBUG_VALUE: _i.i_dfu._SDFUHandler_0._c0.HandleDfuRequest:data_buffer <- R7
	#DEBUG_VALUE: _i.i_dfu._SDFUHandler_0._c0.HandleDfuRequest:data_buffer_length <- R3
	{
		ldc r0, 10
		nop
	}
	bu .LBB5_24
.Ltmp241:
.LBB5_30:                               # %switchcase90
.Lxtalabel96:
	#DEBUG_VALUE: _i.i_dfu._SDFUHandler_0._c0.HandleDfuRequest:p <- R4
	#DEBUG_VALUE: _i.i_dfu._SDFUHandler_0._c0.HandleDfuRequest:data_buffer_length <- R3
	#DEBUG_VALUE: _i.i_dfu._SDFUHandler_0._c0.HandleDfuRequest:dfuState <- R0
	.loc	1 298 5                 # C:/Projects/UI-01_sw1_hw1/module_dfu/src/dfu.xc:298:5
	{
		eq r0, r0, 10
		nop
	}
.Ltmp242:
	.loc	1 300 0                 # C:/Projects/UI-01_sw1_hw1/module_dfu/src/dfu.xc:300:0
	bt r0, .LBB5_31
.Ltmp243:
# BB#32:                                # %switchcase90
.Lxtalabel97:
	#DEBUG_VALUE: _i.i_dfu._SDFUHandler_0._c0.HandleDfuRequest:p <- R4
	#DEBUG_VALUE: _i.i_dfu._SDFUHandler_0._c0.HandleDfuRequest:data_buffer_length <- R3
	{
		ldc r0, 10
		nop
	}
	bu .LBB5_33
.Ltmp244:
.LBB5_35:                               # %switchcase126
.Lxtalabel98:
	#DEBUG_VALUE: _i.i_dfu._SDFUHandler_0._c0.HandleDfuRequest:p <- R4
	#DEBUG_VALUE: _i.i_dfu._SDFUHandler_0._c0.HandleDfuRequest:data_buffer <- R7
	#DEBUG_VALUE: _i.i_dfu._SDFUHandler_0._c0.HandleDfuRequest:data_buffer_length <- R3
	#DEBUG_VALUE: _i.i_dfu._SDFUHandler_0._c0.HandleDfuRequest:dfuState <- R0
	#DEBUG_VALUE: data_out <- [SP+8]
	#DEBUG_VALUE: DFU_GetState:request_len <- 0
	.loc	1 311 0                 # C:/Projects/UI-01_sw1_hw1/module_dfu/src/dfu.xc:311:0
	{
		ldc r1, 8
		stw r0, sp[2]
	}
	.loc	1 313 0                 # C:/Projects/UI-01_sw1_hw1/module_dfu/src/dfu.xc:313:0
	{
		lsu r1, r1, r0
		nop
	}
	bt r1, .LBB5_38
.Ltmp245:
# BB#36:                                # %switchcase126
.Lxtalabel99:
	#DEBUG_VALUE: _i.i_dfu._SDFUHandler_0._c0.HandleDfuRequest:p <- R4
	#DEBUG_VALUE: _i.i_dfu._SDFUHandler_0._c0.HandleDfuRequest:data_buffer <- R7
	#DEBUG_VALUE: _i.i_dfu._SDFUHandler_0._c0.HandleDfuRequest:data_buffer_length <- R3
	#DEBUG_VALUE: _i.i_dfu._SDFUHandler_0._c0.HandleDfuRequest:dfuState <- R0
	{
		mkmsk r1, 1
		nop
	}
	{
		shl r0, r1, r0
		nop
	}
.Ltmp246:
	ldc r1, 400
	{
		and r0, r0, r1
		nop
	}
	bf r0, .LBB5_38
.Ltmp247:
# BB#37:                                # %switchcase3.i199
.Lxtalabel100:
	#DEBUG_VALUE: _i.i_dfu._SDFUHandler_0._c0.HandleDfuRequest:p <- R4
	#DEBUG_VALUE: _i.i_dfu._SDFUHandler_0._c0.HandleDfuRequest:data_buffer <- R7
	#DEBUG_VALUE: _i.i_dfu._SDFUHandler_0._c0.HandleDfuRequest:data_buffer_length <- R3
	{
		ldc r0, 10
		nop
	}
	.loc	1 318 0                 # C:/Projects/UI-01_sw1_hw1/module_dfu/src/dfu.xc:318:0
	stw r0, sp[66]
.Ltmp248:
.LBB5_38:                               # %DFU_GetState.exit
.Lxtalabel101:
	#DEBUG_VALUE: _i.i_dfu._SDFUHandler_0._c0.HandleDfuRequest:p <- R4
	#DEBUG_VALUE: _i.i_dfu._SDFUHandler_0._c0.HandleDfuRequest:data_buffer <- R7
	#DEBUG_VALUE: _i.i_dfu._SDFUHandler_0._c0.HandleDfuRequest:data_buffer_length <- R3
	#DEBUG_VALUE: data_out <- [SP+8]
	{
		mkmsk r5, 1
		nop
	}
	.loc	1 477 0                 # C:/Projects/UI-01_sw1_hw1/module_dfu/src/dfu.xc:477:0
	stw r5, sp[67]
.Ltmp249:
	#DEBUG_VALUE: i <- 0
	{
		ldc r6, 0
		ldaw r0, sp[2]
	}
	{
		ldc r1, 16
		mov r2, r6
	}
.Ltmp250:
.LBB5_39:                               # %LoopBody143
                                        # =>This Inner Loop Header: Depth=1
.Lxtalabel102:
	#DEBUG_VALUE: _i.i_dfu._SDFUHandler_0._c0.HandleDfuRequest:p <- R4
	#DEBUG_VALUE: _i.i_dfu._SDFUHandler_0._c0.HandleDfuRequest:data_buffer <- R7
	#DEBUG_VALUE: _i.i_dfu._SDFUHandler_0._c0.HandleDfuRequest:data_buffer_length <- R3
	#DEBUG_VALUE: data_out <- [SP+8]
	#DEBUG_VALUE: i <- 0
	.loc	1 479 0                 # C:/Projects/UI-01_sw1_hw1/module_dfu/src/dfu.xc:479:0
	{
		lsu r3, r2, r9
		nop
	}
.Ltmp251:
.Ltrap_info10:
	{
		ecallf r3
		nop
	}
	#DEBUG_VALUE: _i.i_dfu._SDFUHandler_0._c0.HandleDfuRequest:p <- R4
	#DEBUG_VALUE: _i.i_dfu._SDFUHandler_0._c0.HandleDfuRequest:data_buffer <- R7
.Ltmp252:
	#DEBUG_VALUE: _i.i_dfu._SDFUHandler_0._c0.HandleDfuRequest:data_buffer_length <- R3
	#DEBUG_VALUE: data_out <- [SP+8]
	#DEBUG_VALUE: i <- 0
	{
		nop
		ldw r3, r0[r2]
	}
.Ltmp253:
	.loc	1 479 0                 # C:/Projects/UI-01_sw1_hw1/module_dfu/src/dfu.xc:479:0
	stw r3, r7[r2]
	.loc	1 478 0                 # C:/Projects/UI-01_sw1_hw1/module_dfu/src/dfu.xc:478:0
	{
		add r2, r2, 1
		nop
	}
.Ltmp254:
	#DEBUG_VALUE: i <- R2
	.loc	1 478 0                 # C:/Projects/UI-01_sw1_hw1/module_dfu/src/dfu.xc:478:0
	{
		lss r3, r2, r1
		nop
	}
.Lxta.loop_labels10:
	# LOOPMARKER 0
	bt r3, .LBB5_39
	bu .LBB5_40
.Ltmp255:
.LBB5_49:                               # %switchcase128
.Lxtalabel103:
	#DEBUG_VALUE: _i.i_dfu._SDFUHandler_0._c0.HandleDfuRequest:p <- R4
	#DEBUG_VALUE: _i.i_dfu._SDFUHandler_0._c0.HandleDfuRequest:data_buffer_length <- R3
	{
		ldc r0, 2
		nop
	}
	bu .LBB5_33
.Ltmp256:
.LBB5_41:                               # %switchcase166
.Lxtalabel104:
	#DEBUG_VALUE: _i.i_dfu._SDFUHandler_0._c0.HandleDfuRequest:p <- R4
	#DEBUG_VALUE: _i.i_dfu._SDFUHandler_0._c0.HandleDfuRequest:data_buffer_length <- R3
	#DEBUG_VALUE: s <- 0
	.loc	1 398 0                 # C:/Projects/UI-01_sw1_hw1/module_dfu/src/dfu.xc:398:0
	{
		ldc r5, 0
		nop
	}
	ldaw r6, dp[DFU_flash_connected]
	{
		nop
		ld8u r0, r6[r5]
	}
	bt r0, .LBB5_44
.Ltmp257:
# BB#42:                                # %iftrue.i202
.Lxtalabel105:
	#DEBUG_VALUE: _i.i_dfu._SDFUHandler_0._c0.HandleDfuRequest:p <- R4
	#DEBUG_VALUE: _i.i_dfu._SDFUHandler_0._c0.HandleDfuRequest:data_buffer_length <- R3
	#DEBUG_VALUE: s <- 0
	.loc	1 62 0                  # C:/Projects/UI-01_sw1_hw1/module_dfu/src/dfu.xc:62:0
.Lxta.call_labels16:
	bl DFUCustomFlashEnable
.Ltmp258:
	.loc	1 63 0                  # C:/Projects/UI-01_sw1_hw1/module_dfu/src/dfu.xc:63:0
.Lxta.call_labels17:
	bl flash_cmd_init
.Ltmp259:
	#DEBUG_VALUE: error <- R0
	bt r0, .LBB5_44
.Ltmp260:
# BB#43:                                # %ifdone3.i203
.Lxtalabel106:
	#DEBUG_VALUE: _i.i_dfu._SDFUHandler_0._c0.HandleDfuRequest:p <- R4
	#DEBUG_VALUE: _i.i_dfu._SDFUHandler_0._c0.HandleDfuRequest:data_buffer_length <- R3
	#DEBUG_VALUE: s <- 0
	{
		mkmsk r0, 1
		nop
	}
	.loc	1 398 0                 # C:/Projects/UI-01_sw1_hw1/module_dfu/src/dfu.xc:398:0
	st8 r0, r6[r5]
.Ltmp261:
.LBB5_44:                               # %DFU_OpenFlash.exit205
	#DEBUG_VALUE: _i.i_dfu._SDFUHandler_0._c0.HandleDfuRequest:p <- R4
	#DEBUG_VALUE: _i.i_dfu._SDFUHandler_0._c0.HandleDfuRequest:data_buffer_length <- R3
	#DEBUG_VALUE: s <- 0
	.loc	1 400 0                 # C:/Projects/UI-01_sw1_hw1/module_dfu/src/dfu.xc:400:0
.Lxta.call_labels18:
	bl flash_cmd_erase_all
.Ltmp262:
	#DEBUG_VALUE: s <- R0
	.loc	1 402 0                 # C:/Projects/UI-01_sw1_hw1/module_dfu/src/dfu.xc:402:0
	{
		gettime r0
		get r11, id
	}
.Ltmp263:
	.loc	1 403 0                 # C:/Projects/UI-01_sw1_hw1/module_dfu/src/dfu.xc:403:0
	ldaw r1, dp[__timers]
	{
		nop
		ldw r1, r1[r11]
	}
	ldw r2, cp[.LCPI5_2]
	.loc	1 403 0                 # C:/Projects/UI-01_sw1_hw1/module_dfu/src/dfu.xc:403:0
	{
		add r0, r0, r2
		nop
	}
	.loc	1 403 0                 # C:/Projects/UI-01_sw1_hw1/module_dfu/src/dfu.xc:403:0
	{
		setd res[r1], r0
		nop
	}
	.loc	1 403 0                 # C:/Projects/UI-01_sw1_hw1/module_dfu/src/dfu.xc:403:0
	{
		setc res[r1], 9
		nop
	}
	.loc	1 403 0                 # C:/Projects/UI-01_sw1_hw1/module_dfu/src/dfu.xc:403:0
.Lxta.endpoint_labels2:
	{
		in r0, res[r1]
		nop
	}
	#DEBUG_VALUE: _i.i_dfu._SDFUHandler_0._c0.HandleDfuRequest:p <- R4
.Ltmp264:
	#DEBUG_VALUE: _i.i_dfu._SDFUHandler_0._c0.HandleDfuRequest:data_buffer_length <- R3
	.loc	1 446 0                 # C:/Projects/UI-01_sw1_hw1/module_dfu/src/dfu.xc:446:0
	stw r5, sp[67]
	bu .LBB5_4
.Ltmp265:
.LBB5_45:                               # %switchcase168
.Lxtalabel107:
	#DEBUG_VALUE: _i.i_dfu._SDFUHandler_0._c0.HandleDfuRequest:p <- R4
	#DEBUG_VALUE: _i.i_dfu._SDFUHandler_0._c0.HandleDfuRequest:data_buffer_length <- R3
	{
		ldc r5, 0
		nop
	}
	.loc	1 499 0                 # C:/Projects/UI-01_sw1_hw1/module_dfu/src/dfu.xc:499:0
	stw r5, sp[67]
	ldw r2, cp[.LCPI5_1]
	{
		mkmsk r6, 1
		nop
	}
	bu .LBB5_46
.Ltmp266:
.LBB5_31:
	#DEBUG_VALUE: _i.i_dfu._SDFUHandler_0._c0.HandleDfuRequest:p <- R4
	#DEBUG_VALUE: _i.i_dfu._SDFUHandler_0._c0.HandleDfuRequest:data_buffer_length <- R3
	{
		ldc r0, 2
		nop
	}
.Ltmp267:
.LBB5_33:                               # %switchcase90
.Lxtalabel108:
	#DEBUG_VALUE: _i.i_dfu._SDFUHandler_0._c0.HandleDfuRequest:p <- R4
	#DEBUG_VALUE: _i.i_dfu._SDFUHandler_0._c0.HandleDfuRequest:data_buffer_length <- R3
	.loc	1 304 0                 # C:/Projects/UI-01_sw1_hw1/module_dfu/src/dfu.xc:304:0
	stw r0, sp[66]
.Ltmp268:
.LBB5_34:                               # %switchcase173
.Lxtalabel109:
	#DEBUG_VALUE: _i.i_dfu._SDFUHandler_0._c0.HandleDfuRequest:p <- R4
	#DEBUG_VALUE: _i.i_dfu._SDFUHandler_0._c0.HandleDfuRequest:data_buffer_length <- R3
	{
		ldc r5, 0
		nop
	}
	#DEBUG_VALUE: _i.i_dfu._SDFUHandler_0._c0.HandleDfuRequest:p <- R4
	#DEBUG_VALUE: _i.i_dfu._SDFUHandler_0._c0.HandleDfuRequest:data_buffer_length <- R3
	.loc	1 446 0                 # C:/Projects/UI-01_sw1_hw1/module_dfu/src/dfu.xc:446:0
	stw r5, sp[67]
.Ltmp269:
.LBB5_4:
	#DEBUG_VALUE: _i.i_dfu._SDFUHandler_0._c0.HandleDfuRequest:p <- R4
	#DEBUG_VALUE: _i.i_dfu._SDFUHandler_0._c0.HandleDfuRequest:data_buffer_length <- R3
	{
		mov r6, r5
		mov r2, r5
	}
.Ltmp270:
.LBB5_46:                               # %switchdone
.Lxtalabel110:
	{
		mov r3, r5
		nop
	}
.LBB5_47:                               # %switchdone
.Lxtalabel111:
.Ltmp271:
	#DEBUG_VALUE: _i.i_dfu._SDFUHandler_0._c0.HandleDfuRequest:p <- R4
	#DEBUG_VALUE: _i.i_dfu._SDFUHandler_0._c0.HandleDfuRequest:data_buffer_length <- R3
	.loc	1 525 0                 # C:/Projects/UI-01_sw1_hw1/module_dfu/src/dfu.xc:525:0
	ldw r0, sp[66]
	{
		mkmsk r1, 1
		nop
	}
	{
		nop
		stw r1, r4[0]
	}
	stw r0, sp[77]
	{
		mov r0, r6
		mov r1, r5
	}
	ldw r8, sp[72]                  # 4-byte Folded Reload
	ldw r9, sp[73]                  # 4-byte Folded Reload
	ldw r6, sp[70]                  # 4-byte Folded Reload
	ldw r7, sp[71]                  # 4-byte Folded Reload
	ldw r4, sp[68]                  # 4-byte Folded Reload
.Ltmp272:
	ldw r5, sp[69]                  # 4-byte Folded Reload
	retsp 74
	# RETURN_REG_HOLDER
.Ltmp273:
.LBB5_10:                               # %iftrue.i
.Lxtalabel112:
	#DEBUG_VALUE: _i.i_dfu._SDFUHandler_0._c0.HandleDfuRequest:p <- R4
	#DEBUG_VALUE: _i.i_dfu._SDFUHandler_0._c0.HandleDfuRequest:sp <- R1
	#DEBUG_VALUE: _i.i_dfu._SDFUHandler_0._c0.HandleDfuRequest:data_buffer_length <- R3
	.loc	1 446 0                 # C:/Projects/UI-01_sw1_hw1/module_dfu/src/dfu.xc:446:0
	{
		add r0, r1, 4
		nop
	}
	{
		nop
		ld16s r6, r0[r5]
	}
	.loc	1 446 0                 # C:/Projects/UI-01_sw1_hw1/module_dfu/src/dfu.xc:446:0
	{
		zext r6, 16
		mkmsk r7, 1
	}
	.loc	1 91 0                  # C:/Projects/UI-01_sw1_hw1/module_dfu/src/dfu.xc:91:0
.Ltmp274:
	stw r7, sp[66]
	.loc	1 93 0                  # C:/Projects/UI-01_sw1_hw1/module_dfu/src/dfu.xc:93:0
	{
		ldc r8, 0
		nop
	}
	ldaw r9, dp[DFU_flash_connected]
	{
		nop
		ld8u r0, r9[r8]
	}
	bt r0, .LBB5_13
.Ltmp275:
# BB#11:                                # %iftrue.i193
.Lxtalabel113:
	#DEBUG_VALUE: _i.i_dfu._SDFUHandler_0._c0.HandleDfuRequest:p <- R4
	#DEBUG_VALUE: _i.i_dfu._SDFUHandler_0._c0.HandleDfuRequest:data_buffer_length <- R3
	.loc	1 62 0                  # C:/Projects/UI-01_sw1_hw1/module_dfu/src/dfu.xc:62:0
.Lxta.call_labels19:
	bl DFUCustomFlashEnable
.Ltmp276:
	.loc	1 63 0                  # C:/Projects/UI-01_sw1_hw1/module_dfu/src/dfu.xc:63:0
.Lxta.call_labels20:
	bl flash_cmd_init
.Ltmp277:
	#DEBUG_VALUE: error <- R0
	bt r0, .LBB5_13
.Ltmp278:
# BB#12:                                # %ifdone3.i
.Lxtalabel114:
	#DEBUG_VALUE: _i.i_dfu._SDFUHandler_0._c0.HandleDfuRequest:p <- R4
	#DEBUG_VALUE: _i.i_dfu._SDFUHandler_0._c0.HandleDfuRequest:data_buffer_length <- R3
	.loc	1 93 0                  # C:/Projects/UI-01_sw1_hw1/module_dfu/src/dfu.xc:93:0
	st8 r7, r9[r8]
.Ltmp279:
.LBB5_13:                               # %DFU_OpenFlash.exit
	#DEBUG_VALUE: _i.i_dfu._SDFUHandler_0._c0.HandleDfuRequest:p <- R4
	#DEBUG_VALUE: _i.i_dfu._SDFUHandler_0._c0.HandleDfuRequest:data_buffer_length <- R3
	ldw r0, cp[.LCPI5_3]
	.loc	1 96 0                  # C:/Projects/UI-01_sw1_hw1/module_dfu/src/dfu.xc:96:0
	mul r0, r6, r0
	.loc	1 96 0                  # C:/Projects/UI-01_sw1_hw1/module_dfu/src/dfu.xc:96:0
	stw r0, dp[DFUResetTimeout]
	.loc	1 99 0                  # C:/Projects/UI-01_sw1_hw1/module_dfu/src/dfu.xc:99:0
	{
		gettime r0
		nop
	}
	.loc	1 99 0                  # C:/Projects/UI-01_sw1_hw1/module_dfu/src/dfu.xc:99:0
	stw r0, dp[DFUTimerStart]
	#DEBUG_VALUE: _i.i_dfu._SDFUHandler_0._c0.HandleDfuRequest:p <- R4
	#DEBUG_VALUE: _i.i_dfu._SDFUHandler_0._c0.HandleDfuRequest:data_buffer_length <- R3
.Ltmp280:
	.loc	1 446 0                 # C:/Projects/UI-01_sw1_hw1/module_dfu/src/dfu.xc:446:0
	stw r5, sp[67]
	bu .LBB5_4
.Ltmp281:
.LBB5_23:                               # %switchcase8.i
.Lxtalabel115:
	#DEBUG_VALUE: _i.i_dfu._SDFUHandler_0._c0.HandleDfuRequest:p <- R4
	#DEBUG_VALUE: _i.i_dfu._SDFUHandler_0._c0.HandleDfuRequest:data_buffer <- R7
	#DEBUG_VALUE: _i.i_dfu._SDFUHandler_0._c0.HandleDfuRequest:data_buffer_length <- R3
	#DEBUG_VALUE: data_out <- [SP+72]
	#DEBUG_VALUE: DFU_GetStatus:request_len <- 0
	#DEBUG_VALUE: timeout <- 0
	{
		ldc r0, 2
		nop
	}
	bu .LBB5_24
.Ltmp282:
.LBB5_22:                               # %switchcase6.i
.Lxtalabel116:
	#DEBUG_VALUE: _i.i_dfu._SDFUHandler_0._c0.HandleDfuRequest:p <- R4
	#DEBUG_VALUE: _i.i_dfu._SDFUHandler_0._c0.HandleDfuRequest:data_buffer <- R7
	#DEBUG_VALUE: _i.i_dfu._SDFUHandler_0._c0.HandleDfuRequest:data_buffer_length <- R3
	{
		ldc r0, 5
		nop
	}
.Ltmp283:
.LBB5_24:                               # %DFU_GetStatus.exit
.Lxtalabel117:
	.loc	1 284 0                 # C:/Projects/UI-01_sw1_hw1/module_dfu/src/dfu.xc:284:0
	stw r0, sp[66]
.Ltmp284:
.LBB5_25:                               # %DFU_GetStatus.exit
.Lxtalabel118:
	#DEBUG_VALUE: _i.i_dfu._SDFUHandler_0._c0.HandleDfuRequest:p <- R4
	#DEBUG_VALUE: _i.i_dfu._SDFUHandler_0._c0.HandleDfuRequest:data_buffer <- R7
	#DEBUG_VALUE: _i.i_dfu._SDFUHandler_0._c0.HandleDfuRequest:data_buffer_length <- R3
	#DEBUG_VALUE: data_out <- [SP+72]
	#DEBUG_VALUE: DFU_GetStatus:request_len <- 0
	#DEBUG_VALUE: timeout <- 0
	{
		nop
		stw r0, sp[19]
	}
	.loc	1 466 0                 # C:/Projects/UI-01_sw1_hw1/module_dfu/src/dfu.xc:466:0
	stw r2, sp[67]
.Ltmp285:
	#DEBUG_VALUE: i <- 0
	{
		ldaw r0, sp[18]
		ldc r1, 16
	}
	{
		mov r3, r6
		nop
	}
.Ltmp286:
.LBB5_26:                               # %LoopBody105
                                        # =>This Inner Loop Header: Depth=1
.Lxtalabel119:
	#DEBUG_VALUE: _i.i_dfu._SDFUHandler_0._c0.HandleDfuRequest:p <- R4
	#DEBUG_VALUE: _i.i_dfu._SDFUHandler_0._c0.HandleDfuRequest:data_buffer <- R7
	#DEBUG_VALUE: _i.i_dfu._SDFUHandler_0._c0.HandleDfuRequest:data_buffer_length <- R3
	#DEBUG_VALUE: data_out <- [SP+72]
	#DEBUG_VALUE: i <- 0
	.loc	1 468 0                 # C:/Projects/UI-01_sw1_hw1/module_dfu/src/dfu.xc:468:0
	{
		lsu r11, r3, r9
		nop
	}
.Ltrap_info11:
	{
		ecallf r11
		nop
	}
	#DEBUG_VALUE: _i.i_dfu._SDFUHandler_0._c0.HandleDfuRequest:p <- R4
	#DEBUG_VALUE: _i.i_dfu._SDFUHandler_0._c0.HandleDfuRequest:data_buffer <- R7
	#DEBUG_VALUE: _i.i_dfu._SDFUHandler_0._c0.HandleDfuRequest:data_buffer_length <- R3
	#DEBUG_VALUE: data_out <- [SP+72]
	#DEBUG_VALUE: i <- 0
	{
		nop
		ldw r11, r0[r3]
	}
	.loc	1 468 0                 # C:/Projects/UI-01_sw1_hw1/module_dfu/src/dfu.xc:468:0
	stw r11, r7[r3]
	.loc	1 467 0                 # C:/Projects/UI-01_sw1_hw1/module_dfu/src/dfu.xc:467:0
	{
		add r3, r3, 1
		nop
	}
.Ltmp287:
	#DEBUG_VALUE: i <- R3
	.loc	1 467 0                 # C:/Projects/UI-01_sw1_hw1/module_dfu/src/dfu.xc:467:0
	{
		lss r11, r3, r1
		nop
	}
.Lxta.loop_labels11:
	# LOOPMARKER 1
	bt r11, .LBB5_26
.Ltmp288:
# BB#27:
	#DEBUG_VALUE: _i.i_dfu._SDFUHandler_0._c0.HandleDfuRequest:p <- R4
	#DEBUG_VALUE: _i.i_dfu._SDFUHandler_0._c0.HandleDfuRequest:data_buffer_length <- R3
	{
		mov r5, r2
		nop
	}
.Ltmp289:
.LBB5_40:
	#DEBUG_VALUE: _i.i_dfu._SDFUHandler_0._c0.HandleDfuRequest:p <- R4
	#DEBUG_VALUE: _i.i_dfu._SDFUHandler_0._c0.HandleDfuRequest:data_buffer_length <- R3
	{
		mov r2, r6
		mov r3, r6
	}
.Ltmp290:
	bu .LBB5_47
	.cc_bottom _i.i_dfu._SDFUHandler_0._c0.HandleDfuRequest.function
	.set	_i.i_dfu._SDFUHandler_0._c0.HandleDfuRequest.nstackwords,((DFU_Dnload.nstackwords $M DFU_Upload.nstackwords $M flash_cmd_erase_all.nstackwords $M DFUCustomFlashEnable.nstackwords $M flash_cmd_init.nstackwords) + 74)
	.globl	_i.i_dfu._SDFUHandler_0._c0.HandleDfuRequest.nstackwords
	.set	_i.i_dfu._SDFUHandler_0._c0.HandleDfuRequest.maxcores,DFUCustomFlashEnable.maxcores $M DFU_Dnload.maxcores $M DFU_Upload.maxcores $M flash_cmd_erase_all.maxcores $M flash_cmd_init.maxcores $M 1
	.globl	_i.i_dfu._SDFUHandler_0._c0.HandleDfuRequest.maxcores
	.set	_i.i_dfu._SDFUHandler_0._c0.HandleDfuRequest.maxtimers,DFUCustomFlashEnable.maxtimers $M DFU_Dnload.maxtimers $M DFU_Upload.maxtimers $M flash_cmd_erase_all.maxtimers $M flash_cmd_init.maxtimers $M 0
	.globl	_i.i_dfu._SDFUHandler_0._c0.HandleDfuRequest.maxtimers
	.set	_i.i_dfu._SDFUHandler_0._c0.HandleDfuRequest.maxchanends,DFUCustomFlashEnable.maxchanends $M DFU_Dnload.maxchanends $M DFU_Upload.maxchanends $M flash_cmd_erase_all.maxchanends $M flash_cmd_init.maxchanends $M 0
	.globl	_i.i_dfu._SDFUHandler_0._c0.HandleDfuRequest.maxchanends
.Ltmp291:
	.size	_i.i_dfu._SDFUHandler_0._c0.HandleDfuRequest, .Ltmp291-_i.i_dfu._SDFUHandler_0._c0.HandleDfuRequest
.Lfunc_end5:
	.cfi_endproc

	.globl	_i.i_dfu._SDFUHandler_0.0.finish
	.align	4
	.type	_i.i_dfu._SDFUHandler_0.0.finish,@function
	.cc_top _i.i_dfu._SDFUHandler_0.0.finish.function,_i.i_dfu._SDFUHandler_0.0.finish
_i.i_dfu._SDFUHandler_0.0.finish:       # @_i.i_dfu._SDFUHandler_0.0.finish
	.cfi_startproc
	.issue_mode dual
# BB#0:                                 # %allocas
	{
		nop
		dualentsp 0
	}
.LBB6_1:                                # %LoopTest
                                        # =>This Inner Loop Header: Depth=1
	#DEBUG_VALUE: _i.i_dfu._SDFUHandler_0.0.finish:p <- R0
	{
		nop
		ldw r1, r0[0]
	}
	bf r1, .LBB6_1
# BB#2:                                 # %ifdone
	#DEBUG_VALUE: _i.i_dfu._SDFUHandler_0.0.finish:p <- R0
	{
		ldc r1, 0
		nop
	}
	{
		nop
		stw r1, r0[0]
	}
	{
		nop
		retsp 0
	}
	# RETURN_REG_HOLDER
	.cc_bottom _i.i_dfu._SDFUHandler_0.0.finish.function
	.set	_i.i_dfu._SDFUHandler_0.0.finish.nstackwords,0
	.globl	_i.i_dfu._SDFUHandler_0.0.finish.nstackwords
	.set	_i.i_dfu._SDFUHandler_0.0.finish.maxcores,1
	.globl	_i.i_dfu._SDFUHandler_0.0.finish.maxcores
	.set	_i.i_dfu._SDFUHandler_0.0.finish.maxtimers,0
	.globl	_i.i_dfu._SDFUHandler_0.0.finish.maxtimers
	.set	_i.i_dfu._SDFUHandler_0.0.finish.maxchanends,0
	.globl	_i.i_dfu._SDFUHandler_0.0.finish.maxchanends
.Ltmp292:
	.size	_i.i_dfu._SDFUHandler_0.0.finish, .Ltmp292-_i.i_dfu._SDFUHandler_0.0.finish
	.cfi_endproc

	.section	.cp.rodata.cst4,"aMc",@progbits,4
	.cc_top .LCPI7_0.data,.LCPI7_0
	.align	4
	.type	.LCPI7_0,@object
	.size	.LCPI7_0, 4
.LCPI7_0:
	.long	4294967056              # 0xffffff10
	.cc_bottom .LCPI7_0.data
	.cc_top .LCPI7_1.data,.LCPI7_1
	.align	4
	.type	.LCPI7_1,@object
	.size	.LCPI7_1, 4
.LCPI7_1:
	.long	285483025               # 0x11042011
	.cc_bottom .LCPI7_1.data
	.cc_top .LCPI7_2.data,.LCPI7_2
	.align	4
	.type	.LCPI7_2,@object
	.size	.LCPI7_2, 4
.LCPI7_2:
	.long	25000000                # 0x17d7840
	.cc_bottom .LCPI7_2.data
	.cc_top .LCPI7_3.data,.LCPI7_3
	.align	4
	.type	.LCPI7_3,@object
	.size	.LCPI7_3, 4
.LCPI7_3:
	.long	100000                  # 0x186a0
	.cc_bottom .LCPI7_3.data
	.text
	.globl	_i.i_dfu._SDFUHandler_0.0.HandleDfuRequest
	.align	4
	.type	_i.i_dfu._SDFUHandler_0.0.HandleDfuRequest,@function
	.cc_top _i.i_dfu._SDFUHandler_0.0.HandleDfuRequest.function,_i.i_dfu._SDFUHandler_0.0.HandleDfuRequest
_i.i_dfu._SDFUHandler_0.0.HandleDfuRequest: # @_i.i_dfu._SDFUHandler_0.0.HandleDfuRequest
.Lfunc_begin7:
	.loc	1 432 0                 # C:/Projects/UI-01_sw1_hw1/module_dfu/src/dfu.xc:432:0
	.cfi_startproc
	.issue_mode dual
# BB#0:                                 # %allocas
	DUALENTSP_lu6 74
.Ltmp293:
	.cfi_def_cfa_offset 296
.Ltmp294:
	.cfi_offset 15, 0
	stw r4, sp[68]                  # 4-byte Folded Spill
	stw r5, sp[69]                  # 4-byte Folded Spill
.Ltmp295:
	.cfi_offset 4, -24
.Ltmp296:
	.cfi_offset 5, -20
	stw r6, sp[70]                  # 4-byte Folded Spill
	stw r7, sp[71]                  # 4-byte Folded Spill
.Ltmp297:
	.cfi_offset 6, -16
.Ltmp298:
	.cfi_offset 7, -12
	stw r8, sp[72]                  # 4-byte Folded Spill
.Ltmp299:
	.cfi_offset 8, -8
	#DEBUG_VALUE: _i.i_dfu._SDFUHandler_0.0.HandleDfuRequest:p <- R0
	#DEBUG_VALUE: _i.i_dfu._SDFUHandler_0.0.HandleDfuRequest:sp <- R1
	#DEBUG_VALUE: _i.i_dfu._SDFUHandler_0.0.HandleDfuRequest:data_buffer <- R2
	#DEBUG_VALUE: _i.i_dfu._SDFUHandler_0.0.HandleDfuRequest:data_buffer_length <- R3
	{
		mov r6, r2
		nop
	}
.Ltmp300:
	#DEBUG_VALUE: _i.i_dfu._SDFUHandler_0.0.HandleDfuRequest:data_buffer <- R6
	ldw r2, sp[75]
.Ltmp301:
.LBB7_1:                                # %allocas
                                        # =>This Inner Loop Header: Depth=1
	#DEBUG_VALUE: tmpDfuState <- R2
	#DEBUG_VALUE: _i.i_dfu._SDFUHandler_0.0.HandleDfuRequest:dfuState <- R2
	{
		nop
		ldw r3, r0[0]
	}
	bf r3, .LBB7_1
.Ltmp302:
# BB#2:                                 # %ifdone
.Lxtalabel120:
	#DEBUG_VALUE: _i.i_dfu._SDFUHandler_0.0.HandleDfuRequest:sp <- R1
	#DEBUG_VALUE: _i.i_dfu._SDFUHandler_0.0.HandleDfuRequest:data_buffer <- R6
	#DEBUG_VALUE: _i.i_dfu._SDFUHandler_0.0.HandleDfuRequest:data_buffer_length <- R3
	#DEBUG_VALUE: _i.i_dfu._SDFUHandler_0.0.HandleDfuRequest:dfuState <- R2
	#DEBUG_VALUE: tmpDfuState <- R2
	{
		ldc r4, 0
		nop
	}
	.loc	1 436 0 prologue_end    # C:/Projects/UI-01_sw1_hw1/module_dfu/src/dfu.xc:436:0
.Ltmp303:
	stw r4, sp[67]
	.loc	1 438 0                 # C:/Projects/UI-01_sw1_hw1/module_dfu/src/dfu.xc:438:0
.Ltmp304:
	stw r2, sp[66]
	{
		mkmsk r0, 2
		nop
	}
	{
		nop
		ld8u r3, r1[r0]
	}
.Ltmp305:
	ldc r0, 239
	.loc	1 442 0                 # C:/Projects/UI-01_sw1_hw1/module_dfu/src/dfu.xc:442:0
	{
		lss r0, r0, r3
		nop
	}
	bt r0, .LBB7_7
.Ltmp306:
# BB#3:                                 # %ifdone
.Lxtalabel121:
	#DEBUG_VALUE: _i.i_dfu._SDFUHandler_0.0.HandleDfuRequest:sp <- R1
	#DEBUG_VALUE: _i.i_dfu._SDFUHandler_0.0.HandleDfuRequest:data_buffer <- R6
	#DEBUG_VALUE: _i.i_dfu._SDFUHandler_0.0.HandleDfuRequest:data_buffer_length <- R3
	#DEBUG_VALUE: _i.i_dfu._SDFUHandler_0.0.HandleDfuRequest:dfuState <- R2
	{
		ldc r0, 6
		nop
	}
	{
		lsu r11, r0, r3
		nop
	}
	bt r11, .LBB7_4
.Ltmp307:
# BB#6:                                 # %ifdone
.Lxtalabel122:
	#DEBUG_VALUE: _i.i_dfu._SDFUHandler_0.0.HandleDfuRequest:sp <- R1
	#DEBUG_VALUE: _i.i_dfu._SDFUHandler_0.0.HandleDfuRequest:data_buffer <- R6
	#DEBUG_VALUE: _i.i_dfu._SDFUHandler_0.0.HandleDfuRequest:data_buffer_length <- R3
	#DEBUG_VALUE: _i.i_dfu._SDFUHandler_0.0.HandleDfuRequest:dfuState <- R2
	ldw r8, sp[76]

	.xtabranch .Ljumptable6+4,.Ljumptable6+8,.Ljumptable6+12,.Ljumptable6+16,.Ljumptable6+20,.Ljumptable6+24,.Ljumptable6+28
.Ljumptable6:
		
	{
		nop
		bru r3
	}
	.jmptable32 .LBB7_9,.LBB7_16,.LBB7_28,.LBB7_18,.LBB7_30,.LBB7_35,.LBB7_49
.Ltmp308:
.LBB7_9:                                # %switchcase
.Lxtalabel123:
	#DEBUG_VALUE: _i.i_dfu._SDFUHandler_0.0.HandleDfuRequest:sp <- R1
	#DEBUG_VALUE: _i.i_dfu._SDFUHandler_0.0.HandleDfuRequest:data_buffer_length <- R3
	#DEBUG_VALUE: _i.i_dfu._SDFUHandler_0.0.HandleDfuRequest:dfuState <- R2
	.loc	1 445 0                 # C:/Projects/UI-01_sw1_hw1/module_dfu/src/dfu.xc:445:0
	stw r2, sp[66]
	.loc	1 446 0                 # C:/Projects/UI-01_sw1_hw1/module_dfu/src/dfu.xc:446:0
	{
		ldc r4, 0
		nop
	}
	.loc	1 89 5                  # C:/Projects/UI-01_sw1_hw1/module_dfu/src/dfu.xc:89:5
.Ltmp309:
	bf r2, .LBB7_10
.Ltmp310:
# BB#14:                                # %iffalse.i
.Lxtalabel124:
	#DEBUG_VALUE: _i.i_dfu._SDFUHandler_0.0.HandleDfuRequest:data_buffer_length <- R3
	{
		ldc r0, 10
		nop
	}
	.loc	1 103 0                 # C:/Projects/UI-01_sw1_hw1/module_dfu/src/dfu.xc:103:0
.Ltmp311:
	stw r0, sp[66]
	#DEBUG_VALUE: _i.i_dfu._SDFUHandler_0.0.HandleDfuRequest:data_buffer_length <- R3
.Ltmp312:
	.loc	1 446 0                 # C:/Projects/UI-01_sw1_hw1/module_dfu/src/dfu.xc:446:0
	stw r4, sp[67]
	bu .LBB7_4
.Ltmp313:
.LBB7_16:                               # %afterboundcheck
                                        # =>This Inner Loop Header: Depth=1
.Lxtalabel125:
	#DEBUG_VALUE: _i.i_dfu._SDFUHandler_0.0.HandleDfuRequest:sp <- R1
	#DEBUG_VALUE: _i.i_dfu._SDFUHandler_0.0.HandleDfuRequest:data_buffer <- R6
	#DEBUG_VALUE: _i.i_dfu._SDFUHandler_0.0.HandleDfuRequest:data_buffer_length <- R3
	.loc	1 453 0                 # C:/Projects/UI-01_sw1_hw1/module_dfu/src/dfu.xc:453:0
	{
		lsu r0, r4, r8
		nop
	}
.Ltrap_info12:
	{
		ecallf r0
		nop
	}
	#DEBUG_VALUE: _i.i_dfu._SDFUHandler_0.0.HandleDfuRequest:sp <- R1
	#DEBUG_VALUE: _i.i_dfu._SDFUHandler_0.0.HandleDfuRequest:data_buffer <- R6
	#DEBUG_VALUE: _i.i_dfu._SDFUHandler_0.0.HandleDfuRequest:data_buffer_length <- R3
	.loc	1 453 0                 # C:/Projects/UI-01_sw1_hw1/module_dfu/src/dfu.xc:453:0
	{
		ldaw r2, sp[50]
		ldw r0, r6[r4]
	}
	.loc	1 453 0                 # C:/Projects/UI-01_sw1_hw1/module_dfu/src/dfu.xc:453:0
	stw r0, r2[r4]
.Ltmp314:
	#DEBUG_VALUE: i <- R4
	.loc	1 452 0                 # C:/Projects/UI-01_sw1_hw1/module_dfu/src/dfu.xc:452:0
	{
		add r4, r4, 1
		ldc r0, 16
	}
.Ltmp315:
	.loc	1 452 0                 # C:/Projects/UI-01_sw1_hw1/module_dfu/src/dfu.xc:452:0
	{
		lss r0, r4, r0
		nop
	}
.Lxta.loop_labels12:
	# LOOPMARKER 3
	bt r0, .LBB7_16
.Ltmp316:
# BB#17:                                # %ifdone26
.Lxtalabel126:
	#DEBUG_VALUE: _i.i_dfu._SDFUHandler_0.0.HandleDfuRequest:sp <- R1
	#DEBUG_VALUE: _i.i_dfu._SDFUHandler_0.0.HandleDfuRequest:data_buffer_length <- R3
	.loc	1 454 0                 # C:/Projects/UI-01_sw1_hw1/module_dfu/src/dfu.xc:454:0
	{
		add r0, r1, 8
		ldc r5, 0
	}
	{
		nop
		ld16s r0, r0[r5]
	}
	.loc	1 454 0                 # C:/Projects/UI-01_sw1_hw1/module_dfu/src/dfu.xc:454:0
	{
		zext r0, 16
		add r1, r1, 4
	}
.Ltmp317:
	{
		nop
		ld16s r1, r1[r5]
	}
	.loc	1 454 0                 # C:/Projects/UI-01_sw1_hw1/module_dfu/src/dfu.xc:454:0
	{
		zext r1, 16
		nop
	}
	ldaw r2, sp[66]
.Ltmp318:
	#DEBUG_VALUE: tmpDfuState <- [R2+0]
	.loc	1 454 0                 # C:/Projects/UI-01_sw1_hw1/module_dfu/src/dfu.xc:454:0
	{
		ldaw r2, sp[50]
		stw r2, sp[1]
	}
.Ltmp319:
	ldaw r3, sp[67]
.Ltmp320:
.Lxta.call_labels21:
	bl DFU_Dnload
	{
		mov r3, r0
		nop
	}
	ldw r4, sp[67]
	{
		mov r2, r5
		nop
	}
	bu .LBB7_47
.Ltmp321:
.LBB7_7:                                # %ifdone
.Lxtalabel127:
	#DEBUG_VALUE: _i.i_dfu._SDFUHandler_0.0.HandleDfuRequest:data_buffer_length <- R3
	ldw r0, cp[.LCPI7_0]
	{
		add r0, r3, r0
		ldc r1, 6
	}
	{
		lsu r1, r1, r0
		mov r5, r4
	}
	{
		mov r2, r4
		mov r3, r4
	}
.Ltmp322:
	bt r1, .LBB7_47
# BB#8:                                 # %ifdone
.Lxtalabel128:
.Ltmp323:
	#DEBUG_VALUE: _i.i_dfu._SDFUHandler_0.0.HandleDfuRequest:data_buffer_length <- R3

	.xtabranch .Ljumptable7+4,.Ljumptable7+8,.Ljumptable7+12,.Ljumptable7+16,.Ljumptable7+20,.Ljumptable7+24,.Ljumptable7+28
.Ljumptable7:
		
	{
		nop
		bru r0
	}
	.jmptable32 .LBB7_48,.LBB7_41,.LBB7_45,.LBB7_48,.LBB7_34,.LBB7_34,.LBB7_34
.Ltmp324:
.LBB7_48:                               # %switchcase163
.Lxtalabel129:
	#DEBUG_VALUE: _i.i_dfu._SDFUHandler_0.0.HandleDfuRequest:data_buffer_length <- R3
	{
		ldc r4, 0
		nop
	}
	.loc	1 489 0                 # C:/Projects/UI-01_sw1_hw1/module_dfu/src/dfu.xc:489:0
	stw r4, sp[67]
	{
		mkmsk r5, 1
		mov r2, r4
	}
	bu .LBB7_46
.Ltmp325:
.LBB7_28:                               # %switchcase24
.Lxtalabel130:
	#DEBUG_VALUE: _i.i_dfu._SDFUHandler_0.0.HandleDfuRequest:sp <- R1
	#DEBUG_VALUE: _i.i_dfu._SDFUHandler_0.0.HandleDfuRequest:data_buffer <- R6
	#DEBUG_VALUE: _i.i_dfu._SDFUHandler_0.0.HandleDfuRequest:data_buffer_length <- R3
	#DEBUG_VALUE: data_out <- [SP+136]
	.loc	1 459 0                 # C:/Projects/UI-01_sw1_hw1/module_dfu/src/dfu.xc:459:0
	{
		add r0, r1, 8
		ldc r5, 0
	}
	{
		nop
		ld16s r0, r0[r5]
	}
	.loc	1 459 0                 # C:/Projects/UI-01_sw1_hw1/module_dfu/src/dfu.xc:459:0
	{
		zext r0, 16
		ldaw r7, sp[34]
	}
	ldaw r2, sp[66]
.Ltmp326:
	#DEBUG_VALUE: tmpDfuState <- [R2+0]
	.loc	1 459 0                 # C:/Projects/UI-01_sw1_hw1/module_dfu/src/dfu.xc:459:0
	{
		mov r1, r7
		nop
	}
.Ltmp327:
.Lxta.call_labels22:
	bl DFU_Upload
.Ltmp328:
	{
		mov r4, r0
		nop
	}
.Ltmp329:
	#DEBUG_VALUE: i <- 0
	.loc	1 459 0                 # C:/Projects/UI-01_sw1_hw1/module_dfu/src/dfu.xc:459:0
	stw r4, sp[67]
	{
		ldc r0, 16
		mov r1, r5
	}
.Ltmp330:
.LBB7_29:                               # %LoopBody68
                                        # =>This Inner Loop Header: Depth=1
.Lxtalabel131:
	#DEBUG_VALUE: _i.i_dfu._SDFUHandler_0.0.HandleDfuRequest:data_buffer <- R6
	#DEBUG_VALUE: _i.i_dfu._SDFUHandler_0.0.HandleDfuRequest:data_buffer_length <- R3
	#DEBUG_VALUE: data_out <- [SP+136]
	#DEBUG_VALUE: i <- 0
	.loc	1 461 0                 # C:/Projects/UI-01_sw1_hw1/module_dfu/src/dfu.xc:461:0
	{
		lsu r2, r1, r8
		nop
	}
.Ltrap_info13:
	{
		ecallf r2
		nop
	}
	#DEBUG_VALUE: _i.i_dfu._SDFUHandler_0.0.HandleDfuRequest:data_buffer <- R6
	#DEBUG_VALUE: _i.i_dfu._SDFUHandler_0.0.HandleDfuRequest:data_buffer_length <- R3
	#DEBUG_VALUE: data_out <- [SP+136]
	#DEBUG_VALUE: i <- 0
	{
		nop
		ldw r2, r7[r1]
	}
	.loc	1 461 0                 # C:/Projects/UI-01_sw1_hw1/module_dfu/src/dfu.xc:461:0
	stw r2, r6[r1]
	.loc	1 460 0                 # C:/Projects/UI-01_sw1_hw1/module_dfu/src/dfu.xc:460:0
	{
		add r1, r1, 1
		nop
	}
.Ltmp331:
	#DEBUG_VALUE: i <- R1
	.loc	1 460 0                 # C:/Projects/UI-01_sw1_hw1/module_dfu/src/dfu.xc:460:0
	{
		lss r2, r1, r0
		nop
	}
.Lxta.loop_labels13:
	# LOOPMARKER 2
	bt r2, .LBB7_29
	bu .LBB7_40
.Ltmp332:
.LBB7_18:                               # %switchcase52
.Lxtalabel132:
	#DEBUG_VALUE: _i.i_dfu._SDFUHandler_0.0.HandleDfuRequest:data_buffer <- R6
	#DEBUG_VALUE: _i.i_dfu._SDFUHandler_0.0.HandleDfuRequest:data_buffer_length <- R3
	#DEBUG_VALUE: _i.i_dfu._SDFUHandler_0.0.HandleDfuRequest:dfuState <- R2
	#DEBUG_VALUE: data_out <- [SP+72]
	#DEBUG_VALUE: DFU_GetStatus:request_len <- 0
	#DEBUG_VALUE: timeout <- 0
	{
		ldc r5, 0
		nop
	}
	.loc	1 267 0                 # C:/Projects/UI-01_sw1_hw1/module_dfu/src/dfu.xc:267:0
.Ltmp333:
	{
		eq r1, r2, 6
		stw r5, sp[18]
	}
	.loc	1 269 0                 # C:/Projects/UI-01_sw1_hw1/module_dfu/src/dfu.xc:269:0
	bt r1, .LBB7_23
.Ltmp334:
# BB#19:                                # %switchcase52
.Lxtalabel133:
	#DEBUG_VALUE: _i.i_dfu._SDFUHandler_0.0.HandleDfuRequest:data_buffer <- R6
	#DEBUG_VALUE: _i.i_dfu._SDFUHandler_0.0.HandleDfuRequest:data_buffer_length <- R3
	#DEBUG_VALUE: _i.i_dfu._SDFUHandler_0.0.HandleDfuRequest:dfuState <- R2
	{
		eq r1, r2, 3
		nop
	}
	bt r1, .LBB7_22
.Ltmp335:
# BB#20:                                # %switchcase52
.Lxtalabel134:
	#DEBUG_VALUE: _i.i_dfu._SDFUHandler_0.0.HandleDfuRequest:data_buffer <- R6
	#DEBUG_VALUE: _i.i_dfu._SDFUHandler_0.0.HandleDfuRequest:data_buffer_length <- R3
	#DEBUG_VALUE: _i.i_dfu._SDFUHandler_0.0.HandleDfuRequest:dfuState <- R2
	{
		sub r1, r2, 7
		mkmsk r3, 1
	}
.Ltmp336:
	{
		lsu r1, r3, r1
		nop
	}
	bt r1, .LBB7_25
.Ltmp337:
# BB#21:                                # %switchcase3.i
.Lxtalabel135:
	#DEBUG_VALUE: _i.i_dfu._SDFUHandler_0.0.HandleDfuRequest:data_buffer <- R6
	#DEBUG_VALUE: _i.i_dfu._SDFUHandler_0.0.HandleDfuRequest:data_buffer_length <- R3
	{
		ldc r2, 10
		nop
	}
	bu .LBB7_24
.Ltmp338:
.LBB7_30:                               # %switchcase89
.Lxtalabel136:
	#DEBUG_VALUE: _i.i_dfu._SDFUHandler_0.0.HandleDfuRequest:data_buffer_length <- R3
	#DEBUG_VALUE: _i.i_dfu._SDFUHandler_0.0.HandleDfuRequest:dfuState <- R2
	.loc	1 298 5                 # C:/Projects/UI-01_sw1_hw1/module_dfu/src/dfu.xc:298:5
	{
		eq r0, r2, 10
		nop
	}
	.loc	1 300 0                 # C:/Projects/UI-01_sw1_hw1/module_dfu/src/dfu.xc:300:0
	bt r0, .LBB7_31
.Ltmp339:
# BB#32:                                # %switchcase89
.Lxtalabel137:
	#DEBUG_VALUE: _i.i_dfu._SDFUHandler_0.0.HandleDfuRequest:data_buffer_length <- R3
	{
		ldc r0, 10
		nop
	}
	bu .LBB7_33
.Ltmp340:
.LBB7_35:                               # %switchcase125
.Lxtalabel138:
	#DEBUG_VALUE: _i.i_dfu._SDFUHandler_0.0.HandleDfuRequest:data_buffer <- R6
	#DEBUG_VALUE: _i.i_dfu._SDFUHandler_0.0.HandleDfuRequest:data_buffer_length <- R3
	#DEBUG_VALUE: _i.i_dfu._SDFUHandler_0.0.HandleDfuRequest:dfuState <- R2
	#DEBUG_VALUE: data_out <- [SP+8]
	#DEBUG_VALUE: DFU_GetState:request_len <- 0
	.loc	1 311 0                 # C:/Projects/UI-01_sw1_hw1/module_dfu/src/dfu.xc:311:0
	{
		ldc r0, 8
		stw r2, sp[2]
	}
	.loc	1 313 0                 # C:/Projects/UI-01_sw1_hw1/module_dfu/src/dfu.xc:313:0
	{
		lsu r0, r0, r2
		nop
	}
	bt r0, .LBB7_38
.Ltmp341:
# BB#36:                                # %switchcase125
.Lxtalabel139:
	#DEBUG_VALUE: _i.i_dfu._SDFUHandler_0.0.HandleDfuRequest:data_buffer <- R6
	#DEBUG_VALUE: _i.i_dfu._SDFUHandler_0.0.HandleDfuRequest:data_buffer_length <- R3
	#DEBUG_VALUE: _i.i_dfu._SDFUHandler_0.0.HandleDfuRequest:dfuState <- R2
	{
		mkmsk r0, 1
		nop
	}
	{
		shl r0, r0, r2
		nop
	}
	ldc r1, 400
	{
		and r0, r0, r1
		nop
	}
	bf r0, .LBB7_38
.Ltmp342:
# BB#37:                                # %switchcase3.i196
.Lxtalabel140:
	#DEBUG_VALUE: _i.i_dfu._SDFUHandler_0.0.HandleDfuRequest:data_buffer <- R6
	#DEBUG_VALUE: _i.i_dfu._SDFUHandler_0.0.HandleDfuRequest:data_buffer_length <- R3
	{
		ldc r0, 10
		nop
	}
	.loc	1 318 0                 # C:/Projects/UI-01_sw1_hw1/module_dfu/src/dfu.xc:318:0
	stw r0, sp[66]
.Ltmp343:
.LBB7_38:                               # %DFU_GetState.exit
.Lxtalabel141:
	#DEBUG_VALUE: _i.i_dfu._SDFUHandler_0.0.HandleDfuRequest:data_buffer <- R6
	#DEBUG_VALUE: _i.i_dfu._SDFUHandler_0.0.HandleDfuRequest:data_buffer_length <- R3
	#DEBUG_VALUE: data_out <- [SP+8]
	{
		mkmsk r4, 1
		nop
	}
	.loc	1 477 0                 # C:/Projects/UI-01_sw1_hw1/module_dfu/src/dfu.xc:477:0
	stw r4, sp[67]
.Ltmp344:
	#DEBUG_VALUE: i <- 0
	{
		ldc r5, 0
		ldaw r0, sp[2]
	}
	{
		ldc r1, 16
		mov r2, r5
	}
.Ltmp345:
.LBB7_39:                               # %LoopBody142
                                        # =>This Inner Loop Header: Depth=1
.Lxtalabel142:
	#DEBUG_VALUE: _i.i_dfu._SDFUHandler_0.0.HandleDfuRequest:data_buffer <- R6
	#DEBUG_VALUE: _i.i_dfu._SDFUHandler_0.0.HandleDfuRequest:data_buffer_length <- R3
	#DEBUG_VALUE: data_out <- [SP+8]
	#DEBUG_VALUE: i <- 0
	.loc	1 479 0                 # C:/Projects/UI-01_sw1_hw1/module_dfu/src/dfu.xc:479:0
	{
		lsu r3, r2, r8
		nop
	}
.Ltmp346:
.Ltrap_info14:
	{
		ecallf r3
		nop
	}
	#DEBUG_VALUE: _i.i_dfu._SDFUHandler_0.0.HandleDfuRequest:data_buffer <- R6
.Ltmp347:
	#DEBUG_VALUE: _i.i_dfu._SDFUHandler_0.0.HandleDfuRequest:data_buffer_length <- R3
	#DEBUG_VALUE: data_out <- [SP+8]
	#DEBUG_VALUE: i <- 0
	{
		nop
		ldw r3, r0[r2]
	}
.Ltmp348:
	.loc	1 479 0                 # C:/Projects/UI-01_sw1_hw1/module_dfu/src/dfu.xc:479:0
	stw r3, r6[r2]
	.loc	1 478 0                 # C:/Projects/UI-01_sw1_hw1/module_dfu/src/dfu.xc:478:0
	{
		add r2, r2, 1
		nop
	}
.Ltmp349:
	#DEBUG_VALUE: i <- R2
	.loc	1 478 0                 # C:/Projects/UI-01_sw1_hw1/module_dfu/src/dfu.xc:478:0
	{
		lss r3, r2, r1
		nop
	}
.Lxta.loop_labels14:
	# LOOPMARKER 0
	bt r3, .LBB7_39
	bu .LBB7_40
.Ltmp350:
.LBB7_49:                               # %switchcase127
.Lxtalabel143:
	#DEBUG_VALUE: _i.i_dfu._SDFUHandler_0.0.HandleDfuRequest:data_buffer_length <- R3
	{
		ldc r0, 2
		nop
	}
	bu .LBB7_33
.Ltmp351:
.LBB7_41:                               # %switchcase165
.Lxtalabel144:
	#DEBUG_VALUE: _i.i_dfu._SDFUHandler_0.0.HandleDfuRequest:data_buffer_length <- R3
	#DEBUG_VALUE: s <- 0
	.loc	1 398 0                 # C:/Projects/UI-01_sw1_hw1/module_dfu/src/dfu.xc:398:0
	{
		ldc r4, 0
		nop
	}
	ldaw r5, dp[DFU_flash_connected]
	{
		nop
		ld8u r0, r5[r4]
	}
	bt r0, .LBB7_44
.Ltmp352:
# BB#42:                                # %iftrue.i199
.Lxtalabel145:
	#DEBUG_VALUE: _i.i_dfu._SDFUHandler_0.0.HandleDfuRequest:data_buffer_length <- R3
	#DEBUG_VALUE: s <- 0
	.loc	1 62 0                  # C:/Projects/UI-01_sw1_hw1/module_dfu/src/dfu.xc:62:0
.Lxta.call_labels23:
	bl DFUCustomFlashEnable
.Ltmp353:
	.loc	1 63 0                  # C:/Projects/UI-01_sw1_hw1/module_dfu/src/dfu.xc:63:0
.Lxta.call_labels24:
	bl flash_cmd_init
.Ltmp354:
	#DEBUG_VALUE: error <- R0
	bt r0, .LBB7_44
.Ltmp355:
# BB#43:                                # %ifdone3.i200
.Lxtalabel146:
	#DEBUG_VALUE: _i.i_dfu._SDFUHandler_0.0.HandleDfuRequest:data_buffer_length <- R3
	#DEBUG_VALUE: s <- 0
	{
		mkmsk r0, 1
		nop
	}
	.loc	1 398 0                 # C:/Projects/UI-01_sw1_hw1/module_dfu/src/dfu.xc:398:0
	st8 r0, r5[r4]
.Ltmp356:
.LBB7_44:                               # %DFU_OpenFlash.exit202
	#DEBUG_VALUE: _i.i_dfu._SDFUHandler_0.0.HandleDfuRequest:data_buffer_length <- R3
	#DEBUG_VALUE: s <- 0
	.loc	1 400 0                 # C:/Projects/UI-01_sw1_hw1/module_dfu/src/dfu.xc:400:0
.Lxta.call_labels25:
	bl flash_cmd_erase_all
.Ltmp357:
	#DEBUG_VALUE: s <- R0
	.loc	1 402 0                 # C:/Projects/UI-01_sw1_hw1/module_dfu/src/dfu.xc:402:0
	{
		gettime r0
		get r11, id
	}
.Ltmp358:
	.loc	1 403 0                 # C:/Projects/UI-01_sw1_hw1/module_dfu/src/dfu.xc:403:0
	ldaw r1, dp[__timers]
	{
		nop
		ldw r1, r1[r11]
	}
	ldw r2, cp[.LCPI7_2]
	.loc	1 403 0                 # C:/Projects/UI-01_sw1_hw1/module_dfu/src/dfu.xc:403:0
	{
		add r0, r0, r2
		nop
	}
	.loc	1 403 0                 # C:/Projects/UI-01_sw1_hw1/module_dfu/src/dfu.xc:403:0
	{
		setd res[r1], r0
		nop
	}
	.loc	1 403 0                 # C:/Projects/UI-01_sw1_hw1/module_dfu/src/dfu.xc:403:0
	{
		setc res[r1], 9
		nop
	}
	.loc	1 403 0                 # C:/Projects/UI-01_sw1_hw1/module_dfu/src/dfu.xc:403:0
.Lxta.endpoint_labels3:
	{
		in r0, res[r1]
		nop
	}
.Ltmp359:
	#DEBUG_VALUE: _i.i_dfu._SDFUHandler_0.0.HandleDfuRequest:data_buffer_length <- R3
	.loc	1 446 0                 # C:/Projects/UI-01_sw1_hw1/module_dfu/src/dfu.xc:446:0
	stw r4, sp[67]
	bu .LBB7_4
.Ltmp360:
.LBB7_45:                               # %switchcase167
.Lxtalabel147:
	#DEBUG_VALUE: _i.i_dfu._SDFUHandler_0.0.HandleDfuRequest:data_buffer_length <- R3
	{
		ldc r4, 0
		nop
	}
	.loc	1 499 0                 # C:/Projects/UI-01_sw1_hw1/module_dfu/src/dfu.xc:499:0
	stw r4, sp[67]
	ldw r2, cp[.LCPI7_1]
	{
		mkmsk r5, 1
		nop
	}
	bu .LBB7_46
.Ltmp361:
.LBB7_31:
	#DEBUG_VALUE: _i.i_dfu._SDFUHandler_0.0.HandleDfuRequest:data_buffer_length <- R3
	{
		ldc r0, 2
		nop
	}
.Ltmp362:
.LBB7_33:                               # %switchcase89
.Lxtalabel148:
	#DEBUG_VALUE: _i.i_dfu._SDFUHandler_0.0.HandleDfuRequest:data_buffer_length <- R3
	.loc	1 304 0                 # C:/Projects/UI-01_sw1_hw1/module_dfu/src/dfu.xc:304:0
	stw r0, sp[66]
.Ltmp363:
.LBB7_34:                               # %switchcase172
.Lxtalabel149:
	#DEBUG_VALUE: _i.i_dfu._SDFUHandler_0.0.HandleDfuRequest:data_buffer_length <- R3
	{
		ldc r4, 0
		nop
	}
	#DEBUG_VALUE: _i.i_dfu._SDFUHandler_0.0.HandleDfuRequest:data_buffer_length <- R3
	.loc	1 446 0                 # C:/Projects/UI-01_sw1_hw1/module_dfu/src/dfu.xc:446:0
	stw r4, sp[67]
.Ltmp364:
.LBB7_4:
	#DEBUG_VALUE: _i.i_dfu._SDFUHandler_0.0.HandleDfuRequest:data_buffer_length <- R3
	{
		mov r5, r4
		mov r2, r4
	}
.Ltmp365:
.LBB7_46:                               # %switchdone
.Lxtalabel150:
	{
		mov r3, r4
		nop
	}
.LBB7_47:                               # %switchdone
.Lxtalabel151:
.Ltmp366:
	#DEBUG_VALUE: _i.i_dfu._SDFUHandler_0.0.HandleDfuRequest:data_buffer_length <- R3
	.loc	1 525 0                 # C:/Projects/UI-01_sw1_hw1/module_dfu/src/dfu.xc:525:0
	ldw r0, sp[66]
	{
		clre
		nop
	}
	stw r0, sp[77]
	{
		mov r0, r5
		mov r1, r4
	}
	ldw r8, sp[72]                  # 4-byte Folded Reload
	ldw r6, sp[70]                  # 4-byte Folded Reload
	ldw r7, sp[71]                  # 4-byte Folded Reload
	ldw r4, sp[68]                  # 4-byte Folded Reload
	ldw r5, sp[69]                  # 4-byte Folded Reload
	retsp 74
	# RETURN_REG_HOLDER
.Ltmp367:
.LBB7_10:                               # %iftrue.i
.Lxtalabel152:
	#DEBUG_VALUE: _i.i_dfu._SDFUHandler_0.0.HandleDfuRequest:sp <- R1
	#DEBUG_VALUE: _i.i_dfu._SDFUHandler_0.0.HandleDfuRequest:data_buffer_length <- R3
	.loc	1 446 0                 # C:/Projects/UI-01_sw1_hw1/module_dfu/src/dfu.xc:446:0
	{
		add r0, r1, 4
		nop
	}
	{
		nop
		ld16s r5, r0[r4]
	}
	.loc	1 446 0                 # C:/Projects/UI-01_sw1_hw1/module_dfu/src/dfu.xc:446:0
	{
		zext r5, 16
		mkmsk r6, 1
	}
	.loc	1 91 0                  # C:/Projects/UI-01_sw1_hw1/module_dfu/src/dfu.xc:91:0
.Ltmp368:
	stw r6, sp[66]
	.loc	1 93 0                  # C:/Projects/UI-01_sw1_hw1/module_dfu/src/dfu.xc:93:0
	{
		ldc r7, 0
		nop
	}
	ldaw r8, dp[DFU_flash_connected]
	{
		nop
		ld8u r0, r8[r7]
	}
	bt r0, .LBB7_13
.Ltmp369:
# BB#11:                                # %iftrue.i190
.Lxtalabel153:
	#DEBUG_VALUE: _i.i_dfu._SDFUHandler_0.0.HandleDfuRequest:data_buffer_length <- R3
	.loc	1 62 0                  # C:/Projects/UI-01_sw1_hw1/module_dfu/src/dfu.xc:62:0
.Lxta.call_labels26:
	bl DFUCustomFlashEnable
.Ltmp370:
	.loc	1 63 0                  # C:/Projects/UI-01_sw1_hw1/module_dfu/src/dfu.xc:63:0
.Lxta.call_labels27:
	bl flash_cmd_init
.Ltmp371:
	#DEBUG_VALUE: error <- R0
	bt r0, .LBB7_13
.Ltmp372:
# BB#12:                                # %ifdone3.i
.Lxtalabel154:
	#DEBUG_VALUE: _i.i_dfu._SDFUHandler_0.0.HandleDfuRequest:data_buffer_length <- R3
	.loc	1 93 0                  # C:/Projects/UI-01_sw1_hw1/module_dfu/src/dfu.xc:93:0
	st8 r6, r8[r7]
.Ltmp373:
.LBB7_13:                               # %DFU_OpenFlash.exit
	#DEBUG_VALUE: _i.i_dfu._SDFUHandler_0.0.HandleDfuRequest:data_buffer_length <- R3
	ldw r0, cp[.LCPI7_3]
	.loc	1 96 0                  # C:/Projects/UI-01_sw1_hw1/module_dfu/src/dfu.xc:96:0
	mul r0, r5, r0
	.loc	1 96 0                  # C:/Projects/UI-01_sw1_hw1/module_dfu/src/dfu.xc:96:0
	stw r0, dp[DFUResetTimeout]
	.loc	1 99 0                  # C:/Projects/UI-01_sw1_hw1/module_dfu/src/dfu.xc:99:0
	{
		gettime r0
		nop
	}
	.loc	1 99 0                  # C:/Projects/UI-01_sw1_hw1/module_dfu/src/dfu.xc:99:0
	stw r0, dp[DFUTimerStart]
	#DEBUG_VALUE: _i.i_dfu._SDFUHandler_0.0.HandleDfuRequest:data_buffer_length <- R3
.Ltmp374:
	.loc	1 446 0                 # C:/Projects/UI-01_sw1_hw1/module_dfu/src/dfu.xc:446:0
	stw r4, sp[67]
	bu .LBB7_4
.Ltmp375:
.LBB7_23:                               # %switchcase8.i
.Lxtalabel155:
	#DEBUG_VALUE: _i.i_dfu._SDFUHandler_0.0.HandleDfuRequest:data_buffer <- R6
	#DEBUG_VALUE: _i.i_dfu._SDFUHandler_0.0.HandleDfuRequest:data_buffer_length <- R3
	#DEBUG_VALUE: data_out <- [SP+72]
	#DEBUG_VALUE: DFU_GetStatus:request_len <- 0
	#DEBUG_VALUE: timeout <- 0
	{
		ldc r2, 2
		nop
	}
	bu .LBB7_24
.Ltmp376:
.LBB7_22:                               # %switchcase6.i
.Lxtalabel156:
	#DEBUG_VALUE: _i.i_dfu._SDFUHandler_0.0.HandleDfuRequest:data_buffer <- R6
	#DEBUG_VALUE: _i.i_dfu._SDFUHandler_0.0.HandleDfuRequest:data_buffer_length <- R3
	{
		ldc r2, 5
		nop
	}
.Ltmp377:
.LBB7_24:                               # %DFU_GetStatus.exit
.Lxtalabel157:
	.loc	1 284 0                 # C:/Projects/UI-01_sw1_hw1/module_dfu/src/dfu.xc:284:0
	stw r2, sp[66]
.Ltmp378:
.LBB7_25:                               # %DFU_GetStatus.exit
.Lxtalabel158:
	#DEBUG_VALUE: _i.i_dfu._SDFUHandler_0.0.HandleDfuRequest:data_buffer <- R6
	#DEBUG_VALUE: _i.i_dfu._SDFUHandler_0.0.HandleDfuRequest:data_buffer_length <- R3
	#DEBUG_VALUE: data_out <- [SP+72]
	#DEBUG_VALUE: DFU_GetStatus:request_len <- 0
	#DEBUG_VALUE: timeout <- 0
	{
		nop
		stw r2, sp[19]
	}
	.loc	1 466 0                 # C:/Projects/UI-01_sw1_hw1/module_dfu/src/dfu.xc:466:0
	stw r0, sp[67]
.Ltmp379:
	#DEBUG_VALUE: i <- 0
	{
		ldaw r1, sp[18]
		ldc r2, 16
	}
	{
		mov r3, r5
		nop
	}
.Ltmp380:
.LBB7_26:                               # %LoopBody104
                                        # =>This Inner Loop Header: Depth=1
.Lxtalabel159:
	#DEBUG_VALUE: _i.i_dfu._SDFUHandler_0.0.HandleDfuRequest:data_buffer <- R6
	#DEBUG_VALUE: _i.i_dfu._SDFUHandler_0.0.HandleDfuRequest:data_buffer_length <- R3
	#DEBUG_VALUE: data_out <- [SP+72]
	#DEBUG_VALUE: i <- 0
	.loc	1 468 0                 # C:/Projects/UI-01_sw1_hw1/module_dfu/src/dfu.xc:468:0
	{
		lsu r11, r3, r8
		nop
	}
.Ltrap_info15:
	{
		ecallf r11
		nop
	}
	#DEBUG_VALUE: _i.i_dfu._SDFUHandler_0.0.HandleDfuRequest:data_buffer <- R6
	#DEBUG_VALUE: _i.i_dfu._SDFUHandler_0.0.HandleDfuRequest:data_buffer_length <- R3
	#DEBUG_VALUE: data_out <- [SP+72]
	#DEBUG_VALUE: i <- 0
	{
		nop
		ldw r11, r1[r3]
	}
	.loc	1 468 0                 # C:/Projects/UI-01_sw1_hw1/module_dfu/src/dfu.xc:468:0
	stw r11, r6[r3]
	.loc	1 467 0                 # C:/Projects/UI-01_sw1_hw1/module_dfu/src/dfu.xc:467:0
	{
		add r3, r3, 1
		nop
	}
.Ltmp381:
	#DEBUG_VALUE: i <- R3
	.loc	1 467 0                 # C:/Projects/UI-01_sw1_hw1/module_dfu/src/dfu.xc:467:0
	{
		lss r11, r3, r2
		nop
	}
.Lxta.loop_labels15:
	# LOOPMARKER 1
	bt r11, .LBB7_26
.Ltmp382:
# BB#27:
	#DEBUG_VALUE: _i.i_dfu._SDFUHandler_0.0.HandleDfuRequest:data_buffer_length <- R3
	{
		mov r4, r0
		nop
	}
.Ltmp383:
.LBB7_40:
	#DEBUG_VALUE: _i.i_dfu._SDFUHandler_0.0.HandleDfuRequest:data_buffer_length <- R3
	{
		mov r2, r5
		mov r3, r5
	}
.Ltmp384:
	bu .LBB7_47
	.cc_bottom _i.i_dfu._SDFUHandler_0.0.HandleDfuRequest.function
	.set	_i.i_dfu._SDFUHandler_0.0.HandleDfuRequest.nstackwords,((DFU_Dnload.nstackwords $M DFU_Upload.nstackwords $M flash_cmd_erase_all.nstackwords $M DFUCustomFlashEnable.nstackwords $M flash_cmd_init.nstackwords) + 74)
	.globl	_i.i_dfu._SDFUHandler_0.0.HandleDfuRequest.nstackwords
	.set	_i.i_dfu._SDFUHandler_0.0.HandleDfuRequest.maxcores,DFUCustomFlashEnable.maxcores $M DFU_Dnload.maxcores $M DFU_Upload.maxcores $M flash_cmd_erase_all.maxcores $M flash_cmd_init.maxcores $M 1
	.globl	_i.i_dfu._SDFUHandler_0.0.HandleDfuRequest.maxcores
	.set	_i.i_dfu._SDFUHandler_0.0.HandleDfuRequest.maxtimers,DFUCustomFlashEnable.maxtimers $M DFU_Dnload.maxtimers $M DFU_Upload.maxtimers $M flash_cmd_erase_all.maxtimers $M flash_cmd_init.maxtimers $M 0
	.globl	_i.i_dfu._SDFUHandler_0.0.HandleDfuRequest.maxtimers
	.set	_i.i_dfu._SDFUHandler_0.0.HandleDfuRequest.maxchanends,DFUCustomFlashEnable.maxchanends $M DFU_Dnload.maxchanends $M DFU_Upload.maxchanends $M flash_cmd_erase_all.maxchanends $M flash_cmd_init.maxchanends $M 0
	.globl	_i.i_dfu._SDFUHandler_0.0.HandleDfuRequest.maxchanends
.Ltmp385:
	.size	_i.i_dfu._SDFUHandler_0.0.HandleDfuRequest, .Ltmp385-_i.i_dfu._SDFUHandler_0.0.HandleDfuRequest
.Lfunc_end7:
	.cfi_endproc

	.weak	_i.i_dfu._chan.finish
	.align	4
	.type	_i.i_dfu._chan.finish,@function
	.cc_top _i.i_dfu._chan.finish.function,_i.i_dfu._chan.finish
_i.i_dfu._chan.finish:                  # @_i.i_dfu._chan.finish
	.cfi_startproc
	.issue_mode dual
# BB#0:                                 # %allocas
	#DEBUG_VALUE: _i.i_dfu._chan.finish:dest <- R0
	{
		getr r1, 2
		dualentsp 0
	}
	{
		setd res[r1], r0
		add r0, r1, 1
	}
	{
		out res[r1], r0
		nop
	}
	{
		outct res[r1], 2
		nop
	}
	{
		in r0, res[r1]
		nop
	}
	{
		chkct res[r1], 1
		nop
	}
	{
		freer res[r1]
		retsp 0
	}
	# RETURN_REG_HOLDER
	.cc_bottom _i.i_dfu._chan.finish.function
	.set	_i.i_dfu._chan.finish.nstackwords,0
	.globl	_i.i_dfu._chan.finish.nstackwords
	.weak	_i.i_dfu._chan.finish.nstackwords
	.set	_i.i_dfu._chan.finish.maxcores,1
	.globl	_i.i_dfu._chan.finish.maxcores
	.weak	_i.i_dfu._chan.finish.maxcores
	.set	_i.i_dfu._chan.finish.maxtimers,0
	.globl	_i.i_dfu._chan.finish.maxtimers
	.weak	_i.i_dfu._chan.finish.maxtimers
	.set	_i.i_dfu._chan.finish.maxchanends,1
	.globl	_i.i_dfu._chan.finish.maxchanends
	.weak	_i.i_dfu._chan.finish.maxchanends
.Ltmp386:
	.size	_i.i_dfu._chan.finish, .Ltmp386-_i.i_dfu._chan.finish
	.cfi_endproc

	.weak	_i.i_dfu._chan.HandleDfuRequest
	.align	4
	.type	_i.i_dfu._chan.HandleDfuRequest,@function
	.cc_top _i.i_dfu._chan.HandleDfuRequest.function,_i.i_dfu._chan.HandleDfuRequest
_i.i_dfu._chan.HandleDfuRequest:        # @_i.i_dfu._chan.HandleDfuRequest
	.cfi_startproc
	.issue_mode dual
# BB#0:                                 # %allocas
	{
		nop
		dualentsp 6
	}
.Ltmp387:
	.cfi_def_cfa_offset 24
.Ltmp388:
	.cfi_offset 15, 0
	std r5, r4, sp[2]               # 4-byte Folded Spill
.Ltmp389:
	.cfi_offset 4, -8
.Ltmp390:
	.cfi_offset 5, -4
	#DEBUG_VALUE: _i.i_dfu._chan.HandleDfuRequest:dest <- R0
	#DEBUG_VALUE: _i.i_dfu._chan.HandleDfuRequest:param1 <- R1
	#DEBUG_VALUE: _i.i_dfu._chan.HandleDfuRequest:param2 <- R2
	#DEBUG_VALUE: _i.i_dfu._chan.HandleDfuRequest:param3 <- R3
	#DEBUG_VALUE: _i.i_dfu._chan.HandleDfuRequest:param4 <- [SP+28]
	{
		nop
		ldw r11, sp[7]
	}
	{
		getr r4, 2
		ldw r5, sp[8]
	}
	{
		setd res[r4], r0
		nop
	}
	{
		out res[r4], r4
		nop
	}
	{
		outct res[r4], 2
		nop
	}
	{
		chkct res[r4], 1
		stw r1, sp[2]
	}
	{
		out res[r4], r5
		stw r2, sp[3]
	}
	{
		out res[r4], r3
		nop
	}
	{
		out res[r4], r11
		nop
	}
	{
		outct res[r4], 2
		ldaw r1, sp[2]
	}
	{
		mov r0, r4
		nop
	}
	bl __interface_client_call
	{
		in r0, res[r4]
		nop
	}
	{
		in r1, res[r4]
		nop
	}
	{
		in r2, res[r4]
		nop
	}
	{
		in r3, res[r4]
		nop
	}
	{
		in r11, res[r4]
		nop
	}
	{
		chkct res[r4], 1
		nop
	}
	{
		freer res[r4]
		stw r11, sp[9]
	}
	ldd r5, r4, sp[2]               # 4-byte Folded Reload
	{
		nop
		retsp 6
	}
	# RETURN_REG_HOLDER
	.cc_bottom _i.i_dfu._chan.HandleDfuRequest.function
	.set	_i.i_dfu._chan.HandleDfuRequest.nstackwords,(__interface_client_call.nstackwords + 6)
	.globl	_i.i_dfu._chan.HandleDfuRequest.nstackwords
	.weak	_i.i_dfu._chan.HandleDfuRequest.nstackwords
	.set	_i.i_dfu._chan.HandleDfuRequest.maxcores,__interface_client_call.maxcores $M 1
	.globl	_i.i_dfu._chan.HandleDfuRequest.maxcores
	.weak	_i.i_dfu._chan.HandleDfuRequest.maxcores
	.set	_i.i_dfu._chan.HandleDfuRequest.maxtimers,__interface_client_call.maxtimers $M 0
	.globl	_i.i_dfu._chan.HandleDfuRequest.maxtimers
	.weak	_i.i_dfu._chan.HandleDfuRequest.maxtimers
	.set	_i.i_dfu._chan.HandleDfuRequest.maxchanends,(1 + __interface_client_call.maxchanends) $M 1
	.globl	_i.i_dfu._chan.HandleDfuRequest.maxchanends
	.weak	_i.i_dfu._chan.HandleDfuRequest.maxchanends
.Ltmp391:
	.size	_i.i_dfu._chan.HandleDfuRequest, .Ltmp391-_i.i_dfu._chan.HandleDfuRequest
	.cfi_endproc

	.weak	_i.i_dfu._chan_yield.finish
	.align	4
	.type	_i.i_dfu._chan_yield.finish,@function
	.cc_top _i.i_dfu._chan_yield.finish.function,_i.i_dfu._chan_yield.finish
_i.i_dfu._chan_yield.finish:            # @_i.i_dfu._chan_yield.finish
	.cfi_startproc
	.issue_mode dual
# BB#0:                                 # %allocas
	{
		nop
		dualentsp 4
	}
.Ltmp392:
	.cfi_def_cfa_offset 16
.Ltmp393:
	.cfi_offset 15, 0
	{
		nop
		stw r4, sp[2]
	}
.Ltmp394:
	.cfi_offset 4, -8
	#DEBUG_VALUE: _i.i_dfu._chan_yield.finish:s <- R0
	{
		getr r4, 2
		ldw r1, r0[0]
	}
	{
		setd res[r4], r1
		add r1, r4, 1
	}
	{
		out res[r4], r1
		nop
	}
	{
		outct res[r4], 2
		ldw r2, r0[1]
	}
	{
		ldc r1, 0
		mov r0, r4
	}
	bl __interface_client_call_y
	{
		chkct res[r4], 1
		nop
	}
	{
		freer res[r4]
		ldw r4, sp[2]
	}
	{
		nop
		retsp 4
	}
	# RETURN_REG_HOLDER
	.cc_bottom _i.i_dfu._chan_yield.finish.function
	.set	_i.i_dfu._chan_yield.finish.nstackwords,((_i.i_dfu._client_call_y.max.nstackwords $M ($D __interface_client_call_y.nstackwords ? __interface_client_call_y.nstackwords $: _i.i_dfu._client_call_y.max.nstackwords)) + 4)
	.globl	_i.i_dfu._chan_yield.finish.nstackwords
	.weak	_i.i_dfu._chan_yield.finish.nstackwords
	.set	_i.i_dfu._chan_yield.finish.maxcores,($D __interface_client_call_y.maxcores ? __interface_client_call_y.maxcores $: _i.i_dfu._client_call_y.max.maxcores) $M 1
	.globl	_i.i_dfu._chan_yield.finish.maxcores
	.weak	_i.i_dfu._chan_yield.finish.maxcores
	.set	_i.i_dfu._chan_yield.finish.maxtimers,($D __interface_client_call_y.maxtimers ? __interface_client_call_y.maxtimers $: _i.i_dfu._client_call_y.max.maxtimers) $M 0
	.globl	_i.i_dfu._chan_yield.finish.maxtimers
	.weak	_i.i_dfu._chan_yield.finish.maxtimers
	.set	_i.i_dfu._chan_yield.finish.maxchanends,(1 + ($D __interface_client_call_y.maxchanends ? __interface_client_call_y.maxchanends $: _i.i_dfu._client_call_y.max.maxchanends)) $M 1
	.globl	_i.i_dfu._chan_yield.finish.maxchanends
	.weak	_i.i_dfu._chan_yield.finish.maxchanends
.Ltmp395:
	.size	_i.i_dfu._chan_yield.finish, .Ltmp395-_i.i_dfu._chan_yield.finish
	.cfi_endproc

	.weak	_i.i_dfu._chan_yield.HandleDfuRequest
	.align	4
	.type	_i.i_dfu._chan_yield.HandleDfuRequest,@function
	.cc_top _i.i_dfu._chan_yield.HandleDfuRequest.function,_i.i_dfu._chan_yield.HandleDfuRequest
_i.i_dfu._chan_yield.HandleDfuRequest:  # @_i.i_dfu._chan_yield.HandleDfuRequest
	.cfi_startproc
	.issue_mode dual
# BB#0:                                 # %allocas
	{
		nop
		dualentsp 8
	}
.Ltmp396:
	.cfi_def_cfa_offset 32
.Ltmp397:
	.cfi_offset 15, 0
	std r5, r4, sp[2]               # 4-byte Folded Spill
.Ltmp398:
	.cfi_offset 4, -16
.Ltmp399:
	.cfi_offset 5, -12
	{
		nop
		stw r6, sp[6]
	}
.Ltmp400:
	.cfi_offset 6, -8
	#DEBUG_VALUE: _i.i_dfu._chan_yield.HandleDfuRequest:s <- R0
	#DEBUG_VALUE: _i.i_dfu._chan_yield.HandleDfuRequest:param1 <- R1
	#DEBUG_VALUE: _i.i_dfu._chan_yield.HandleDfuRequest:param2 <- R2
	#DEBUG_VALUE: _i.i_dfu._chan_yield.HandleDfuRequest:param3 <- R3
	#DEBUG_VALUE: _i.i_dfu._chan_yield.HandleDfuRequest:param4 <- [SP+36]
	{
		nop
		ldw r11, sp[9]
	}
	{
		nop
		ldw r5, sp[10]
	}
	{
		getr r4, 2
		ldw r6, r0[0]
	}
	{
		setd res[r4], r6
		nop
	}
	{
		out res[r4], r4
		nop
	}
	{
		outct res[r4], 2
		nop
	}
	{
		chkct res[r4], 1
		stw r1, sp[2]
	}
	{
		out res[r4], r5
		stw r2, sp[3]
	}
	{
		out res[r4], r3
		nop
	}
	{
		out res[r4], r11
		nop
	}
	{
		outct res[r4], 2
		ldw r2, r0[1]
	}
	{
		ldaw r1, sp[2]
		mov r0, r4
	}
	bl __interface_client_call_y
	{
		in r0, res[r4]
		nop
	}
	{
		in r1, res[r4]
		nop
	}
	{
		in r2, res[r4]
		nop
	}
	{
		in r3, res[r4]
		nop
	}
	{
		in r11, res[r4]
		nop
	}
	{
		chkct res[r4], 1
		nop
	}
	{
		freer res[r4]
		stw r11, sp[11]
	}
	{
		nop
		ldw r6, sp[6]
	}
	ldd r5, r4, sp[2]               # 4-byte Folded Reload
	{
		nop
		retsp 8
	}
	# RETURN_REG_HOLDER
	.cc_bottom _i.i_dfu._chan_yield.HandleDfuRequest.function
	.set	_i.i_dfu._chan_yield.HandleDfuRequest.nstackwords,((_i.i_dfu._client_call_y.max.nstackwords $M ($D __interface_client_call_y.nstackwords ? __interface_client_call_y.nstackwords $: _i.i_dfu._client_call_y.max.nstackwords)) + 8)
	.globl	_i.i_dfu._chan_yield.HandleDfuRequest.nstackwords
	.weak	_i.i_dfu._chan_yield.HandleDfuRequest.nstackwords
	.set	_i.i_dfu._chan_yield.HandleDfuRequest.maxcores,($D __interface_client_call_y.maxcores ? __interface_client_call_y.maxcores $: _i.i_dfu._client_call_y.max.maxcores) $M 1
	.globl	_i.i_dfu._chan_yield.HandleDfuRequest.maxcores
	.weak	_i.i_dfu._chan_yield.HandleDfuRequest.maxcores
	.set	_i.i_dfu._chan_yield.HandleDfuRequest.maxtimers,($D __interface_client_call_y.maxtimers ? __interface_client_call_y.maxtimers $: _i.i_dfu._client_call_y.max.maxtimers) $M 0
	.globl	_i.i_dfu._chan_yield.HandleDfuRequest.maxtimers
	.weak	_i.i_dfu._chan_yield.HandleDfuRequest.maxtimers
	.set	_i.i_dfu._chan_yield.HandleDfuRequest.maxchanends,(1 + ($D __interface_client_call_y.maxchanends ? __interface_client_call_y.maxchanends $: _i.i_dfu._client_call_y.max.maxchanends)) $M 1
	.globl	_i.i_dfu._chan_yield.HandleDfuRequest.maxchanends
	.weak	_i.i_dfu._chan_yield.HandleDfuRequest.maxchanends
.Ltmp401:
	.size	_i.i_dfu._chan_yield.HandleDfuRequest, .Ltmp401-_i.i_dfu._chan_yield.HandleDfuRequest
	.cfi_endproc

	.globl	DFUDelay
	.align	4
	.type	DFUDelay,@function
	.cc_top DFUDelay.function,DFUDelay
DFUDelay:                               # @DFUDelay
.Lfunc_begin12:
	.loc	1 49 0                  # C:/Projects/UI-01_sw1_hw1/module_dfu/src/dfu.xc:49:0
	.cfi_startproc
	.issue_mode dual
# BB#0:                                 # %allocas
.Lxtalabel160:
	#DEBUG_VALUE: DFUDelay:d <- R0
	#DEBUG_VALUE: s <- R1
	{
		gettime r1
		dualentsp 0
	}
.Ltmp402:
	.loc	1 53 0 prologue_end     # C:/Projects/UI-01_sw1_hw1/module_dfu/src/dfu.xc:53:0
	{
		get r11, id
		nop
	}
	.loc	1 53 0                  # C:/Projects/UI-01_sw1_hw1/module_dfu/src/dfu.xc:53:0
	ldaw r2, dp[__timers]
	.loc	1 53 0                  # C:/Projects/UI-01_sw1_hw1/module_dfu/src/dfu.xc:53:0
	{
		add r0, r1, r0
		ldw r2, r2[r11]
	}
.Ltmp403:
	.loc	1 53 0                  # C:/Projects/UI-01_sw1_hw1/module_dfu/src/dfu.xc:53:0
	{
		setd res[r2], r0
		nop
	}
	.loc	1 53 0                  # C:/Projects/UI-01_sw1_hw1/module_dfu/src/dfu.xc:53:0
	{
		setc res[r2], 9
		nop
	}
	.loc	1 53 0                  # C:/Projects/UI-01_sw1_hw1/module_dfu/src/dfu.xc:53:0
.Ltmp404:
.Lxta.endpoint_labels4:
	{
		in r0, res[r2]
		retsp 0
	}
	# RETURN_REG_HOLDER
.Ltmp405:
	.cc_bottom DFUDelay.function
	.set	DFUDelay.nstackwords,0
	.globl	DFUDelay.nstackwords
	.set	DFUDelay.maxcores,1
	.globl	DFUDelay.maxcores
	.set	DFUDelay.maxtimers,0
	.globl	DFUDelay.maxtimers
	.set	DFUDelay.maxchanends,0
	.globl	DFUDelay.maxchanends
.Ltmp406:
	.size	DFUDelay, .Ltmp406-DFUDelay
.Lfunc_end12:
	.cfi_endproc

	.align	4
	.type	DFU_Dnload,@function
	.cc_top DFU_Dnload.function,DFU_Dnload
DFU_Dnload:                             # @DFU_Dnload
.Lfunc_begin13:
	.loc	1 109 0                 # C:/Projects/UI-01_sw1_hw1/module_dfu/src/dfu.xc:109:0
	.cfi_startproc
	.issue_mode dual
# BB#0:                                 # %allocas
.Lxtalabel161:
	{
		nop
		dualentsp 56
	}
.Ltmp407:
	.cfi_def_cfa_offset 224
.Ltmp408:
	.cfi_offset 15, 0
	{
		nop
		stw r4, sp[50]
	}
	{
		nop
		stw r5, sp[51]
	}
.Ltmp409:
	.cfi_offset 4, -24
.Ltmp410:
	.cfi_offset 5, -20
	{
		nop
		stw r6, sp[52]
	}
	{
		nop
		stw r7, sp[53]
	}
.Ltmp411:
	.cfi_offset 6, -16
.Ltmp412:
	.cfi_offset 7, -12
	{
		nop
		stw r8, sp[54]
	}
.Ltmp413:
	.cfi_offset 8, -8
.Ltmp414:
	.cfi_offset 9, -4
	{
		mov r4, r2
		stw r9, sp[55]
	}
.Ltmp415:
	#DEBUG_VALUE: fromDfuIdle <- 0
	{
		mov r5, r1
		mov r6, r0
	}
	.loc	1 118 5 prologue_end    # C:/Projects/UI-01_sw1_hw1/module_dfu/src/dfu.xc:118:5
.Ltmp416:
	{
		ldc r8, 0
		nop
	}
	{
		nop
		stw r8, r3[0]
	}
	ldaw r7, dp[DFU_flash_connected]
	{
		nop
		ld8u r0, r7[r8]
	}
	bt r0, .LBB13_3
# BB#1:                                 # %iftrue.i
.Lxtalabel162:
	#DEBUG_VALUE: fromDfuIdle <- 0
	.loc	1 62 0                  # C:/Projects/UI-01_sw1_hw1/module_dfu/src/dfu.xc:62:0
.Ltmp417:
.Lxta.call_labels28:
	bl DFUCustomFlashEnable
	.loc	1 63 0                  # C:/Projects/UI-01_sw1_hw1/module_dfu/src/dfu.xc:63:0
.Ltmp418:
.Lxta.call_labels29:
	bl flash_cmd_init
.Ltmp419:
	#DEBUG_VALUE: error <- R0
	bt r0, .LBB13_20
.Ltmp420:
# BB#2:                                 # %ifdone3.i
.Lxtalabel163:
	#DEBUG_VALUE: fromDfuIdle <- 0
	{
		mkmsk r0, 1
		nop
	}
	.loc	1 118 5                 # C:/Projects/UI-01_sw1_hw1/module_dfu/src/dfu.xc:118:5
	st8 r0, r7[r8]
.LBB13_3:                               # %ifdone
.Lxtalabel164:
	#DEBUG_VALUE: fromDfuIdle <- 0
	{
		nop
		ldw r7, sp[57]
	}
	{
		nop
		ldw r0, r7[0]
	}
	.loc	1 123 0                 # C:/Projects/UI-01_sw1_hw1/module_dfu/src/dfu.xc:123:0
	{
		eq r9, r0, 2
		nop
	}
	bt r9, .LBB13_6
# BB#4:                                 # %ifdone
.Lxtalabel165:
	{
		eq r0, r0, 5
		nop
	}
	bf r0, .LBB13_5
.LBB13_6:                               # %switchcase1
.Lxtalabel166:
	#DEBUG_VALUE: fromDfuIdle <- 0
	bf r9, .LBB13_8
# BB#7:                                 # %switchcase1
.Lxtalabel167:
	bt r6, .LBB13_8
.LBB13_5:                               # %switchdefault
.Lxtalabel168:
	{
		ldc r0, 10
		nop
	}
	.loc	1 129 0                 # C:/Projects/UI-01_sw1_hw1/module_dfu/src/dfu.xc:129:0
	{
		mkmsk r0, 1
		stw r0, r7[0]
	}
	bu .LBB13_20
.LBB13_8:                               # %iffalse.critedge
.Lxtalabel169:
	#DEBUG_VALUE: fromDfuIdle <- 0
	.loc	1 147 5                 # C:/Projects/UI-01_sw1_hw1/module_dfu/src/dfu.xc:147:5
	bf r6, .LBB13_9
# BB#13:                                # %iffalse27
.Lxtalabel170:
	#DEBUG_VALUE: fromDfuIdle <- 0
.Ltmp421:
	#DEBUG_VALUE: i <- 0
	#DEBUG_VALUE: flash_cmd <- 0
	#DEBUG_VALUE: flash_page_index <- 0
	#DEBUG_VALUE: cmd_data <- [SP+8]
	bf r9, .LBB13_15
.Ltmp422:
# BB#14:                                # %iftrue47
.Lxtalabel171:
	#DEBUG_VALUE: fromDfuIdle <- 0
	#DEBUG_VALUE: i <- 0
	#DEBUG_VALUE: flash_cmd <- 0
	#DEBUG_VALUE: flash_page_index <- 0
	#DEBUG_VALUE: cmd_data <- [SP+8]
	#DEBUG_VALUE: s <- 0
	.loc	1 178 0                 # C:/Projects/UI-01_sw1_hw1/module_dfu/src/dfu.xc:178:0
.Lxta.call_labels30:
	bl flash_cmd_erase_all
.Ltmp423:
.LBB13_15:                              # %ifdone48
.Lxtalabel172:
	#DEBUG_VALUE: fromDfuIdle <- 0
	#DEBUG_VALUE: i <- 0
	#DEBUG_VALUE: flash_cmd <- 0
	#DEBUG_VALUE: flash_page_index <- 0
	#DEBUG_VALUE: cmd_data <- [SP+8]
	.loc	1 182 9                 # C:/Projects/UI-01_sw1_hw1/module_dfu/src/dfu.xc:182:9
	{
		zext r5, 2
		nop
	}
	bt r5, .LBB13_17
.Ltmp424:
# BB#16:                                # %iftrue50
.Lxtalabel173:
	#DEBUG_VALUE: fromDfuIdle <- 0
	#DEBUG_VALUE: i <- 0
	#DEBUG_VALUE: flash_cmd <- 0
	#DEBUG_VALUE: flash_page_index <- 0
	#DEBUG_VALUE: cmd_data <- [SP+8]
	{
		mkmsk r0, 1
		nop
	}
	.loc	1 184 0                 # C:/Projects/UI-01_sw1_hw1/module_dfu/src/dfu.xc:184:0
	xor r0, r9, r0
	.loc	1 184 0                 # C:/Projects/UI-01_sw1_hw1/module_dfu/src/dfu.xc:184:0
	{
		ldaw r0, sp[2]
		stw r0, sp[2]
	}
	ldc r1, 64
	.loc	1 185 0                 # C:/Projects/UI-01_sw1_hw1/module_dfu/src/dfu.xc:185:0
.Lxta.call_labels31:
	bl flash_cmd_write_page
	{
		ldc r0, 4
		nop
	}
	.loc	1 186 0                 # C:/Projects/UI-01_sw1_hw1/module_dfu/src/dfu.xc:186:0
	stw r0, dp[subPagesLeft]
.Ltmp425:
.LBB13_17:                              # %afterboundcheck71
                                        # =>This Inner Loop Header: Depth=1
.Lxtalabel174:
	#DEBUG_VALUE: fromDfuIdle <- 0
	#DEBUG_VALUE: i <- 0
	#DEBUG_VALUE: flash_cmd <- 0
	#DEBUG_VALUE: flash_page_index <- 0
	#DEBUG_VALUE: cmd_data <- [SP+8]
	.loc	1 191 0                 # C:/Projects/UI-01_sw1_hw1/module_dfu/src/dfu.xc:191:0
	{
		ldaw r1, sp[2]
		ldw r0, r4[r8]
	}
	.loc	1 191 0                 # C:/Projects/UI-01_sw1_hw1/module_dfu/src/dfu.xc:191:0
	stw r0, r1[r8]
	.loc	1 189 0                 # C:/Projects/UI-01_sw1_hw1/module_dfu/src/dfu.xc:189:0
	{
		add r8, r8, 1
		nop
	}
.Ltmp426:
	#DEBUG_VALUE: i <- R8
	.loc	1 189 0                 # C:/Projects/UI-01_sw1_hw1/module_dfu/src/dfu.xc:189:0
	{
		shr r0, r8, 4
		nop
	}
.Lxta.loop_labels16:
	# LOOPMARKER 0
	.loc	1 189 0                 # C:/Projects/UI-01_sw1_hw1/module_dfu/src/dfu.xc:189:0
	bf r0, .LBB13_17
.Ltmp427:
# BB#18:                                # %ifdone60
.Lxtalabel175:
	#DEBUG_VALUE: fromDfuIdle <- 0
	#DEBUG_VALUE: flash_cmd <- 0
	#DEBUG_VALUE: flash_page_index <- 0
	#DEBUG_VALUE: cmd_data <- [SP+8]
	{
		ldaw r0, sp[2]
		nop
	}
	ldc r1, 64
	.loc	1 194 0                 # C:/Projects/UI-01_sw1_hw1/module_dfu/src/dfu.xc:194:0
.Lxta.call_labels32:
	bl flash_cmd_write_page_data
	.loc	1 195 0                 # C:/Projects/UI-01_sw1_hw1/module_dfu/src/dfu.xc:195:0
	ldw r0, dp[subPagesLeft]
	.loc	1 195 0                 # C:/Projects/UI-01_sw1_hw1/module_dfu/src/dfu.xc:195:0
	{
		sub r0, r0, 1
		nop
	}
	.loc	1 195 0                 # C:/Projects/UI-01_sw1_hw1/module_dfu/src/dfu.xc:195:0
	stw r0, dp[subPagesLeft]
	{
		mkmsk r0, 2
		nop
	}
	bu .LBB13_19
.Ltmp428:
.LBB13_9:                               # %iftrue21
.Lxtalabel176:
	#DEBUG_VALUE: fromDfuIdle <- 0
	#DEBUG_VALUE: i <- 0
	#DEBUG_VALUE: cmd_data <- [SP+136]
	.loc	1 152 9                 # C:/Projects/UI-01_sw1_hw1/module_dfu/src/dfu.xc:152:9
	ldw r0, dp[subPagesLeft]
	bf r0, .LBB13_12
.Ltmp429:
# BB#10:                                # %LoopBody.preheader
.Lxtalabel177:
	#DEBUG_VALUE: fromDfuIdle <- 0
	#DEBUG_VALUE: i <- 0
	#DEBUG_VALUE: cmd_data <- [SP+136]
	#DEBUG_VALUE: subPagePad <- [SP+72]
	{
		ldaw r4, sp[18]
		ldc r5, 0
	}
	ldc r6, 64
	.loc	1 154 0                 # C:/Projects/UI-01_sw1_hw1/module_dfu/src/dfu.xc:154:0
.Ltmp430:
	{
		mov r0, r4
		mov r1, r5
	}
	{
		mov r2, r6
		nop
	}
	bl memset
.Ltmp431:
.LBB13_11:                              # %LoopBody
                                        # =>This Inner Loop Header: Depth=1
.Lxtalabel178:
	#DEBUG_VALUE: fromDfuIdle <- 0
	#DEBUG_VALUE: i <- 0
	#DEBUG_VALUE: cmd_data <- [SP+136]
	#DEBUG_VALUE: subPagePad <- [SP+72]
	.loc	1 157 0                 # C:/Projects/UI-01_sw1_hw1/module_dfu/src/dfu.xc:157:0
	{
		mov r0, r4
		mov r1, r6
	}
.Lxta.call_labels33:
	bl flash_cmd_write_page_data
	.loc	1 155 0                 # C:/Projects/UI-01_sw1_hw1/module_dfu/src/dfu.xc:155:0
	{
		add r5, r5, 1
		nop
	}
.Ltmp432:
	#DEBUG_VALUE: i <- R5
	.loc	1 155 0                 # C:/Projects/UI-01_sw1_hw1/module_dfu/src/dfu.xc:155:0
	ldw r0, dp[subPagesLeft]
	.loc	1 155 0                 # C:/Projects/UI-01_sw1_hw1/module_dfu/src/dfu.xc:155:0
	{
		lsu r0, r5, r0
		nop
	}
.Lxta.loop_labels17:
	# LOOPMARKER 1
	bt r0, .LBB13_11
.Ltmp433:
.LBB13_12:                              # %ifdone29
.Lxtalabel179:
	#DEBUG_VALUE: fromDfuIdle <- 0
	#DEBUG_VALUE: i <- 0
	#DEBUG_VALUE: cmd_data <- [SP+136]
	{
		ldc r0, 2
		nop
	}
	.loc	1 161 0                 # C:/Projects/UI-01_sw1_hw1/module_dfu/src/dfu.xc:161:0
	{
		ldaw r0, sp[34]
		stw r0, sp[34]
	}
	ldc r1, 64
	.loc	1 162 0                 # C:/Projects/UI-01_sw1_hw1/module_dfu/src/dfu.xc:162:0
.Lxta.call_labels34:
	bl flash_cmd_write_page
	{
		ldc r0, 6
		nop
	}
.Ltmp434:
.LBB13_19:                              # %ifdone22
.Lxtalabel180:
	#DEBUG_VALUE: fromDfuIdle <- 0
	.loc	1 197 0                 # C:/Projects/UI-01_sw1_hw1/module_dfu/src/dfu.xc:197:0
	{
		ldc r0, 0
		stw r0, r7[0]
	}
.Ltmp435:
.LBB13_20:                              # %return
	{
		nop
		ldw r8, sp[54]
	}
	{
		nop
		ldw r9, sp[55]
	}
	{
		nop
		ldw r6, sp[52]
	}
	{
		nop
		ldw r7, sp[53]
	}
	{
		nop
		ldw r4, sp[50]
	}
	{
		nop
		ldw r5, sp[51]
	}
	{
		nop
		retsp 56
	}
	# RETURN_REG_HOLDER
	.cc_bottom DFU_Dnload.function
	.set	DFU_Dnload.nstackwords,((memset.nstackwords $M flash_cmd_erase_all.nstackwords $M flash_cmd_write_page.nstackwords $M flash_cmd_write_page_data.nstackwords $M DFUCustomFlashEnable.nstackwords $M flash_cmd_init.nstackwords) + 56)
	.set	DFU_Dnload.maxcores,DFUCustomFlashEnable.maxcores $M flash_cmd_erase_all.maxcores $M flash_cmd_init.maxcores $M flash_cmd_write_page.maxcores $M flash_cmd_write_page_data.maxcores $M 1
	.set	DFU_Dnload.maxtimers,DFUCustomFlashEnable.maxtimers $M flash_cmd_erase_all.maxtimers $M flash_cmd_init.maxtimers $M flash_cmd_write_page.maxtimers $M flash_cmd_write_page_data.maxtimers $M 0
	.set	DFU_Dnload.maxchanends,DFUCustomFlashEnable.maxchanends $M flash_cmd_erase_all.maxchanends $M flash_cmd_init.maxchanends $M flash_cmd_write_page.maxchanends $M flash_cmd_write_page_data.maxchanends $M 0
.Ltmp436:
	.size	DFU_Dnload, .Ltmp436-DFU_Dnload
.Lfunc_end13:
	.cfi_endproc

	.align	4
	.type	DFU_Upload,@function
	.cc_top DFU_Upload.function,DFU_Upload
DFU_Upload:                             # @DFU_Upload
.Lfunc_begin14:
	.loc	1 205 0                 # C:/Projects/UI-01_sw1_hw1/module_dfu/src/dfu.xc:205:0
	.cfi_startproc
	.issue_mode dual
# BB#0:                                 # %allocas
.Lxtalabel181:
	{
		nop
		dualentsp 24
	}
.Ltmp437:
	.cfi_def_cfa_offset 96
.Ltmp438:
	.cfi_offset 15, 0
	std r5, r4, sp[9]               # 4-byte Folded Spill
.Ltmp439:
	.cfi_offset 4, -24
.Ltmp440:
	.cfi_offset 5, -20
	std r7, r6, sp[10]              # 4-byte Folded Spill
.Ltmp441:
	.cfi_offset 6, -16
.Ltmp442:
	.cfi_offset 7, -12
.Ltmp443:
	.cfi_offset 8, -8
	{
		mov r4, r2
		stw r8, sp[22]
	}
.Ltmp444:
	#DEBUG_VALUE: firstRead <- 0
	#DEBUG_VALUE: DFU_Upload:block_num <- 0
	{
		mov r5, r1
		mov r7, r0
	}
	.loc	1 212 0 prologue_end    # C:/Projects/UI-01_sw1_hw1/module_dfu/src/dfu.xc:212:0
.Ltmp445:
	{
		ldc r6, 0
		nop
	}
	ldaw r8, dp[DFU_flash_connected]
	{
		nop
		ld8u r0, r8[r6]
	}
	bt r0, .LBB14_3
# BB#1:                                 # %iftrue.i
.Lxtalabel182:
	#DEBUG_VALUE: DFU_Upload:block_num <- 0
	#DEBUG_VALUE: firstRead <- 0
	.loc	1 62 0                  # C:/Projects/UI-01_sw1_hw1/module_dfu/src/dfu.xc:62:0
.Ltmp446:
.Lxta.call_labels35:
	bl DFUCustomFlashEnable
	.loc	1 63 0                  # C:/Projects/UI-01_sw1_hw1/module_dfu/src/dfu.xc:63:0
.Ltmp447:
.Lxta.call_labels36:
	bl flash_cmd_init
.Ltmp448:
	#DEBUG_VALUE: error <- R0
	bt r0, .LBB14_3
.Ltmp449:
# BB#2:                                 # %ifdone3.i
.Lxtalabel183:
	#DEBUG_VALUE: DFU_Upload:block_num <- 0
	#DEBUG_VALUE: firstRead <- 0
	{
		mkmsk r0, 1
		nop
	}
	.loc	1 212 0                 # C:/Projects/UI-01_sw1_hw1/module_dfu/src/dfu.xc:212:0
	st8 r0, r8[r6]
.LBB14_3:                               # %DFU_OpenFlash.exit
	#DEBUG_VALUE: DFU_Upload:block_num <- 0
	#DEBUG_VALUE: firstRead <- 0
	{
		nop
		ldw r1, r4[0]
	}
	.loc	1 214 0                 # C:/Projects/UI-01_sw1_hw1/module_dfu/src/dfu.xc:214:0
	{
		eq r0, r1, 2
		nop
	}
	bt r0, .LBB14_6
# BB#4:                                 # %DFU_OpenFlash.exit
	#DEBUG_VALUE: DFU_Upload:block_num <- 0
	{
		eq r1, r1, 9
		nop
	}
	bf r1, .LBB14_5
.LBB14_6:                               # %switchcase1
.Lxtalabel184:
	#DEBUG_VALUE: DFU_Upload:block_num <- 0
	#DEBUG_VALUE: firstRead <- 0
	bf r0, .LBB14_8
# BB#7:                                 # %switchcase1
.Lxtalabel185:
	#DEBUG_VALUE: DFU_Upload:block_num <- 0
	bt r7, .LBB14_8
.LBB14_5:                               # %switchdefault
.Lxtalabel186:
	#DEBUG_VALUE: DFU_Upload:block_num <- 0
	{
		ldc r0, 10
		nop
	}
	bu .LBB14_15
.LBB14_8:                               # %iffalse.critedge
.Lxtalabel187:
	#DEBUG_VALUE: DFU_Upload:block_num <- 0
	#DEBUG_VALUE: firstRead <- 0
	.loc	1 229 10                # C:/Projects/UI-01_sw1_hw1/module_dfu/src/dfu.xc:229:10
	bf r0, .LBB14_10
# BB#9:                                 # %ifdone11.thread
.Lxtalabel188:
	#DEBUG_VALUE: DFU_Upload:block_num <- 0
.Ltmp450:
	#DEBUG_VALUE: firstRead <- 1
	{
		ldc r0, 0
		nop
	}
	.loc	1 232 0                 # C:/Projects/UI-01_sw1_hw1/module_dfu/src/dfu.xc:232:0
	stw r0, dp[subPagesLeft]
	bu .LBB14_12
.LBB14_10:                              # %ifdone11
.Lxtalabel189:
	#DEBUG_VALUE: DFU_Upload:block_num <- 0
.Ltmp451:
	#DEBUG_VALUE: firstRead <- 0
	.loc	1 235 5                 # C:/Projects/UI-01_sw1_hw1/module_dfu/src/dfu.xc:235:5
	ldw r0, dp[subPagesLeft]
	bt r0, .LBB14_13
# BB#11:
	#DEBUG_VALUE: DFU_Upload:block_num <- 0
	{
		mkmsk r0, 1
		nop
	}
.LBB14_12:                              # %iftrue16
.Lxtalabel190:
	#DEBUG_VALUE: DFU_Upload:block_num <- 0
	#DEBUG_VALUE: firstRead <- 0
	.loc	1 237 0                 # C:/Projects/UI-01_sw1_hw1/module_dfu/src/dfu.xc:237:0
	{
		ldaw r0, sp[2]
		stw r0, sp[2]
	}
	ldc r1, 64
	.loc	1 240 0                 # C:/Projects/UI-01_sw1_hw1/module_dfu/src/dfu.xc:240:0
.Lxta.call_labels37:
	bl flash_cmd_read_page
	{
		ldc r0, 4
		nop
	}
	.loc	1 241 0                 # C:/Projects/UI-01_sw1_hw1/module_dfu/src/dfu.xc:241:0
	stw r0, dp[subPagesLeft]
	{
		nop
		ldw r0, sp[2]
	}
	.loc	1 244 9                 # C:/Projects/UI-01_sw1_hw1/module_dfu/src/dfu.xc:244:9
	{
		eq r0, r0, 1
		nop
	}
	bf r0, .LBB14_13
# BB#14:                                # %iftrue23
.Lxtalabel191:
	#DEBUG_VALUE: DFU_Upload:block_num <- 0
	#DEBUG_VALUE: firstRead <- 0
	{
		ldc r6, 0
		nop
	}
	.loc	1 246 0                 # C:/Projects/UI-01_sw1_hw1/module_dfu/src/dfu.xc:246:0
	stw r6, dp[subPagesLeft]
	{
		ldc r0, 2
		nop
	}
	bu .LBB14_15
.LBB14_13:                              # %ifdone17
.Lxtalabel192:
	#DEBUG_VALUE: DFU_Upload:block_num <- 0
	#DEBUG_VALUE: firstRead <- 0
	ldc r6, 64
	.loc	1 254 0                 # C:/Projects/UI-01_sw1_hw1/module_dfu/src/dfu.xc:254:0
	{
		mov r0, r5
		mov r1, r6
	}
.Lxta.call_labels38:
	bl flash_cmd_read_page_data
	.loc	1 256 0                 # C:/Projects/UI-01_sw1_hw1/module_dfu/src/dfu.xc:256:0
	ldw r0, dp[subPagesLeft]
	.loc	1 256 0                 # C:/Projects/UI-01_sw1_hw1/module_dfu/src/dfu.xc:256:0
	{
		sub r0, r0, 1
		nop
	}
	.loc	1 256 0                 # C:/Projects/UI-01_sw1_hw1/module_dfu/src/dfu.xc:256:0
	stw r0, dp[subPagesLeft]
	{
		ldc r0, 9
		nop
	}
.LBB14_15:                              # %return
	#DEBUG_VALUE: DFU_Upload:block_num <- 0
	.loc	1 248 0                 # C:/Projects/UI-01_sw1_hw1/module_dfu/src/dfu.xc:248:0
	{
		mov r0, r6
		stw r0, r4[0]
	}
	{
		nop
		ldw r8, sp[22]
	}
	ldd r7, r6, sp[10]              # 4-byte Folded Reload
	ldd r5, r4, sp[9]               # 4-byte Folded Reload
	{
		nop
		retsp 24
	}
	# RETURN_REG_HOLDER
.Ltmp452:
	.cc_bottom DFU_Upload.function
	.set	DFU_Upload.nstackwords,((flash_cmd_read_page.nstackwords $M flash_cmd_read_page_data.nstackwords $M DFUCustomFlashEnable.nstackwords $M flash_cmd_init.nstackwords) + 24)
	.set	DFU_Upload.maxcores,DFUCustomFlashEnable.maxcores $M flash_cmd_init.maxcores $M flash_cmd_read_page.maxcores $M flash_cmd_read_page_data.maxcores $M 1
	.set	DFU_Upload.maxtimers,DFUCustomFlashEnable.maxtimers $M flash_cmd_init.maxtimers $M flash_cmd_read_page.maxtimers $M flash_cmd_read_page_data.maxtimers $M 0
	.set	DFU_Upload.maxchanends,DFUCustomFlashEnable.maxchanends $M flash_cmd_init.maxchanends $M flash_cmd_read_page.maxchanends $M flash_cmd_read_page_data.maxchanends $M 0
.Ltmp453:
	.size	DFU_Upload, .Ltmp453-DFU_Upload
.Lfunc_end14:
	.cfi_endproc

	.section	.cp.rodata.cst4,"aMc",@progbits,4
	.cc_top .LCPI15_0.data,.LCPI15_0
	.align	4
	.type	.LCPI15_0,@object
	.size	.LCPI15_0, 4
.LCPI15_0:
	.long	524236                  # 0x7ffcc
	.cc_bottom .LCPI15_0.data
	.cc_top .LCPI15_1.data,.LCPI15_1
	.align	4
	.type	.LCPI15_1,@object
	.size	.LCPI15_1, 4
.LCPI15_1:
	.long	285483025               # 0x11042011
	.cc_bottom .LCPI15_1.data
	.text
	.globl	DFUReportResetState
	.align	4
	.type	DFUReportResetState,@function
	.cc_top DFUReportResetState.function,DFUReportResetState
DFUReportResetState:                    # @DFUReportResetState
.Lfunc_begin15:
	.loc	1 335 0                 # C:/Projects/UI-01_sw1_hw1/module_dfu/src/dfu.xc:335:0
	.cfi_startproc
	.issue_mode dual
# BB#0:                                 # %allocas
.Lxtalabel193:
	{
		nop
		dualentsp 4
	}
.Ltmp454:
	.cfi_def_cfa_offset 16
.Ltmp455:
	.cfi_offset 15, 0
	{
		nop
		stw r4, sp[2]
	}
.Ltmp456:
	.cfi_offset 4, -8
	#DEBUG_VALUE: DFUReportResetState:c_user_cmd <- R0
.Ltmp457:
	#DEBUG_VALUE: inDFU <- 0
	#DEBUG_VALUE: currentTime <- 0
	ldw r0, cp[.LCPI15_0]
.Ltmp458:
	.loc	1 32 0 prologue_end     # C:/Projects/UI-01_sw1_hw1/module_dfu/src/dfu.xc:32:0
	#APP
	ldw r0, r0[0]
	#NO_APP
.Ltmp459:
	#DEBUG_VALUE: flag <- R0
	#DEBUG_VALUE: x <- R0
	ldw r1, cp[.LCPI15_1]
.Ltmp460:
	.loc	1 343 5                 # C:/Projects/UI-01_sw1_hw1/module_dfu/src/dfu.xc:343:5
	{
		eq r0, r0, r1
		nop
	}
.Ltmp461:
	bf r0, .LBB15_2
# BB#1:                                 # %iftrue
.Lxtalabel194:
.Ltmp462:
	#DEBUG_VALUE: DFUReportResetState:c_user_cmd <- R0
	#DEBUG_VALUE: inDFU <- 1
	#DEBUG_VALUE: currentTime <- 0
	{
		ldc r0, 2
		nop
	}
.Ltmp463:
	.loc	1 347 0                 # C:/Projects/UI-01_sw1_hw1/module_dfu/src/dfu.xc:347:0
	stw r0, dp[g_DFU_state]
	{
		mkmsk r0, 1
		nop
	}
	bu .LBB15_9
.Ltmp464:
.LBB15_2:                               # %ifdone
.Lxtalabel195:
	#DEBUG_VALUE: DFUReportResetState:c_user_cmd <- R0
	#DEBUG_VALUE: inDFU <- 0
	#DEBUG_VALUE: currentTime <- 0
	.loc	1 351 0                 # C:/Projects/UI-01_sw1_hw1/module_dfu/src/dfu.xc:351:0
	ldw r2, dp[g_DFU_state]
	{
		ldc r1, 10
		nop
	}
	.loc	1 351 0                 # C:/Projects/UI-01_sw1_hw1/module_dfu/src/dfu.xc:351:0
	{
		lsu r0, r1, r2
		nop
	}
.Ltmp465:
	bt r0, .LBB15_5
# BB#3:                                 # %ifdone
.Lxtalabel196:
.Ltmp466:
	#DEBUG_VALUE: DFUReportResetState:c_user_cmd <- R0
	{
		mkmsk r0, 1
		nop
	}
.Ltmp467:
	{
		shl r2, r0, r2
		nop
	}
	ldc r3, 2041
	{
		and r3, r2, r3
		nop
	}
	bf r3, .LBB15_4
.LBB15_7:                               # %iftrue18
.Lxtalabel197:
.Ltmp468:
	#DEBUG_VALUE: DFUReportResetState:c_user_cmd <- R0
	.loc	1 388 0                 # C:/Projects/UI-01_sw1_hw1/module_dfu/src/dfu.xc:388:0
	{
		ldc r0, 0
		nop
	}
.Ltmp469:
	.loc	1 360 0                 # C:/Projects/UI-01_sw1_hw1/module_dfu/src/dfu.xc:360:0
	stw r0, dp[g_DFU_state]
	.loc	1 388 0                 # C:/Projects/UI-01_sw1_hw1/module_dfu/src/dfu.xc:388:0
	ldaw r4, dp[DFU_flash_connected]
	{
		nop
		ld8u r1, r4[r0]
	}
	bf r1, .LBB15_9
# BB#8:                                 # %iftrue.i
.Lxtalabel198:
.Ltmp470:
	#DEBUG_VALUE: DFUReportResetState:c_user_cmd <- R0
	.loc	1 80 0                  # C:/Projects/UI-01_sw1_hw1/module_dfu/src/dfu.xc:80:0
.Lxta.call_labels39:
	bl DFUCustomFlashDisable
.Ltmp471:
	.loc	1 81 0                  # C:/Projects/UI-01_sw1_hw1/module_dfu/src/dfu.xc:81:0
.Lxta.call_labels40:
	bl flash_cmd_deinit
.Ltmp472:
	.loc	1 388 0                 # C:/Projects/UI-01_sw1_hw1/module_dfu/src/dfu.xc:388:0
	{
		ldc r0, 0
		nop
	}
	st8 r0, r4[r0]
	bu .LBB15_9
.Ltmp473:
.LBB15_4:                               # %ifdone
.Lxtalabel199:
	#DEBUG_VALUE: DFUReportResetState:c_user_cmd <- R0
	{
		ldc r3, 6
		nop
	}
	{
		and r2, r2, r3
		nop
	}
	bf r2, .LBB15_5
.Ltmp474:
# BB#6:                                 # %switchcase1
.Lxtalabel200:
	#DEBUG_VALUE: DFUReportResetState:c_user_cmd <- R0
	{
		ldc r1, 2
		nop
	}
	.loc	1 355 0                 # C:/Projects/UI-01_sw1_hw1/module_dfu/src/dfu.xc:355:0
	stw r1, dp[g_DFU_state]
	.loc	1 357 0                 # C:/Projects/UI-01_sw1_hw1/module_dfu/src/dfu.xc:357:0
	{
		gettime r1
		nop
	}
.Ltmp475:
	#DEBUG_VALUE: currentTime <- R1
	.loc	1 358 13                # C:/Projects/UI-01_sw1_hw1/module_dfu/src/dfu.xc:358:13
	ldw r2, dp[DFUTimerStart]
	.loc	1 358 13                # C:/Projects/UI-01_sw1_hw1/module_dfu/src/dfu.xc:358:13
	{
		sub r1, r1, r2
		nop
	}
.Ltmp476:
	.loc	1 358 13                # C:/Projects/UI-01_sw1_hw1/module_dfu/src/dfu.xc:358:13
	ldw r2, dp[DFUResetTimeout]
	.loc	1 358 13                # C:/Projects/UI-01_sw1_hw1/module_dfu/src/dfu.xc:358:13
	{
		lsu r1, r2, r1
		nop
	}
	bf r1, .LBB15_9
	bu .LBB15_7
.Ltmp477:
.LBB15_5:                               # %switchdefault
.Lxtalabel201:
	#DEBUG_VALUE: DFUReportResetState:c_user_cmd <- R0
	#DEBUG_VALUE: inDFU <- 0
	#DEBUG_VALUE: currentTime <- 0
	.loc	1 381 0                 # C:/Projects/UI-01_sw1_hw1/module_dfu/src/dfu.xc:381:0
	stw r1, dp[g_DFU_state]
.Ltmp478:
	#DEBUG_VALUE: inDFU <- 1
	{
		mkmsk r0, 1
		nop
	}
.Ltmp479:
.LBB15_9:                               # %return
	#DEBUG_VALUE: DFUReportResetState:c_user_cmd <- R0
	{
		nop
		ldw r4, sp[2]
	}
	{
		nop
		retsp 4
	}
	# RETURN_REG_HOLDER
	.cc_bottom DFUReportResetState.function
	.set	DFUReportResetState.nstackwords,((DFUCustomFlashDisable.nstackwords $M flash_cmd_deinit.nstackwords) + 4)
	.globl	DFUReportResetState.nstackwords
	.set	DFUReportResetState.maxcores,DFUCustomFlashDisable.maxcores $M flash_cmd_deinit.maxcores $M 1
	.globl	DFUReportResetState.maxcores
	.set	DFUReportResetState.maxtimers,DFUCustomFlashDisable.maxtimers $M flash_cmd_deinit.maxtimers $M 0
	.globl	DFUReportResetState.maxtimers
	.set	DFUReportResetState.maxchanends,DFUCustomFlashDisable.maxchanends $M flash_cmd_deinit.maxchanends $M 0
	.globl	DFUReportResetState.maxchanends
.Ltmp480:
	.size	DFUReportResetState, .Ltmp480-DFUReportResetState
.Lfunc_end15:
	.cfi_endproc

	.section	.cp.rodata.cst4,"aMc",@progbits,4
	.cc_top .LCPI16_0.data,.LCPI16_0
	.align	4
	.type	.LCPI16_0,@object
	.size	.LCPI16_0, 4
.LCPI16_0:
	.long	4294967056              # 0xffffff10
	.cc_bottom .LCPI16_0.data
	.cc_top .LCPI16_1.data,.LCPI16_1
	.align	4
	.type	.LCPI16_1,@object
	.size	.LCPI16_1, 4
.LCPI16_1:
	.long	285483025               # 0x11042011
	.cc_bottom .LCPI16_1.data
	.cc_top .LCPI16_2.data,.LCPI16_2
	.align	4
	.type	.LCPI16_2,@object
	.size	.LCPI16_2, 4
.LCPI16_2:
	.long	25000000                # 0x17d7840
	.cc_bottom .LCPI16_2.data
	.cc_top .LCPI16_3.data,.LCPI16_3
	.align	4
	.type	.LCPI16_3,@object
	.size	.LCPI16_3, 4
.LCPI16_3:
	.long	100000                  # 0x186a0
	.cc_bottom .LCPI16_3.data
	.text
	.globl	DFUHandler
	.align	4
	.type	DFUHandler,@function
	.cc_top DFUHandler.function,DFUHandler
DFUHandler:                             # @DFUHandler
.Lfunc_begin16:
	.loc	1 427 0                 # C:/Projects/UI-01_sw1_hw1/module_dfu/src/dfu.xc:427:0
	.cfi_startproc
	.issue_mode dual
# BB#0:                                 # %allocas
.Lxtalabel202:
	DUALENTSP_lu6 86
.Ltmp481:
	.cfi_def_cfa_offset 344
.Ltmp482:
	.cfi_offset 15, 0
	stw r4, sp[78]                  # 4-byte Folded Spill
	stw r5, sp[79]                  # 4-byte Folded Spill
.Ltmp483:
	.cfi_offset 4, -32
.Ltmp484:
	.cfi_offset 5, -28
	stw r6, sp[80]                  # 4-byte Folded Spill
	stw r7, sp[81]                  # 4-byte Folded Spill
.Ltmp485:
	.cfi_offset 6, -24
.Ltmp486:
	.cfi_offset 7, -20
	stw r8, sp[82]                  # 4-byte Folded Spill
	stw r9, sp[83]                  # 4-byte Folded Spill
.Ltmp487:
	.cfi_offset 8, -16
.Ltmp488:
	.cfi_offset 9, -12
	stw r10, sp[84]                 # 4-byte Folded Spill
.Ltmp489:
	.cfi_offset 10, -8
	#DEBUG_VALUE: DFUHandler:i <- R0
	#DEBUG_VALUE: DFUHandler:c_user_cmd <- R1
	{
		mov r1, r0
		nop
	}
.Ltmp490:
	#DEBUG_VALUE: DFUHandler:i <- R1
	.loc	1 403 0 prologue_end    # C:/Projects/UI-01_sw1_hw1/module_dfu/src/dfu.xc:403:0
	{
		get r11, id
		stw r1, sp[11]
	}
	.loc	1 403 0                 # C:/Projects/UI-01_sw1_hw1/module_dfu/src/dfu.xc:403:0
	ldaw r0, dp[__timers]
	{
		nop
		ldw r0, r0[r11]
	}
	{
		nop
		stw r0, sp[10]
	}
.Ltmp491:
	#DEBUG_VALUE: DFUHandler:i <- [SP+44]
	.loc	1 430 9                 # C:/Projects/UI-01_sw1_hw1/module_dfu/src/dfu.xc:430:9
	{
		clre
		ldw r8, r1[0]
	}
	ldap r11, .Ltmp492
	.loc	1 430 9                 # C:/Projects/UI-01_sw1_hw1/module_dfu/src/dfu.xc:430:9
	{
		setv res[r8], r11
		nop
	}
	.loc	1 430 9                 # C:/Projects/UI-01_sw1_hw1/module_dfu/src/dfu.xc:430:9
	{
		eeu res[r8]
		ldc r7, 0
	}
	{
		mkmsk r4, 2
		ldc r6, 6
	}
	{
		mkmsk r10, 1
		ldc r5, 16
	}

	.xtabranch .LBB16_1
	{
		waiteu
		nop
	}
.Ltmp493:
.LBB16_37:                              # %switchdone48
                                        #   in Loop: Header=BB16_1 Depth=1
.Lxtalabel203:
	#DEBUG_VALUE: DFUHandler:i <- [SP+44]
	#DEBUG_VALUE: DFUHandler:c_user_cmd <- R1
	#DEBUG_VALUE: reset_device_after_ack <- 0
	#DEBUG_VALUE: return_data_len <- 0
	#DEBUG_VALUE: dfu_reset_override <- 0
	#DEBUG_VALUE: returnVal <- 0
	.loc	1 525 0                 # C:/Projects/UI-01_sw1_hw1/module_dfu/src/dfu.xc:525:0
	ldw r1, sp[76]
.Ltmp494:
	#DEBUG_VALUE: newDfuState <- R1
	{
		nop
		ldw r2, sp[11]
	}
	{
		nop
		ldw r8, r2[0]
	}
	{
		out res[r8], r7
		nop
	}
	{
		out res[r8], r7
		nop
	}
	{
		out res[r8], r0
		nop
	}
	{
		out res[r8], r7
		nop
	}
	{
		out res[r8], r7
		nop
	}
	{
		out res[r8], r1
		nop
	}
	{
		outct res[r8], 1
		nop
	}
.Ltmp495:
	.loc	1 430 9                 # C:/Projects/UI-01_sw1_hw1/module_dfu/src/dfu.xc:430:9
	{
		clre
		nop
	}
	ldap r11, .Ltmp492
	.loc	1 430 9                 # C:/Projects/UI-01_sw1_hw1/module_dfu/src/dfu.xc:430:9
	{
		setv res[r8], r11
		nop
	}
	.loc	1 430 9                 # C:/Projects/UI-01_sw1_hw1/module_dfu/src/dfu.xc:430:9
	{
		eeu res[r8]
		nop
	}

	.xtabranch .LBB16_1
	{
		waiteu
		nop
	}
.Ltmp496:
.Ltmp492:                               # Block address taken
.LBB16_1:                               # %selectcase
                                        # =>This Loop Header: Depth=1
                                        #     Child Loop BB16_35 Depth 2
                                        #     Child Loop BB16_24 Depth 2
                                        #     Child Loop BB16_27 Depth 2
                                        #     Child Loop BB16_14 Depth 2
.Lxtalabel204:
	#DEBUG_VALUE: DFUHandler:i <- [SP+44]
	#DEBUG_VALUE: DFUHandler:c_user_cmd <- R1
	{
		in r0, res[r8]
		nop
	}
	ldc r1, 254
.Ltmp497:
	{
		add r1, r0, r1
		nop
	}
	{
		zext r1, 8
		nop
	}
	{
		sub r0, r0, r1
		nop
	}
	{
		setd res[r8], r0
		nop
	}
	bt r1, .LBB16_48
.Ltmp498:
# BB#2:                                 # %switchcase12
                                        #   in Loop: Header=BB16_1 Depth=1
.Lxtalabel205:
	#DEBUG_VALUE: DFUHandler:i <- [SP+44]
	#DEBUG_VALUE: DFUHandler:c_user_cmd <- R1
	{
		outct res[r8], 1
		nop
	}
	{
		in r9, res[r8]
		nop
	}
	{
		in r0, res[r8]
		nop
	}
.Ltmp499:
	#DEBUG_VALUE: data_buffer_length <- R0
	{
		in r1, res[r8]
		nop
	}
.Ltmp500:
	#DEBUG_VALUE: return_data_len <- 0
	#DEBUG_VALUE: reset_device_after_ack <- 0
	#DEBUG_VALUE: dfuState <- R1
	#DEBUG_VALUE: tmpDfuState <- R1
	.loc	1 436 0                 # C:/Projects/UI-01_sw1_hw1/module_dfu/src/dfu.xc:436:0
	stw r7, sp[77]
	#DEBUG_VALUE: dfu_reset_override <- 0
	.loc	1 438 0                 # C:/Projects/UI-01_sw1_hw1/module_dfu/src/dfu.xc:438:0
.Ltmp501:
	stw r1, sp[76]
	#DEBUG_VALUE: returnVal <- 0
	{
		ldc r0, 5
		nop
	}
.Ltmp502:
	.loc	1 442 0                 # C:/Projects/UI-01_sw1_hw1/module_dfu/src/dfu.xc:442:0
	{
		out res[r8], r0
		nop
	}
	.loc	1 442 0                 # C:/Projects/UI-01_sw1_hw1/module_dfu/src/dfu.xc:442:0
	{
		out res[r8], r7
		nop
	}
	.loc	1 442 0                 # C:/Projects/UI-01_sw1_hw1/module_dfu/src/dfu.xc:442:0
	{
		out res[r8], r4
		nop
	}
	.loc	1 442 0                 # C:/Projects/UI-01_sw1_hw1/module_dfu/src/dfu.xc:442:0
	{
		outct res[r8], 2
		nop
	}
	.loc	1 442 0                 # C:/Projects/UI-01_sw1_hw1/module_dfu/src/dfu.xc:442:0
	{
		in r3, res[r8]
		nop
	}
	.loc	1 442 0                 # C:/Projects/UI-01_sw1_hw1/module_dfu/src/dfu.xc:442:0
	{
		chkct res[r8], 1
		zext r3, 8
	}
	ldc r0, 239
	.loc	1 442 0                 # C:/Projects/UI-01_sw1_hw1/module_dfu/src/dfu.xc:442:0
	{
		lss r0, r0, r3
		nop
	}
	bt r0, .LBB16_5
.Ltmp503:
# BB#3:                                 # %switchcase12
                                        #   in Loop: Header=BB16_1 Depth=1
.Lxtalabel206:
	#DEBUG_VALUE: DFUHandler:i <- [SP+44]
	#DEBUG_VALUE: DFUHandler:c_user_cmd <- R1
	{
		lsu r11, r6, r3
		mov r0, r7
	}
	bt r11, .LBB16_37
.Ltmp504:
# BB#4:                                 # %switchcase12
                                        #   in Loop: Header=BB16_1 Depth=1
.Lxtalabel207:
	#DEBUG_VALUE: DFUHandler:i <- [SP+44]
	#DEBUG_VALUE: DFUHandler:c_user_cmd <- R1
	{
		mov r0, r7
		ldaw r2, sp[60]
	}

	.xtabranch .Ljumptable8+4,.Ljumptable8+8,.Ljumptable8+12,.Ljumptable8+16,.Ljumptable8+20,.Ljumptable8+24,.Ljumptable8+28
.Ljumptable8:
		
	{
		nop
		bru r3
	}
	.jmptable32 .LBB16_7,.LBB16_14,.LBB16_26,.LBB16_16,.LBB16_28,.LBB16_31,.LBB16_49
.Ltmp505:
.LBB16_7:                               # %switchcase49
                                        #   in Loop: Header=BB16_1 Depth=1
.Lxtalabel208:
	#DEBUG_VALUE: DFUHandler:i <- [SP+44]
	#DEBUG_VALUE: DFUHandler:c_user_cmd <- R1
	.loc	1 445 0                 # C:/Projects/UI-01_sw1_hw1/module_dfu/src/dfu.xc:445:0
	stw r1, sp[76]
	{
		ldc r0, 4
		nop
	}
	.loc	1 446 0                 # C:/Projects/UI-01_sw1_hw1/module_dfu/src/dfu.xc:446:0
	{
		out res[r8], r0
		nop
	}
	.loc	1 446 0                 # C:/Projects/UI-01_sw1_hw1/module_dfu/src/dfu.xc:446:0
	{
		out res[r8], r7
		ldc r0, 2
	}
	.loc	1 446 0                 # C:/Projects/UI-01_sw1_hw1/module_dfu/src/dfu.xc:446:0
	{
		out res[r8], r0
		nop
	}
	.loc	1 446 0                 # C:/Projects/UI-01_sw1_hw1/module_dfu/src/dfu.xc:446:0
	{
		outct res[r8], 2
		nop
	}
	.loc	1 446 0                 # C:/Projects/UI-01_sw1_hw1/module_dfu/src/dfu.xc:446:0
	{
		in r9, res[r8]
		nop
	}
	.loc	1 446 0                 # C:/Projects/UI-01_sw1_hw1/module_dfu/src/dfu.xc:446:0
	{
		chkct res[r8], 1
		nop
	}
	.loc	1 89 5                  # C:/Projects/UI-01_sw1_hw1/module_dfu/src/dfu.xc:89:5
.Ltmp506:
	bf r1, .LBB16_8
.Ltmp507:
# BB#12:                                # %iffalse.i
                                        #   in Loop: Header=BB16_1 Depth=1
.Lxtalabel209:
	#DEBUG_VALUE: DFUHandler:i <- [SP+44]
	#DEBUG_VALUE: DFUHandler:c_user_cmd <- R1
	{
		ldc r0, 10
		nop
	}
	.loc	1 103 0                 # C:/Projects/UI-01_sw1_hw1/module_dfu/src/dfu.xc:103:0
.Ltmp508:
	stw r0, sp[76]
	bu .LBB16_13
.Ltmp509:
.LBB16_14:                              # %afterboundcheck
                                        #   Parent Loop BB16_1 Depth=1
                                        # =>  This Inner Loop Header: Depth=2
.Lxtalabel210:
	#DEBUG_VALUE: DFUHandler:i <- [SP+44]
	#DEBUG_VALUE: DFUHandler:c_user_cmd <- R1
	.loc	1 453 0                 # C:/Projects/UI-01_sw1_hw1/module_dfu/src/dfu.xc:453:0
	{
		lsu r1, r0, r9
		nop
	}
.Ltmp510:
.Ltrap_info16:
	{
		ecallf r1
		nop
	}
	#DEBUG_VALUE: DFUHandler:i <- [SP+44]
.Ltmp511:
	#DEBUG_VALUE: DFUHandler:c_user_cmd <- R1
	.loc	1 453 0                 # C:/Projects/UI-01_sw1_hw1/module_dfu/src/dfu.xc:453:0
	{
		out res[r8], r4
		nop
	}
	.loc	1 453 0                 # C:/Projects/UI-01_sw1_hw1/module_dfu/src/dfu.xc:453:0
	{
		out res[r8], r10
		nop
	}
	.loc	1 453 0                 # C:/Projects/UI-01_sw1_hw1/module_dfu/src/dfu.xc:453:0
	{
		out res[r8], r0
		nop
	}
	.loc	1 453 0                 # C:/Projects/UI-01_sw1_hw1/module_dfu/src/dfu.xc:453:0
	{
		outct res[r8], 2
		nop
	}
	.loc	1 453 0                 # C:/Projects/UI-01_sw1_hw1/module_dfu/src/dfu.xc:453:0
	{
		in r1, res[r8]
		nop
	}
.Ltmp512:
	.loc	1 453 0                 # C:/Projects/UI-01_sw1_hw1/module_dfu/src/dfu.xc:453:0
	{
		chkct res[r8], 1
		nop
	}
	.loc	1 453 0                 # C:/Projects/UI-01_sw1_hw1/module_dfu/src/dfu.xc:453:0
	stw r1, r2[r0]
	.loc	1 452 0                 # C:/Projects/UI-01_sw1_hw1/module_dfu/src/dfu.xc:452:0
	{
		add r0, r0, 1
		nop
	}
	.loc	1 452 0                 # C:/Projects/UI-01_sw1_hw1/module_dfu/src/dfu.xc:452:0
	{
		lss r1, r0, r5
		nop
	}
.Lxta.loop_labels18:
	# LOOPMARKER 3
	bt r1, .LBB16_14
.Ltmp513:
# BB#15:                                # %ifdone63
                                        #   in Loop: Header=BB16_1 Depth=1
.Lxtalabel211:
	#DEBUG_VALUE: DFUHandler:i <- [SP+44]
	#DEBUG_VALUE: DFUHandler:c_user_cmd <- R1
	{
		ldc r0, 4
		nop
	}
	{
		mov r1, r0
		nop
	}
.Ltmp514:
	.loc	1 454 0                 # C:/Projects/UI-01_sw1_hw1/module_dfu/src/dfu.xc:454:0
	{
		out res[r8], r1
		nop
	}
	.loc	1 454 0                 # C:/Projects/UI-01_sw1_hw1/module_dfu/src/dfu.xc:454:0
	{
		out res[r8], r7
		nop
	}
	.loc	1 454 0                 # C:/Projects/UI-01_sw1_hw1/module_dfu/src/dfu.xc:454:0
	{
		out res[r8], r1
		nop
	}
	.loc	1 454 0                 # C:/Projects/UI-01_sw1_hw1/module_dfu/src/dfu.xc:454:0
	{
		outct res[r8], 2
		nop
	}
	.loc	1 454 0                 # C:/Projects/UI-01_sw1_hw1/module_dfu/src/dfu.xc:454:0
	{
		in r0, res[r8]
		nop
	}
	.loc	1 454 0                 # C:/Projects/UI-01_sw1_hw1/module_dfu/src/dfu.xc:454:0
	{
		chkct res[r8], 1
		zext r0, 16
	}
	.loc	1 454 0                 # C:/Projects/UI-01_sw1_hw1/module_dfu/src/dfu.xc:454:0
	{
		out res[r8], r1
		nop
	}
	.loc	1 454 0                 # C:/Projects/UI-01_sw1_hw1/module_dfu/src/dfu.xc:454:0
	{
		out res[r8], r7
		ldc r1, 2
	}
	.loc	1 454 0                 # C:/Projects/UI-01_sw1_hw1/module_dfu/src/dfu.xc:454:0
	{
		out res[r8], r1
		nop
	}
	.loc	1 454 0                 # C:/Projects/UI-01_sw1_hw1/module_dfu/src/dfu.xc:454:0
	{
		outct res[r8], 2
		nop
	}
	.loc	1 454 0                 # C:/Projects/UI-01_sw1_hw1/module_dfu/src/dfu.xc:454:0
	{
		in r1, res[r8]
		nop
	}
.Ltmp515:
	#DEBUG_VALUE: tmpDfuState <- undef
	.loc	1 454 0                 # C:/Projects/UI-01_sw1_hw1/module_dfu/src/dfu.xc:454:0
	{
		chkct res[r8], 1
		zext r1, 16
	}
	ldaw r3, sp[76]
	{
		nop
		stw r3, sp[1]
	}
.Ltmp516:
	#DEBUG_VALUE: return_data_len <- undef
	ldaw r3, sp[77]
	.loc	1 454 0                 # C:/Projects/UI-01_sw1_hw1/module_dfu/src/dfu.xc:454:0
.Lxta.call_labels41:
	bl DFU_Dnload
.Ltmp517:
	#DEBUG_VALUE: returnVal <- R0
	ldw r1, sp[77]
.Ltmp518:
	.loc	1 525 0                 # C:/Projects/UI-01_sw1_hw1/module_dfu/src/dfu.xc:525:0
	ldw r2, sp[76]
.Ltmp519:
	#DEBUG_VALUE: newDfuState <- R2
	{
		nop
		ldw r3, sp[11]
	}
	{
		nop
		ldw r8, r3[0]
	}
	{
		out res[r8], r7
		nop
	}
	{
		out res[r8], r7
		nop
	}
	{
		out res[r8], r1
		nop
	}
	{
		out res[r8], r7
		nop
	}
	{
		out res[r8], r0
		nop
	}
	{
		out res[r8], r2
		nop
	}
	{
		outct res[r8], 1
		nop
	}
.Ltmp520:
	.loc	1 430 9                 # C:/Projects/UI-01_sw1_hw1/module_dfu/src/dfu.xc:430:9
	{
		clre
		nop
	}
	ldap r11, .Ltmp492
	.loc	1 430 9                 # C:/Projects/UI-01_sw1_hw1/module_dfu/src/dfu.xc:430:9
	{
		setv res[r8], r11
		nop
	}
	.loc	1 430 9                 # C:/Projects/UI-01_sw1_hw1/module_dfu/src/dfu.xc:430:9
	{
		eeu res[r8]
		nop
	}

	.xtabranch .LBB16_1
	{
		waiteu
		nop
	}
.Ltmp521:
.LBB16_5:                               # %switchcase12
                                        #   in Loop: Header=BB16_1 Depth=1
.Lxtalabel212:
	#DEBUG_VALUE: DFUHandler:i <- [SP+44]
	#DEBUG_VALUE: DFUHandler:c_user_cmd <- R1
	ldw r0, cp[.LCPI16_0]
	{
		add r1, r3, r0
		nop
	}
.Ltmp522:
	{
		lsu r2, r6, r1
		mov r0, r7
	}
	bt r2, .LBB16_37
.Ltmp523:
# BB#6:                                 # %switchcase12
                                        #   in Loop: Header=BB16_1 Depth=1
.Lxtalabel213:
	#DEBUG_VALUE: DFUHandler:i <- [SP+44]
	#DEBUG_VALUE: DFUHandler:c_user_cmd <- R1

	.xtabranch .Ljumptable9+4,.Ljumptable9+8,.Ljumptable9+12,.Ljumptable9+16,.Ljumptable9+20,.Ljumptable9+24,.Ljumptable9+28
.Ljumptable9:
		
	{
		nop
		bru r1
	}
	.jmptable32 .LBB16_38,.LBB16_39,.LBB16_43,.LBB16_44,.LBB16_45,.LBB16_46,.LBB16_47
.Ltmp524:
.LBB16_38:                              # %switchcase244
                                        #   in Loop: Header=BB16_1 Depth=1
.Lxtalabel214:
	#DEBUG_VALUE: DFUHandler:i <- [SP+44]
	#DEBUG_VALUE: DFUHandler:c_user_cmd <- R1
	#DEBUG_VALUE: reset_device_after_ack <- 1
	#DEBUG_VALUE: return_data_len <- 0
	.loc	1 489 0                 # C:/Projects/UI-01_sw1_hw1/module_dfu/src/dfu.xc:489:0
	stw r7, sp[77]
	.loc	1 525 0                 # C:/Projects/UI-01_sw1_hw1/module_dfu/src/dfu.xc:525:0
	ldw r0, sp[76]
.Ltmp525:
	#DEBUG_VALUE: newDfuState <- R0
	{
		nop
		ldw r1, sp[11]
	}
.Ltmp526:
	{
		nop
		ldw r8, r1[0]
	}
	{
		out res[r8], r7
		nop
	}
	{
		out res[r8], r10
		nop
	}
	{
		out res[r8], r7
		nop
	}
	{
		out res[r8], r7
		nop
	}
	{
		out res[r8], r7
		nop
	}
	{
		out res[r8], r0
		nop
	}
	{
		outct res[r8], 1
		nop
	}
.Ltmp527:
	.loc	1 430 9                 # C:/Projects/UI-01_sw1_hw1/module_dfu/src/dfu.xc:430:9
	{
		clre
		nop
	}
	ldap r11, .Ltmp492
	.loc	1 430 9                 # C:/Projects/UI-01_sw1_hw1/module_dfu/src/dfu.xc:430:9
	{
		setv res[r8], r11
		nop
	}
	.loc	1 430 9                 # C:/Projects/UI-01_sw1_hw1/module_dfu/src/dfu.xc:430:9
	{
		eeu res[r8]
		nop
	}

	.xtabranch .LBB16_1
	{
		waiteu
		nop
	}
.Ltmp528:
.LBB16_26:                              # %switchcase60
                                        #   in Loop: Header=BB16_1 Depth=1
.Lxtalabel215:
	#DEBUG_VALUE: DFUHandler:i <- [SP+44]
	#DEBUG_VALUE: DFUHandler:c_user_cmd <- R1
	#DEBUG_VALUE: data_out <- [SP+176]
	{
		ldc r0, 4
		nop
	}
	{
		mov r1, r0
		nop
	}
.Ltmp529:
	.loc	1 459 0                 # C:/Projects/UI-01_sw1_hw1/module_dfu/src/dfu.xc:459:0
	{
		out res[r8], r1
		nop
	}
	.loc	1 459 0                 # C:/Projects/UI-01_sw1_hw1/module_dfu/src/dfu.xc:459:0
	{
		out res[r8], r7
		nop
	}
	.loc	1 459 0                 # C:/Projects/UI-01_sw1_hw1/module_dfu/src/dfu.xc:459:0
	{
		out res[r8], r1
		nop
	}
	.loc	1 459 0                 # C:/Projects/UI-01_sw1_hw1/module_dfu/src/dfu.xc:459:0
	{
		outct res[r8], 2
		nop
	}
	.loc	1 459 0                 # C:/Projects/UI-01_sw1_hw1/module_dfu/src/dfu.xc:459:0
	{
		in r0, res[r8]
		nop
	}
	.loc	1 459 0                 # C:/Projects/UI-01_sw1_hw1/module_dfu/src/dfu.xc:459:0
	{
		chkct res[r8], 1
		zext r0, 16
	}
	.loc	1 459 0                 # C:/Projects/UI-01_sw1_hw1/module_dfu/src/dfu.xc:459:0
	{
		out res[r8], r1
		nop
	}
	.loc	1 459 0                 # C:/Projects/UI-01_sw1_hw1/module_dfu/src/dfu.xc:459:0
	{
		out res[r8], r7
		ldc r1, 2
	}
	.loc	1 459 0                 # C:/Projects/UI-01_sw1_hw1/module_dfu/src/dfu.xc:459:0
	{
		out res[r8], r1
		nop
	}
	.loc	1 459 0                 # C:/Projects/UI-01_sw1_hw1/module_dfu/src/dfu.xc:459:0
	{
		outct res[r8], 2
		nop
	}
	.loc	1 459 0                 # C:/Projects/UI-01_sw1_hw1/module_dfu/src/dfu.xc:459:0
	{
		in r1, res[r8]
		nop
	}
	#DEBUG_VALUE: tmpDfuState <- undef
	.loc	1 459 0                 # C:/Projects/UI-01_sw1_hw1/module_dfu/src/dfu.xc:459:0
	{
		chkct res[r8], 1
		ldaw r9, sp[44]
	}
	.loc	1 459 0                 # C:/Projects/UI-01_sw1_hw1/module_dfu/src/dfu.xc:459:0
	{
		mov r1, r9
		nop
	}
	ldaw r2, sp[76]
.Lxta.call_labels42:
	bl DFU_Upload
.Ltmp530:
	#DEBUG_VALUE: i <- 0
	#DEBUG_VALUE: return_data_len <- R0
	.loc	1 459 0                 # C:/Projects/UI-01_sw1_hw1/module_dfu/src/dfu.xc:459:0
	stw r0, sp[77]
	{
		mov r1, r7
		nop
	}
.Ltmp531:
.LBB16_27:                              # %afterboundcheck137
                                        #   Parent Loop BB16_1 Depth=1
                                        # =>  This Inner Loop Header: Depth=2
.Lxtalabel216:
	#DEBUG_VALUE: DFUHandler:i <- [SP+44]
	#DEBUG_VALUE: DFUHandler:c_user_cmd <- R1
	#DEBUG_VALUE: return_data_len <- R0
	#DEBUG_VALUE: data_out <- [SP+176]
	#DEBUG_VALUE: tmpDfuState <- undef
	#DEBUG_VALUE: i <- 0
	.loc	1 461 0                 # C:/Projects/UI-01_sw1_hw1/module_dfu/src/dfu.xc:461:0
	{
		out res[r8], r6
		ldw r2, r9[r1]
	}
	.loc	1 461 0                 # C:/Projects/UI-01_sw1_hw1/module_dfu/src/dfu.xc:461:0
	{
		out res[r8], r10
		nop
	}
	.loc	1 461 0                 # C:/Projects/UI-01_sw1_hw1/module_dfu/src/dfu.xc:461:0
	{
		out res[r8], r1
		nop
	}
	.loc	1 461 0                 # C:/Projects/UI-01_sw1_hw1/module_dfu/src/dfu.xc:461:0
	{
		out res[r8], r2
		nop
	}
	.loc	1 461 0                 # C:/Projects/UI-01_sw1_hw1/module_dfu/src/dfu.xc:461:0
	{
		outct res[r8], 2
		nop
	}
.Ltmp532:
	#DEBUG_VALUE: i <- R1
	.loc	1 461 0                 # C:/Projects/UI-01_sw1_hw1/module_dfu/src/dfu.xc:461:0
	{
		chkct res[r8], 1
		add r1, r1, 1
	}
.Ltmp533:
	.loc	1 460 0                 # C:/Projects/UI-01_sw1_hw1/module_dfu/src/dfu.xc:460:0
	{
		lss r2, r1, r5
		nop
	}
.Lxta.loop_labels19:
	# LOOPMARKER 2
	bt r2, .LBB16_27
	bu .LBB16_37
.Ltmp534:
.LBB16_16:                              # %switchcase104
                                        #   in Loop: Header=BB16_1 Depth=1
.Lxtalabel217:
	#DEBUG_VALUE: DFUHandler:i <- [SP+44]
	#DEBUG_VALUE: DFUHandler:c_user_cmd <- R1
	{
		ldc r0, 4
		nop
	}
	.loc	1 466 0                 # C:/Projects/UI-01_sw1_hw1/module_dfu/src/dfu.xc:466:0
.Ltmp535:
	{
		out res[r8], r0
		nop
	}
	.loc	1 466 0                 # C:/Projects/UI-01_sw1_hw1/module_dfu/src/dfu.xc:466:0
	{
		out res[r8], r7
		nop
	}
	.loc	1 466 0                 # C:/Projects/UI-01_sw1_hw1/module_dfu/src/dfu.xc:466:0
	{
		out res[r8], r0
		nop
	}
	.loc	1 466 0                 # C:/Projects/UI-01_sw1_hw1/module_dfu/src/dfu.xc:466:0
	{
		outct res[r8], 2
		nop
	}
	.loc	1 466 0                 # C:/Projects/UI-01_sw1_hw1/module_dfu/src/dfu.xc:466:0
	{
		in r0, res[r8]
		nop
	}
.Ltmp536:
	#DEBUG_VALUE: timeout <- 0
	#DEBUG_VALUE: DFU_GetStatus:request_len <- 0
	.loc	1 466 0                 # C:/Projects/UI-01_sw1_hw1/module_dfu/src/dfu.xc:466:0
	{
		chkct res[r8], 1
		stw r7, sp[28]
	}
	.loc	1 269 0                 # C:/Projects/UI-01_sw1_hw1/module_dfu/src/dfu.xc:269:0
.Ltmp537:
	{
		eq r0, r1, 6
		nop
	}
	bt r0, .LBB16_22
.Ltmp538:
# BB#17:                                # %switchcase104
                                        #   in Loop: Header=BB16_1 Depth=1
.Lxtalabel218:
	#DEBUG_VALUE: DFUHandler:i <- [SP+44]
	#DEBUG_VALUE: DFUHandler:c_user_cmd <- R1
	{
		eq r0, r1, 3
		ldaw r2, sp[28]
	}
	bt r0, .LBB16_21
.Ltmp539:
# BB#18:                                # %switchcase104
                                        #   in Loop: Header=BB16_1 Depth=1
.Lxtalabel219:
	#DEBUG_VALUE: DFUHandler:i <- [SP+44]
	#DEBUG_VALUE: DFUHandler:c_user_cmd <- R1
	{
		sub r0, r1, 7
		nop
	}
	{
		lsu r0, r10, r0
		nop
	}
	bt r0, .LBB16_23
.Ltmp540:
# BB#19:                                # %switchcase3.i
                                        #   in Loop: Header=BB16_1 Depth=1
.Lxtalabel220:
	#DEBUG_VALUE: DFUHandler:i <- [SP+44]
	#DEBUG_VALUE: DFUHandler:c_user_cmd <- R1
	{
		ldc r0, 10
		nop
	}
	bu .LBB16_20
.Ltmp541:
.LBB16_28:                              # %switchcase154
                                        #   in Loop: Header=BB16_1 Depth=1
.Lxtalabel221:
	#DEBUG_VALUE: DFUHandler:i <- [SP+44]
	#DEBUG_VALUE: DFUHandler:c_user_cmd <- R1
	.loc	1 298 5                 # C:/Projects/UI-01_sw1_hw1/module_dfu/src/dfu.xc:298:5
	{
		eq r1, r1, 10
		ldc r0, 2
	}
.Ltmp542:
	bt r1, .LBB16_30
.Ltmp543:
# BB#29:                                # %switchcase154
                                        #   in Loop: Header=BB16_1 Depth=1
.Lxtalabel222:
	#DEBUG_VALUE: DFUHandler:i <- [SP+44]
	#DEBUG_VALUE: DFUHandler:c_user_cmd <- R1
	{
		ldc r0, 10
		nop
	}
.Ltmp544:
.LBB16_30:                              # %switchcase154
                                        #   in Loop: Header=BB16_1 Depth=1
.Lxtalabel223:
	#DEBUG_VALUE: DFUHandler:i <- [SP+44]
	#DEBUG_VALUE: DFUHandler:c_user_cmd <- R1
	.loc	1 304 0                 # C:/Projects/UI-01_sw1_hw1/module_dfu/src/dfu.xc:304:0
	stw r0, sp[76]
.Ltmp545:
	#DEBUG_VALUE: return_data_len <- 0
	.loc	1 472 0                 # C:/Projects/UI-01_sw1_hw1/module_dfu/src/dfu.xc:472:0
	stw r7, sp[77]
	.loc	1 525 0                 # C:/Projects/UI-01_sw1_hw1/module_dfu/src/dfu.xc:525:0
	ldw r0, sp[76]
.Ltmp546:
	#DEBUG_VALUE: newDfuState <- R0
	{
		nop
		ldw r1, sp[11]
	}
.Ltmp547:
	{
		nop
		ldw r8, r1[0]
	}
	{
		out res[r8], r7
		nop
	}
	{
		out res[r8], r7
		nop
	}
	{
		out res[r8], r7
		nop
	}
	{
		out res[r8], r7
		nop
	}
	{
		out res[r8], r7
		nop
	}
	{
		out res[r8], r0
		nop
	}
	{
		outct res[r8], 1
		nop
	}
.Ltmp548:
	.loc	1 430 9                 # C:/Projects/UI-01_sw1_hw1/module_dfu/src/dfu.xc:430:9
	{
		clre
		nop
	}
	ldap r11, .Ltmp492
	.loc	1 430 9                 # C:/Projects/UI-01_sw1_hw1/module_dfu/src/dfu.xc:430:9
	{
		setv res[r8], r11
		nop
	}
	.loc	1 430 9                 # C:/Projects/UI-01_sw1_hw1/module_dfu/src/dfu.xc:430:9
	{
		eeu res[r8]
		nop
	}

	.xtabranch .LBB16_1
	{
		waiteu
		nop
	}
.Ltmp549:
.LBB16_31:                              # %switchcase198
                                        #   in Loop: Header=BB16_1 Depth=1
.Lxtalabel224:
	#DEBUG_VALUE: DFUHandler:i <- [SP+44]
	#DEBUG_VALUE: DFUHandler:c_user_cmd <- R1
	{
		ldc r0, 4
		nop
	}
	.loc	1 477 0                 # C:/Projects/UI-01_sw1_hw1/module_dfu/src/dfu.xc:477:0
.Ltmp550:
	{
		out res[r8], r0
		nop
	}
	.loc	1 477 0                 # C:/Projects/UI-01_sw1_hw1/module_dfu/src/dfu.xc:477:0
	{
		out res[r8], r7
		nop
	}
	.loc	1 477 0                 # C:/Projects/UI-01_sw1_hw1/module_dfu/src/dfu.xc:477:0
	{
		out res[r8], r0
		nop
	}
	.loc	1 477 0                 # C:/Projects/UI-01_sw1_hw1/module_dfu/src/dfu.xc:477:0
	{
		outct res[r8], 2
		nop
	}
	.loc	1 477 0                 # C:/Projects/UI-01_sw1_hw1/module_dfu/src/dfu.xc:477:0
	{
		in r0, res[r8]
		nop
	}
.Ltmp551:
	#DEBUG_VALUE: DFU_GetState:request_len <- 0
	.loc	1 477 0                 # C:/Projects/UI-01_sw1_hw1/module_dfu/src/dfu.xc:477:0
	{
		chkct res[r8], 1
		stw r1, sp[12]
	}
	{
		ldc r0, 8
		nop
	}
	.loc	1 313 0                 # C:/Projects/UI-01_sw1_hw1/module_dfu/src/dfu.xc:313:0
.Ltmp552:
	{
		lsu r0, r0, r1
		nop
	}
	bt r0, .LBB16_34
.Ltmp553:
# BB#32:                                # %switchcase198
                                        #   in Loop: Header=BB16_1 Depth=1
.Lxtalabel225:
	#DEBUG_VALUE: DFUHandler:i <- [SP+44]
	#DEBUG_VALUE: DFUHandler:c_user_cmd <- R1
	{
		shl r0, r10, r1
		nop
	}
	ldc r1, 400
.Ltmp554:
	{
		and r0, r0, r1
		nop
	}
	bf r0, .LBB16_34
.Ltmp555:
# BB#33:                                # %switchcase3.i299
                                        #   in Loop: Header=BB16_1 Depth=1
.Lxtalabel226:
	#DEBUG_VALUE: DFUHandler:i <- [SP+44]
	#DEBUG_VALUE: DFUHandler:c_user_cmd <- R1
	{
		ldc r0, 10
		nop
	}
	.loc	1 318 0                 # C:/Projects/UI-01_sw1_hw1/module_dfu/src/dfu.xc:318:0
	stw r0, sp[76]
.Ltmp556:
.LBB16_34:                              # %DFU_GetState.exit
                                        #   in Loop: Header=BB16_1 Depth=1
.Lxtalabel227:
	#DEBUG_VALUE: DFUHandler:i <- [SP+44]
	#DEBUG_VALUE: DFUHandler:c_user_cmd <- R1
	#DEBUG_VALUE: return_data_len <- 1
	.loc	1 477 0                 # C:/Projects/UI-01_sw1_hw1/module_dfu/src/dfu.xc:477:0
	stw r10, sp[77]
.Ltmp557:
	#DEBUG_VALUE: i <- 0
	{
		mov r0, r7
		ldaw r2, sp[12]
	}
.Ltmp558:
.LBB16_35:                              # %afterboundcheck227
                                        #   Parent Loop BB16_1 Depth=1
                                        # =>  This Inner Loop Header: Depth=2
.Lxtalabel228:
	#DEBUG_VALUE: DFUHandler:i <- [SP+44]
	#DEBUG_VALUE: DFUHandler:c_user_cmd <- R1
	#DEBUG_VALUE: return_data_len <- 1
	#DEBUG_VALUE: i <- 0
	.loc	1 479 0                 # C:/Projects/UI-01_sw1_hw1/module_dfu/src/dfu.xc:479:0
	{
		out res[r8], r6
		ldw r1, r2[r0]
	}
.Ltmp559:
	.loc	1 479 0                 # C:/Projects/UI-01_sw1_hw1/module_dfu/src/dfu.xc:479:0
	{
		out res[r8], r10
		nop
	}
	.loc	1 479 0                 # C:/Projects/UI-01_sw1_hw1/module_dfu/src/dfu.xc:479:0
	{
		out res[r8], r0
		nop
	}
	.loc	1 479 0                 # C:/Projects/UI-01_sw1_hw1/module_dfu/src/dfu.xc:479:0
	{
		out res[r8], r1
		nop
	}
	.loc	1 479 0                 # C:/Projects/UI-01_sw1_hw1/module_dfu/src/dfu.xc:479:0
	{
		outct res[r8], 2
		nop
	}
.Ltmp560:
	#DEBUG_VALUE: i <- R0
	.loc	1 479 0                 # C:/Projects/UI-01_sw1_hw1/module_dfu/src/dfu.xc:479:0
	{
		chkct res[r8], 1
		add r0, r0, 1
	}
.Ltmp561:
	.loc	1 478 0                 # C:/Projects/UI-01_sw1_hw1/module_dfu/src/dfu.xc:478:0
	{
		lss r1, r0, r5
		nop
	}
.Lxta.loop_labels20:
	# LOOPMARKER 0
	.loc	1 478 0                 # C:/Projects/UI-01_sw1_hw1/module_dfu/src/dfu.xc:478:0
	bt r1, .LBB16_35
.Ltmp562:
# BB#36:                                #   in Loop: Header=BB16_1 Depth=1
	#DEBUG_VALUE: DFUHandler:i <- [SP+44]
	#DEBUG_VALUE: DFUHandler:c_user_cmd <- R1
	{
		mov r0, r10
		nop
	}
	bu .LBB16_37
.Ltmp563:
.LBB16_49:                              # %switchcase200
                                        #   in Loop: Header=BB16_1 Depth=1
.Lxtalabel229:
	#DEBUG_VALUE: DFUHandler:i <- [SP+44]
	#DEBUG_VALUE: DFUHandler:c_user_cmd <- R1
	{
		ldc r0, 2
		nop
	}
	.loc	1 329 0                 # C:/Projects/UI-01_sw1_hw1/module_dfu/src/dfu.xc:329:0
.Ltmp564:
	stw r0, sp[76]
.Ltmp565:
	#DEBUG_VALUE: return_data_len <- 0
	.loc	1 483 0                 # C:/Projects/UI-01_sw1_hw1/module_dfu/src/dfu.xc:483:0
	stw r7, sp[77]
	.loc	1 525 0                 # C:/Projects/UI-01_sw1_hw1/module_dfu/src/dfu.xc:525:0
	ldw r0, sp[76]
.Ltmp566:
	#DEBUG_VALUE: newDfuState <- R0
	{
		nop
		ldw r1, sp[11]
	}
.Ltmp567:
	{
		nop
		ldw r8, r1[0]
	}
	{
		out res[r8], r7
		nop
	}
	{
		out res[r8], r7
		nop
	}
	{
		out res[r8], r7
		nop
	}
	{
		out res[r8], r7
		nop
	}
	{
		out res[r8], r7
		nop
	}
	{
		out res[r8], r0
		nop
	}
	{
		outct res[r8], 1
		nop
	}
.Ltmp568:
	.loc	1 430 9                 # C:/Projects/UI-01_sw1_hw1/module_dfu/src/dfu.xc:430:9
	{
		clre
		nop
	}
	ldap r11, .Ltmp492
	.loc	1 430 9                 # C:/Projects/UI-01_sw1_hw1/module_dfu/src/dfu.xc:430:9
	{
		setv res[r8], r11
		nop
	}
	.loc	1 430 9                 # C:/Projects/UI-01_sw1_hw1/module_dfu/src/dfu.xc:430:9
	{
		eeu res[r8]
		nop
	}

	.xtabranch .LBB16_1
	{
		waiteu
		nop
	}
.Ltmp569:
.LBB16_39:                              # %switchcase246
                                        #   in Loop: Header=BB16_1 Depth=1
.Lxtalabel230:
	#DEBUG_VALUE: DFUHandler:i <- [SP+44]
	#DEBUG_VALUE: DFUHandler:c_user_cmd <- R1
	#DEBUG_VALUE: s <- 0
	.loc	1 93 0                  # C:/Projects/UI-01_sw1_hw1/module_dfu/src/dfu.xc:93:0
	ldaw r0, dp[DFU_flash_connected]
	{
		nop
		ld8u r0, r0[r7]
	}
	bt r0, .LBB16_42
.Ltmp570:
# BB#40:                                # %iftrue.i302
                                        #   in Loop: Header=BB16_1 Depth=1
.Lxtalabel231:
	#DEBUG_VALUE: DFUHandler:i <- [SP+44]
	#DEBUG_VALUE: DFUHandler:c_user_cmd <- R1
	#DEBUG_VALUE: s <- 0
	.loc	1 62 0                  # C:/Projects/UI-01_sw1_hw1/module_dfu/src/dfu.xc:62:0
.Lxta.call_labels43:
	bl DFUCustomFlashEnable
.Ltmp571:
	.loc	1 63 0                  # C:/Projects/UI-01_sw1_hw1/module_dfu/src/dfu.xc:63:0
.Lxta.call_labels44:
	bl flash_cmd_init
.Ltmp572:
	#DEBUG_VALUE: error <- R0
	bt r0, .LBB16_42
.Ltmp573:
# BB#41:                                # %ifdone3.i303
                                        #   in Loop: Header=BB16_1 Depth=1
.Lxtalabel232:
	#DEBUG_VALUE: DFUHandler:i <- [SP+44]
	#DEBUG_VALUE: DFUHandler:c_user_cmd <- R1
	#DEBUG_VALUE: s <- 0
	.loc	1 93 0                  # C:/Projects/UI-01_sw1_hw1/module_dfu/src/dfu.xc:93:0
	ldaw r0, dp[DFU_flash_connected]
.Ltmp574:
	.loc	1 398 0                 # C:/Projects/UI-01_sw1_hw1/module_dfu/src/dfu.xc:398:0
	st8 r10, r0[r7]
.Ltmp575:
.LBB16_42:                              # %DFU_OpenFlash.exit305
                                        #   in Loop: Header=BB16_1 Depth=1
	#DEBUG_VALUE: DFUHandler:i <- [SP+44]
	#DEBUG_VALUE: DFUHandler:c_user_cmd <- R1
	#DEBUG_VALUE: s <- 0
	.loc	1 400 0                 # C:/Projects/UI-01_sw1_hw1/module_dfu/src/dfu.xc:400:0
.Lxta.call_labels45:
	bl flash_cmd_erase_all
.Ltmp576:
	.loc	1 402 0                 # C:/Projects/UI-01_sw1_hw1/module_dfu/src/dfu.xc:402:0
	{
		gettime r0
		nop
	}
.Ltmp577:
	#DEBUG_VALUE: s <- R0
	ldw r1, cp[.LCPI16_2]
	.loc	1 403 0                 # C:/Projects/UI-01_sw1_hw1/module_dfu/src/dfu.xc:403:0
.Ltmp578:
	{
		add r0, r0, r1
		ldw r1, sp[10]
	}
.Ltmp579:
	.loc	1 403 0                 # C:/Projects/UI-01_sw1_hw1/module_dfu/src/dfu.xc:403:0
	{
		setd res[r1], r0
		nop
	}
	.loc	1 403 0                 # C:/Projects/UI-01_sw1_hw1/module_dfu/src/dfu.xc:403:0
	{
		setc res[r1], 9
		nop
	}
	.loc	1 403 0                 # C:/Projects/UI-01_sw1_hw1/module_dfu/src/dfu.xc:403:0
.Lxta.endpoint_labels5:
	{
		in r0, res[r1]
		nop
	}
.Ltmp580:
	#DEBUG_VALUE: s <- R0
	#DEBUG_VALUE: return_data_len <- 0
	.loc	1 493 0                 # C:/Projects/UI-01_sw1_hw1/module_dfu/src/dfu.xc:493:0
	stw r7, sp[77]
	.loc	1 525 0                 # C:/Projects/UI-01_sw1_hw1/module_dfu/src/dfu.xc:525:0
	ldw r0, sp[76]
.Ltmp581:
	#DEBUG_VALUE: newDfuState <- R0
	{
		nop
		ldw r1, sp[11]
	}
	{
		nop
		ldw r8, r1[0]
	}
	{
		out res[r8], r7
		nop
	}
	{
		out res[r8], r7
		nop
	}
	{
		out res[r8], r7
		nop
	}
	{
		out res[r8], r7
		nop
	}
	{
		out res[r8], r7
		nop
	}
	{
		out res[r8], r0
		nop
	}
	{
		outct res[r8], 1
		nop
	}
.Ltmp582:
	.loc	1 430 9                 # C:/Projects/UI-01_sw1_hw1/module_dfu/src/dfu.xc:430:9
	{
		clre
		nop
	}
	ldap r11, .Ltmp492
	.loc	1 430 9                 # C:/Projects/UI-01_sw1_hw1/module_dfu/src/dfu.xc:430:9
	{
		setv res[r8], r11
		nop
	}
	.loc	1 430 9                 # C:/Projects/UI-01_sw1_hw1/module_dfu/src/dfu.xc:430:9
	{
		eeu res[r8]
		nop
	}

	.xtabranch .LBB16_1
	{
		waiteu
		nop
	}
.Ltmp583:
.LBB16_43:                              # %switchcase248
                                        #   in Loop: Header=BB16_1 Depth=1
.Lxtalabel233:
	#DEBUG_VALUE: DFUHandler:i <- [SP+44]
	#DEBUG_VALUE: DFUHandler:c_user_cmd <- R1
	#DEBUG_VALUE: reset_device_after_ack <- 1
	#DEBUG_VALUE: return_data_len <- 0
	#DEBUG_VALUE: dfu_reset_override <- 285483025
	.loc	1 499 0                 # C:/Projects/UI-01_sw1_hw1/module_dfu/src/dfu.xc:499:0
	stw r7, sp[77]
	.loc	1 525 0                 # C:/Projects/UI-01_sw1_hw1/module_dfu/src/dfu.xc:525:0
	ldw r0, sp[76]
.Ltmp584:
	#DEBUG_VALUE: newDfuState <- R0
	{
		nop
		ldw r1, sp[11]
	}
.Ltmp585:
	{
		nop
		ldw r8, r1[0]
	}
	{
		out res[r8], r7
		nop
	}
	{
		out res[r8], r10
		nop
	}
	{
		out res[r8], r7
		nop
	}
	ldw r1, cp[.LCPI16_1]
	{
		out res[r8], r1
		nop
	}
	{
		out res[r8], r7
		nop
	}
	{
		out res[r8], r0
		nop
	}
	{
		outct res[r8], 1
		nop
	}
.Ltmp586:
	.loc	1 430 9                 # C:/Projects/UI-01_sw1_hw1/module_dfu/src/dfu.xc:430:9
	{
		clre
		nop
	}
	ldap r11, .Ltmp492
	.loc	1 430 9                 # C:/Projects/UI-01_sw1_hw1/module_dfu/src/dfu.xc:430:9
	{
		setv res[r8], r11
		nop
	}
	.loc	1 430 9                 # C:/Projects/UI-01_sw1_hw1/module_dfu/src/dfu.xc:430:9
	{
		eeu res[r8]
		nop
	}

	.xtabranch .LBB16_1
	{
		waiteu
		nop
	}
.Ltmp587:
.LBB16_44:                              # %switchcase251
                                        #   in Loop: Header=BB16_1 Depth=1
.Lxtalabel234:
	#DEBUG_VALUE: DFUHandler:i <- [SP+44]
	#DEBUG_VALUE: DFUHandler:c_user_cmd <- R1
	#DEBUG_VALUE: reset_device_after_ack <- 1
	#DEBUG_VALUE: return_data_len <- 0
	#DEBUG_VALUE: dfu_reset_override <- 0
	.loc	1 505 0                 # C:/Projects/UI-01_sw1_hw1/module_dfu/src/dfu.xc:505:0
	stw r7, sp[77]
	.loc	1 525 0                 # C:/Projects/UI-01_sw1_hw1/module_dfu/src/dfu.xc:525:0
	ldw r0, sp[76]
.Ltmp588:
	#DEBUG_VALUE: newDfuState <- R0
	{
		nop
		ldw r1, sp[11]
	}
.Ltmp589:
	{
		nop
		ldw r8, r1[0]
	}
	{
		out res[r8], r7
		nop
	}
	{
		out res[r8], r10
		nop
	}
	{
		out res[r8], r7
		nop
	}
	{
		out res[r8], r7
		nop
	}
	{
		out res[r8], r7
		nop
	}
	{
		out res[r8], r0
		nop
	}
	{
		outct res[r8], 1
		nop
	}
.Ltmp590:
	.loc	1 430 9                 # C:/Projects/UI-01_sw1_hw1/module_dfu/src/dfu.xc:430:9
	{
		clre
		nop
	}
	ldap r11, .Ltmp492
	.loc	1 430 9                 # C:/Projects/UI-01_sw1_hw1/module_dfu/src/dfu.xc:430:9
	{
		setv res[r8], r11
		nop
	}
	.loc	1 430 9                 # C:/Projects/UI-01_sw1_hw1/module_dfu/src/dfu.xc:430:9
	{
		eeu res[r8]
		nop
	}

	.xtabranch .LBB16_1
	{
		waiteu
		nop
	}
.Ltmp591:
.LBB16_45:                              # %switchcase253
                                        #   in Loop: Header=BB16_1 Depth=1
.Lxtalabel235:
	#DEBUG_VALUE: DFUHandler:i <- [SP+44]
	#DEBUG_VALUE: DFUHandler:c_user_cmd <- R1
	{
		ldc r0, 4
		nop
	}
	.loc	1 509 0                 # C:/Projects/UI-01_sw1_hw1/module_dfu/src/dfu.xc:509:0
.Ltmp592:
	{
		out res[r8], r0
		nop
	}
	.loc	1 509 0                 # C:/Projects/UI-01_sw1_hw1/module_dfu/src/dfu.xc:509:0
	{
		out res[r8], r7
		ldc r0, 2
	}
	.loc	1 509 0                 # C:/Projects/UI-01_sw1_hw1/module_dfu/src/dfu.xc:509:0
	{
		out res[r8], r0
		nop
	}
	.loc	1 509 0                 # C:/Projects/UI-01_sw1_hw1/module_dfu/src/dfu.xc:509:0
	{
		outct res[r8], 2
		nop
	}
	.loc	1 509 0                 # C:/Projects/UI-01_sw1_hw1/module_dfu/src/dfu.xc:509:0
	{
		in r0, res[r8]
		nop
	}
	.loc	1 509 0                 # C:/Projects/UI-01_sw1_hw1/module_dfu/src/dfu.xc:509:0
	{
		chkct res[r8], 1
		nop
	}
	#DEBUG_VALUE: return_data_len <- 0
	.loc	1 509 0                 # C:/Projects/UI-01_sw1_hw1/module_dfu/src/dfu.xc:509:0
	stw r7, sp[77]
	.loc	1 525 0                 # C:/Projects/UI-01_sw1_hw1/module_dfu/src/dfu.xc:525:0
	ldw r0, sp[76]
.Ltmp593:
	#DEBUG_VALUE: newDfuState <- R0
	{
		nop
		ldw r1, sp[11]
	}
.Ltmp594:
	{
		nop
		ldw r8, r1[0]
	}
	{
		out res[r8], r7
		nop
	}
	{
		out res[r8], r7
		nop
	}
	{
		out res[r8], r7
		nop
	}
	{
		out res[r8], r7
		nop
	}
	{
		out res[r8], r7
		nop
	}
	{
		out res[r8], r0
		nop
	}
	{
		outct res[r8], 1
		nop
	}
.Ltmp595:
	.loc	1 430 9                 # C:/Projects/UI-01_sw1_hw1/module_dfu/src/dfu.xc:430:9
	{
		clre
		nop
	}
	ldap r11, .Ltmp492
	.loc	1 430 9                 # C:/Projects/UI-01_sw1_hw1/module_dfu/src/dfu.xc:430:9
	{
		setv res[r8], r11
		nop
	}
	.loc	1 430 9                 # C:/Projects/UI-01_sw1_hw1/module_dfu/src/dfu.xc:430:9
	{
		eeu res[r8]
		nop
	}

	.xtabranch .LBB16_1
	{
		waiteu
		nop
	}
.Ltmp596:
.LBB16_46:                              # %switchcase255
                                        #   in Loop: Header=BB16_1 Depth=1
.Lxtalabel236:
	#DEBUG_VALUE: DFUHandler:i <- [SP+44]
	#DEBUG_VALUE: DFUHandler:c_user_cmd <- R1
	#DEBUG_VALUE: return_data_len <- 0
	.loc	1 514 0                 # C:/Projects/UI-01_sw1_hw1/module_dfu/src/dfu.xc:514:0
	stw r7, sp[77]
	.loc	1 525 0                 # C:/Projects/UI-01_sw1_hw1/module_dfu/src/dfu.xc:525:0
	ldw r0, sp[76]
.Ltmp597:
	#DEBUG_VALUE: newDfuState <- R0
	{
		nop
		ldw r1, sp[11]
	}
.Ltmp598:
	{
		nop
		ldw r8, r1[0]
	}
	{
		out res[r8], r7
		nop
	}
	{
		out res[r8], r7
		nop
	}
	{
		out res[r8], r7
		nop
	}
	{
		out res[r8], r7
		nop
	}
	{
		out res[r8], r7
		nop
	}
	{
		out res[r8], r0
		nop
	}
	{
		outct res[r8], 1
		nop
	}
.Ltmp599:
	.loc	1 430 9                 # C:/Projects/UI-01_sw1_hw1/module_dfu/src/dfu.xc:430:9
	{
		clre
		nop
	}
	ldap r11, .Ltmp492
	.loc	1 430 9                 # C:/Projects/UI-01_sw1_hw1/module_dfu/src/dfu.xc:430:9
	{
		setv res[r8], r11
		nop
	}
	.loc	1 430 9                 # C:/Projects/UI-01_sw1_hw1/module_dfu/src/dfu.xc:430:9
	{
		eeu res[r8]
		nop
	}

	.xtabranch .LBB16_1
	{
		waiteu
		nop
	}
.Ltmp600:
.LBB16_47:                              # %switchcase266
                                        #   in Loop: Header=BB16_1 Depth=1
.Lxtalabel237:
	#DEBUG_VALUE: DFUHandler:i <- [SP+44]
	#DEBUG_VALUE: DFUHandler:c_user_cmd <- R1
	#DEBUG_VALUE: return_data_len <- 0
	.loc	1 519 0                 # C:/Projects/UI-01_sw1_hw1/module_dfu/src/dfu.xc:519:0
	stw r7, sp[77]
	.loc	1 525 0                 # C:/Projects/UI-01_sw1_hw1/module_dfu/src/dfu.xc:525:0
	ldw r0, sp[76]
.Ltmp601:
	#DEBUG_VALUE: newDfuState <- R0
	{
		nop
		ldw r1, sp[11]
	}
.Ltmp602:
	{
		nop
		ldw r8, r1[0]
	}
	{
		out res[r8], r7
		nop
	}
	{
		out res[r8], r7
		nop
	}
	{
		out res[r8], r7
		nop
	}
	{
		out res[r8], r7
		nop
	}
	{
		out res[r8], r7
		nop
	}
	{
		out res[r8], r0
		nop
	}
	{
		outct res[r8], 1
		nop
	}
.Ltmp603:
	.loc	1 430 9                 # C:/Projects/UI-01_sw1_hw1/module_dfu/src/dfu.xc:430:9
	{
		clre
		nop
	}
	ldap r11, .Ltmp492
	.loc	1 430 9                 # C:/Projects/UI-01_sw1_hw1/module_dfu/src/dfu.xc:430:9
	{
		setv res[r8], r11
		nop
	}
	.loc	1 430 9                 # C:/Projects/UI-01_sw1_hw1/module_dfu/src/dfu.xc:430:9
	{
		eeu res[r8]
		nop
	}

	.xtabranch .LBB16_1
	{
		waiteu
		nop
	}
.Ltmp604:
.LBB16_8:                               # %iftrue.i
                                        #   in Loop: Header=BB16_1 Depth=1
.Lxtalabel238:
	#DEBUG_VALUE: DFUHandler:i <- [SP+44]
	#DEBUG_VALUE: DFUHandler:c_user_cmd <- R1
	.loc	1 446 0                 # C:/Projects/UI-01_sw1_hw1/module_dfu/src/dfu.xc:446:0
	{
		zext r9, 16
		nop
	}
	.loc	1 91 0                  # C:/Projects/UI-01_sw1_hw1/module_dfu/src/dfu.xc:91:0
.Ltmp605:
	stw r10, sp[76]
	.loc	1 93 0                  # C:/Projects/UI-01_sw1_hw1/module_dfu/src/dfu.xc:93:0
	ldaw r0, dp[DFU_flash_connected]
	{
		nop
		ld8u r0, r0[r7]
	}
	bt r0, .LBB16_11
.Ltmp606:
# BB#9:                                 # %iftrue.i293
                                        #   in Loop: Header=BB16_1 Depth=1
.Lxtalabel239:
	#DEBUG_VALUE: DFUHandler:i <- [SP+44]
	#DEBUG_VALUE: DFUHandler:c_user_cmd <- R1
	.loc	1 62 0                  # C:/Projects/UI-01_sw1_hw1/module_dfu/src/dfu.xc:62:0
.Lxta.call_labels46:
	bl DFUCustomFlashEnable
.Ltmp607:
	.loc	1 63 0                  # C:/Projects/UI-01_sw1_hw1/module_dfu/src/dfu.xc:63:0
.Lxta.call_labels47:
	bl flash_cmd_init
.Ltmp608:
	#DEBUG_VALUE: error <- R0
	bt r0, .LBB16_11
.Ltmp609:
# BB#10:                                # %ifdone3.i
                                        #   in Loop: Header=BB16_1 Depth=1
.Lxtalabel240:
	#DEBUG_VALUE: DFUHandler:i <- [SP+44]
	#DEBUG_VALUE: DFUHandler:c_user_cmd <- R1
	.loc	1 93 0                  # C:/Projects/UI-01_sw1_hw1/module_dfu/src/dfu.xc:93:0
	ldaw r0, dp[DFU_flash_connected]
	.loc	1 93 0                  # C:/Projects/UI-01_sw1_hw1/module_dfu/src/dfu.xc:93:0
	st8 r10, r0[r7]
.Ltmp610:
.LBB16_11:                              # %DFU_OpenFlash.exit
                                        #   in Loop: Header=BB16_1 Depth=1
	#DEBUG_VALUE: DFUHandler:i <- [SP+44]
	#DEBUG_VALUE: DFUHandler:c_user_cmd <- R1
	ldw r0, cp[.LCPI16_3]
	.loc	1 96 0                  # C:/Projects/UI-01_sw1_hw1/module_dfu/src/dfu.xc:96:0
	mul r0, r9, r0
	.loc	1 96 0                  # C:/Projects/UI-01_sw1_hw1/module_dfu/src/dfu.xc:96:0
	stw r0, dp[DFUResetTimeout]
	.loc	1 99 0                  # C:/Projects/UI-01_sw1_hw1/module_dfu/src/dfu.xc:99:0
	{
		gettime r0
		nop
	}
	.loc	1 99 0                  # C:/Projects/UI-01_sw1_hw1/module_dfu/src/dfu.xc:99:0
	stw r0, dp[DFUTimerStart]
.Ltmp611:
.LBB16_13:                              # %DFU_Detach.exit
                                        #   in Loop: Header=BB16_1 Depth=1
.Lxtalabel241:
	#DEBUG_VALUE: DFUHandler:i <- [SP+44]
	#DEBUG_VALUE: DFUHandler:c_user_cmd <- R1
	#DEBUG_VALUE: return_data_len <- 0
	.loc	1 446 0                 # C:/Projects/UI-01_sw1_hw1/module_dfu/src/dfu.xc:446:0
	stw r7, sp[77]
	.loc	1 525 0                 # C:/Projects/UI-01_sw1_hw1/module_dfu/src/dfu.xc:525:0
	ldw r0, sp[76]
.Ltmp612:
	#DEBUG_VALUE: newDfuState <- R0
	{
		nop
		ldw r1, sp[11]
	}
.Ltmp613:
	{
		nop
		ldw r8, r1[0]
	}
	{
		out res[r8], r7
		nop
	}
	{
		out res[r8], r7
		nop
	}
	{
		out res[r8], r7
		nop
	}
	{
		out res[r8], r7
		nop
	}
	{
		out res[r8], r7
		nop
	}
	{
		out res[r8], r0
		nop
	}
	{
		outct res[r8], 1
		nop
	}
.Ltmp614:
	.loc	1 430 9                 # C:/Projects/UI-01_sw1_hw1/module_dfu/src/dfu.xc:430:9
	{
		clre
		nop
	}
	ldap r11, .Ltmp492
	.loc	1 430 9                 # C:/Projects/UI-01_sw1_hw1/module_dfu/src/dfu.xc:430:9
	{
		setv res[r8], r11
		nop
	}
	.loc	1 430 9                 # C:/Projects/UI-01_sw1_hw1/module_dfu/src/dfu.xc:430:9
	{
		eeu res[r8]
		nop
	}

	.xtabranch .LBB16_1
	{
		waiteu
		nop
	}
.Ltmp615:
.LBB16_22:                              # %switchcase8.i
                                        #   in Loop: Header=BB16_1 Depth=1
.Lxtalabel242:
	#DEBUG_VALUE: DFUHandler:i <- [SP+44]
	#DEBUG_VALUE: DFUHandler:c_user_cmd <- R1
	#DEBUG_VALUE: DFU_GetStatus:request_len <- 0
	#DEBUG_VALUE: timeout <- 0
	{
		ldc r0, 2
		nop
	}
	.loc	1 284 0                 # C:/Projects/UI-01_sw1_hw1/module_dfu/src/dfu.xc:284:0
.Ltmp616:
	stw r0, sp[76]
.Ltmp617:
	.loc	1 466 0                 # C:/Projects/UI-01_sw1_hw1/module_dfu/src/dfu.xc:466:0
	{
		mov r1, r0
		ldaw r2, sp[28]
	}
.Ltmp618:
	bu .LBB16_23
.Ltmp619:
.LBB16_21:                              # %switchcase6.i
                                        #   in Loop: Header=BB16_1 Depth=1
.Lxtalabel243:
	#DEBUG_VALUE: DFUHandler:i <- [SP+44]
	#DEBUG_VALUE: DFUHandler:c_user_cmd <- R1
	{
		ldc r0, 5
		nop
	}
.Ltmp620:
.LBB16_20:                              # %DFU_GetStatus.exit
                                        #   in Loop: Header=BB16_1 Depth=1
.Lxtalabel244:
	.loc	1 273 0                 # C:/Projects/UI-01_sw1_hw1/module_dfu/src/dfu.xc:273:0
	stw r0, sp[76]
.Ltmp621:
	.loc	1 466 0                 # C:/Projects/UI-01_sw1_hw1/module_dfu/src/dfu.xc:466:0
	{
		mov r1, r0
		nop
	}
.LBB16_23:                              # %DFU_GetStatus.exit
                                        #   in Loop: Header=BB16_1 Depth=1
.Lxtalabel245:
.Ltmp622:
	#DEBUG_VALUE: DFUHandler:i <- [SP+44]
	#DEBUG_VALUE: DFUHandler:c_user_cmd <- R1
	#DEBUG_VALUE: return_data_len <- 6
	#DEBUG_VALUE: DFU_GetStatus:request_len <- 0
	#DEBUG_VALUE: timeout <- 0
	{
		nop
		stw r1, sp[29]
	}
	.loc	1 466 0                 # C:/Projects/UI-01_sw1_hw1/module_dfu/src/dfu.xc:466:0
	stw r6, sp[77]
.Ltmp623:
	#DEBUG_VALUE: i <- 0
	{
		mov r0, r7
		nop
	}
.Ltmp624:
.LBB16_24:                              # %afterboundcheck181
                                        #   Parent Loop BB16_1 Depth=1
                                        # =>  This Inner Loop Header: Depth=2
.Lxtalabel246:
	#DEBUG_VALUE: DFUHandler:i <- [SP+44]
	#DEBUG_VALUE: DFUHandler:c_user_cmd <- R1
	#DEBUG_VALUE: return_data_len <- 6
	#DEBUG_VALUE: i <- 0
	.loc	1 468 0                 # C:/Projects/UI-01_sw1_hw1/module_dfu/src/dfu.xc:468:0
	{
		out res[r8], r6
		ldw r1, r2[r0]
	}
.Ltmp625:
	.loc	1 468 0                 # C:/Projects/UI-01_sw1_hw1/module_dfu/src/dfu.xc:468:0
	{
		out res[r8], r10
		nop
	}
	.loc	1 468 0                 # C:/Projects/UI-01_sw1_hw1/module_dfu/src/dfu.xc:468:0
	{
		out res[r8], r0
		nop
	}
	.loc	1 468 0                 # C:/Projects/UI-01_sw1_hw1/module_dfu/src/dfu.xc:468:0
	{
		out res[r8], r1
		nop
	}
	.loc	1 468 0                 # C:/Projects/UI-01_sw1_hw1/module_dfu/src/dfu.xc:468:0
	{
		outct res[r8], 2
		nop
	}
.Ltmp626:
	#DEBUG_VALUE: i <- R0
	.loc	1 468 0                 # C:/Projects/UI-01_sw1_hw1/module_dfu/src/dfu.xc:468:0
	{
		chkct res[r8], 1
		add r0, r0, 1
	}
.Ltmp627:
	.loc	1 467 0                 # C:/Projects/UI-01_sw1_hw1/module_dfu/src/dfu.xc:467:0
	{
		lss r1, r0, r5
		nop
	}
.Lxta.loop_labels21:
	# LOOPMARKER 1
	bt r1, .LBB16_24
.Ltmp628:
# BB#25:                                #   in Loop: Header=BB16_1 Depth=1
	#DEBUG_VALUE: DFUHandler:i <- [SP+44]
	#DEBUG_VALUE: DFUHandler:c_user_cmd <- R1
	{
		mov r0, r6
		nop
	}
	bu .LBB16_37
.Ltmp629:
.LBB16_48:                              # %switchcase
	#DEBUG_VALUE: DFUHandler:c_user_cmd <- R1
	{
		ldc r0, 0
		nop
	}
	{
		out res[r8], r0
		nop
	}
	{
		outct res[r8], 1
		nop
	}
	ldw r10, sp[84]                 # 4-byte Folded Reload
	ldw r8, sp[82]                  # 4-byte Folded Reload
	ldw r9, sp[83]                  # 4-byte Folded Reload
	ldw r6, sp[80]                  # 4-byte Folded Reload
	ldw r7, sp[81]                  # 4-byte Folded Reload
	ldw r4, sp[78]                  # 4-byte Folded Reload
	ldw r5, sp[79]                  # 4-byte Folded Reload
	retsp 86
	# RETURN_REG_HOLDER
	.cc_bottom DFUHandler.function
	.set	DFUHandler.nstackwords,((DFU_Dnload.nstackwords $M DFU_Upload.nstackwords $M flash_cmd_erase_all.nstackwords $M DFUCustomFlashEnable.nstackwords $M flash_cmd_init.nstackwords) + 86)
	.globl	DFUHandler.nstackwords
	.set	DFUHandler.maxcores,DFUCustomFlashEnable.maxcores $M DFU_Dnload.maxcores $M DFU_Upload.maxcores $M flash_cmd_erase_all.maxcores $M flash_cmd_init.maxcores $M 1
	.globl	DFUHandler.maxcores
	.set	DFUHandler.maxtimers,DFUCustomFlashEnable.maxtimers $M DFU_Dnload.maxtimers $M DFU_Upload.maxtimers $M flash_cmd_erase_all.maxtimers $M flash_cmd_init.maxtimers $M 0
	.globl	DFUHandler.maxtimers
	.set	DFUHandler.maxchanends,DFUCustomFlashEnable.maxchanends $M DFU_Dnload.maxchanends $M DFU_Upload.maxchanends $M flash_cmd_erase_all.maxchanends $M flash_cmd_init.maxchanends $M 0
	.globl	DFUHandler.maxchanends
.Ltmp630:
	.size	DFUHandler, .Ltmp630-DFUHandler
.Lfunc_end16:
	.cfi_endproc

	.globl	DFUHandler.select.0.enable
	.align	4
	.type	DFUHandler.select.0.enable,@function
	.cc_top DFUHandler.select.0.enable.function,DFUHandler.select.0.enable
DFUHandler.select.0.enable:             # @DFUHandler.select.0.enable
.Lfunc_begin17:
	.file	3 "<synthesized>"
	.loc	3 0 0                   # <synthesized>:0:0
	.cfi_startproc
	.issue_mode dual
# BB#0:                                 # %allocas
	{
		nop
		dualentsp 4
	}
.Ltmp631:
	.cfi_def_cfa_offset 16
.Ltmp632:
	.cfi_offset 15, 0
.Ltmp633:
	.cfi_offset 4, -8
	#DEBUG_VALUE: DFUHandler.select.0.enable:DFUHandler.select.state_ptr <- R0
.Ltmp634:
	#DEBUG_VALUE: DFUHandler.select.0.enable:DFUHandler.select.state_ptr <- R4
	{
		mov r4, r0
		stw r4, sp[2]
	}
.Ltmp635:
	bl DFUHandler.init.1
	{
		nop
		ldw r0, r4[0]
	}
	bf r0, .LBB17_1
# BB#2:                                 # %selectguardtrue
.Ltmp636:
	#DEBUG_VALUE: DFUHandler.select.0.enable:DFUHandler.select.state_ptr <- R4
	{
		nop
		ldw r0, r4[4]
	}
	.loc	3 430 9 prologue_end    # <synthesized>:430:9
.Ltmp637:
	{
		mkmsk r0, 1
		ldw r1, r0[0]
	}
	bf r1, .LBB17_4
.Ltmp638:
# BB#3:                                 # %interfacenotnull
	#DEBUG_VALUE: DFUHandler.select.0.enable:DFUHandler.select.state_ptr <- R4
	.loc	3 430 9                 # <synthesized>:430:9
	ldap r11, DFUHandler.select.0.case.0
	{
		setv res[r1], r11
		mov r11, r4
	}
	.loc	3 430 9                 # <synthesized>:430:9
	{
		setev res[r1], r11
		nop
	}
	.loc	3 430 9                 # <synthesized>:430:9
	{
		eeu res[r1]
		nop
	}
	bu .LBB17_4
.Ltmp639:
.LBB17_1:
	{
		ldc r0, 0
		nop
	}
.LBB17_4:                               # %return
	{
		nop
		ldw r4, sp[2]
	}
	{
		nop
		retsp 4
	}
	# RETURN_REG_HOLDER
	.cc_bottom DFUHandler.select.0.enable.function
	.set	DFUHandler.select.0.enable.nstackwords,(DFUHandler.init.1.nstackwords + 4)
	.globl	DFUHandler.select.0.enable.nstackwords
	.set	DFUHandler.select.0.enable.maxcores,DFUHandler.init.1.maxcores $M 1
	.globl	DFUHandler.select.0.enable.maxcores
	.set	DFUHandler.select.0.enable.maxtimers,DFUHandler.init.1.maxtimers $M 0
	.globl	DFUHandler.select.0.enable.maxtimers
	.set	DFUHandler.select.0.enable.maxchanends,DFUHandler.init.1.maxchanends $M 0
	.globl	DFUHandler.select.0.enable.maxchanends
.Ltmp640:
	.size	DFUHandler.select.0.enable, .Ltmp640-DFUHandler.select.0.enable
.Lfunc_end17:
	.cfi_endproc

	.globl	DFUHandler.init.1
	.align	4
	.type	DFUHandler.init.1,@function
	.cc_top DFUHandler.init.1.function,DFUHandler.init.1
DFUHandler.init.1:                      # @DFUHandler.init.1
	.cfi_startproc
	.issue_mode dual
# BB#0:                                 # %allocas
	{
		nop
		dualentsp 0
	}
	#DEBUG_VALUE: DFUHandler.init.1:DFUHandler.init.1.state_ptr <- R0
	{
		nop
		ldw r1, r0[1]
	}
	bf r1, .LBB18_2
# BB#1:                                 # %iffalse
	#DEBUG_VALUE: DFUHandler.init.1:DFUHandler.init.1.state_ptr <- R0
	{
		ldc r1, 0
		nop
	}
	{
		mkmsk r1, 1
		stw r1, r0[1]
	}
	{
		nop
		stw r1, r0[0]
	}
.LBB18_2:                               # %return
	{
		nop
		retsp 0
	}
	# RETURN_REG_HOLDER
	.cc_bottom DFUHandler.init.1.function
	.set	DFUHandler.init.1.nstackwords,0
	.globl	DFUHandler.init.1.nstackwords
	.set	DFUHandler.init.1.maxcores,1
	.globl	DFUHandler.init.1.maxcores
	.set	DFUHandler.init.1.maxtimers,0
	.globl	DFUHandler.init.1.maxtimers
	.set	DFUHandler.init.1.maxchanends,0
	.globl	DFUHandler.init.1.maxchanends
.Ltmp641:
	.size	DFUHandler.init.1, .Ltmp641-DFUHandler.init.1
	.cfi_endproc

	.globl	DFUHandler.init.0
	.align	4
	.type	DFUHandler.init.0,@function
	.cc_top DFUHandler.init.0.function,DFUHandler.init.0
DFUHandler.init.0:                      # @DFUHandler.init.0
	.cfi_startproc
	.issue_mode dual
# BB#0:                                 # %allocas
.Lxtalabel247:
	{
		nop
		dualentsp 2
	}
.Ltmp642:
	.cfi_def_cfa_offset 8
.Ltmp643:
	.cfi_offset 15, 0
	#DEBUG_VALUE: DFUHandler.init.0:DFUHandler.init.0.state_ptr <- R0
	{
		nop
		stw r1, r0[4]
	}
	{
		ldc r2, 0
		stw r2, r0[5]
	}
	{
		nop
		stw r2, r0[0]
	}
	ldap r11, DFUHandler.init.1
	{
		nop
		stw r11, r0[1]
	}
	{
		nop
		ldw r2, r1[0]
	}
	bt r2, .LBB19_2
# BB#1:                                 # %distinterface
	#DEBUG_VALUE: DFUHandler.init.0:DFUHandler.init.0.state_ptr <- R0
	{
		nop
		ldw r1, r1[1]
	}
	{
		nop
		stw r0, r1[0]
	}
.LBB19_2:                               # %interfaceinitdone
	#DEBUG_VALUE: DFUHandler.init.0:DFUHandler.init.0.state_ptr <- R0
	{
		add r0, r0, 8
		nop
	}
	bl __lock_fair_init
	{
		nop
		retsp 2
	}
	# RETURN_REG_HOLDER
	.cc_bottom DFUHandler.init.0.function
	.set	DFUHandler.init.0.nstackwords,(__lock_fair_init.nstackwords + 2)
	.globl	DFUHandler.init.0.nstackwords
	.set	DFUHandler.init.0.maxcores,__lock_fair_init.maxcores $M 1
	.globl	DFUHandler.init.0.maxcores
	.set	DFUHandler.init.0.maxtimers,__lock_fair_init.maxtimers $M 0
	.globl	DFUHandler.init.0.maxtimers
	.set	DFUHandler.init.0.maxchanends,__lock_fair_init.maxchanends $M 0
	.globl	DFUHandler.init.0.maxchanends
.Ltmp644:
	.size	DFUHandler.init.0, .Ltmp644-DFUHandler.init.0
	.cfi_endproc

	.globl	DFUHandler.select.yield.enable
	.align	4
	.type	DFUHandler.select.yield.enable,@function
	.cc_top DFUHandler.select.yield.enable.function,DFUHandler.select.yield.enable
DFUHandler.select.yield.enable:         # @DFUHandler.select.yield.enable
.Lfunc_begin20:
	.loc	3 0 0                   # <synthesized>:0:0
	.cfi_startproc
	.issue_mode dual
# BB#0:                                 # %allocas
	{
		nop
		dualentsp 4
	}
.Ltmp645:
	.cfi_def_cfa_offset 16
.Ltmp646:
	.cfi_offset 15, 0
.Ltmp647:
	.cfi_offset 4, -8
	#DEBUG_VALUE: DFUHandler.select.yield.enable:DFUHandler.select.state_ptr <- R0
.Ltmp648:
	#DEBUG_VALUE: DFUHandler.select.yield.enable:DFUHandler.select.state_ptr <- R4
	{
		mov r4, r0
		stw r4, sp[2]
	}
.Ltmp649:
	bl DFUHandler.init.1
	{
		nop
		ldw r0, r4[0]
	}
	bf r0, .LBB20_1
# BB#2:                                 # %selectguardtrue
.Ltmp650:
	#DEBUG_VALUE: DFUHandler.select.yield.enable:DFUHandler.select.state_ptr <- R4
	{
		nop
		ldw r0, r4[4]
	}
	.loc	3 430 9 prologue_end    # <synthesized>:430:9
.Ltmp651:
	{
		mkmsk r0, 1
		ldw r1, r0[0]
	}
	bf r1, .LBB20_4
.Ltmp652:
# BB#3:                                 # %interfacenotnull
	#DEBUG_VALUE: DFUHandler.select.yield.enable:DFUHandler.select.state_ptr <- R4
	.loc	3 430 9                 # <synthesized>:430:9
	ldap r11, DFUHandler.select.yield.case.0
	{
		setv res[r1], r11
		mov r11, r4
	}
	.loc	3 430 9                 # <synthesized>:430:9
	{
		setev res[r1], r11
		nop
	}
	.loc	3 430 9                 # <synthesized>:430:9
	{
		eeu res[r1]
		nop
	}
	bu .LBB20_4
.Ltmp653:
.LBB20_1:
	{
		ldc r0, 0
		nop
	}
.LBB20_4:                               # %return
	{
		nop
		ldw r4, sp[2]
	}
	{
		nop
		retsp 4
	}
	# RETURN_REG_HOLDER
	.cc_bottom DFUHandler.select.yield.enable.function
	.set	DFUHandler.select.yield.enable.nstackwords,(DFUHandler.init.1.nstackwords + 4)
	.globl	DFUHandler.select.yield.enable.nstackwords
	.set	DFUHandler.select.yield.enable.maxcores,DFUHandler.init.1.maxcores $M 1
	.globl	DFUHandler.select.yield.enable.maxcores
	.set	DFUHandler.select.yield.enable.maxtimers,DFUHandler.init.1.maxtimers $M 0
	.globl	DFUHandler.select.yield.enable.maxtimers
	.set	DFUHandler.select.yield.enable.maxchanends,DFUHandler.init.1.maxchanends $M 0
	.globl	DFUHandler.select.yield.enable.maxchanends
.Ltmp654:
	.size	DFUHandler.select.yield.enable, .Ltmp654-DFUHandler.select.yield.enable
.Lfunc_end20:
	.cfi_endproc

	.globl	DFUHandler.select.enable
	.align	4
	.type	DFUHandler.select.enable,@function
	.cc_top DFUHandler.select.enable.function,DFUHandler.select.enable
DFUHandler.select.enable:               # @DFUHandler.select.enable
.Lfunc_begin21:
	.loc	3 0 0                   # <synthesized>:0:0
	.cfi_startproc
	.issue_mode dual
# BB#0:                                 # %allocas
	#DEBUG_VALUE: DFUHandler.select.enable:DFUHandler.select.state_ptr <- R0
	#DEBUG_VALUE: DFUHandler.select.enable:DFUHandler.select.state_ptr <- R1
	{
		mov r1, r0
		dualentsp 0
	}
.Ltmp655:
	{
		nop
		ldw r0, r1[0]
	}
	bf r0, .LBB21_1
# BB#2:                                 # %selectguardtrue
.Ltmp656:
	#DEBUG_VALUE: DFUHandler.select.enable:DFUHandler.select.state_ptr <- R1
	{
		nop
		ldw r0, r1[4]
	}
	.loc	3 430 9 prologue_end    # <synthesized>:430:9
.Ltmp657:
	{
		mkmsk r0, 1
		ldw r2, r0[0]
	}
	bf r2, .LBB21_4
.Ltmp658:
# BB#3:                                 # %interfacenotnull
	#DEBUG_VALUE: DFUHandler.select.enable:DFUHandler.select.state_ptr <- R1
	.loc	3 430 9                 # <synthesized>:430:9
	ldap r11, DFUHandler.select.case.0
	{
		setv res[r2], r11
		mov r11, r1
	}
	.loc	3 430 9                 # <synthesized>:430:9
	{
		setev res[r2], r11
		nop
	}
	.loc	3 430 9                 # <synthesized>:430:9
	{
		eeu res[r2]
		nop
	}
.Ltmp659:
.LBB21_4:                               # %return
	{
		nop
		retsp 0
	}
	# RETURN_REG_HOLDER
.LBB21_1:
	{
		ldc r0, 0
		retsp 0
	}
	# RETURN_REG_HOLDER
	.cc_bottom DFUHandler.select.enable.function
	.set	DFUHandler.select.enable.nstackwords,0
	.globl	DFUHandler.select.enable.nstackwords
	.set	DFUHandler.select.enable.maxcores,1
	.globl	DFUHandler.select.enable.maxcores
	.set	DFUHandler.select.enable.maxtimers,0
	.globl	DFUHandler.select.enable.maxtimers
	.set	DFUHandler.select.enable.maxchanends,0
	.globl	DFUHandler.select.enable.maxchanends
.Ltmp660:
	.size	DFUHandler.select.enable, .Ltmp660-DFUHandler.select.enable
.Lfunc_end21:
	.cfi_endproc

	.globl	DFUHandler.fini
	.align	4
	.type	DFUHandler.fini,@function
	.cc_top DFUHandler.fini.function,DFUHandler.fini
DFUHandler.fini:                        # @DFUHandler.fini
	.cfi_startproc
	.issue_mode dual
# BB#0:                                 # %allocas
	{
		nop
		dualentsp 0
	}
	#DEBUG_VALUE: DFUHandler.fini:DFUHandler.fini.state_ptr <- R0
	{
		nop
		ldw r0, r0[0]
	}
	bf r0, .LBB22_2
.LBB22_1:                               # %LoopTest
                                        # =>This Inner Loop Header: Depth=1
	bu .LBB22_1
.LBB22_2:                               # %return
	{
		nop
		retsp 0
	}
	# RETURN_REG_HOLDER
	.cc_bottom DFUHandler.fini.function
	.set	DFUHandler.fini.nstackwords,0
	.globl	DFUHandler.fini.nstackwords
	.set	DFUHandler.fini.maxcores,1
	.globl	DFUHandler.fini.maxcores
	.set	DFUHandler.fini.maxtimers,0
	.globl	DFUHandler.fini.maxtimers
	.set	DFUHandler.fini.maxchanends,0
	.globl	DFUHandler.fini.maxchanends
.Ltmp661:
	.size	DFUHandler.fini, .Ltmp661-DFUHandler.fini
	.cfi_endproc

	.section	.cp.rodata.cst4,"aMc",@progbits,4
	.cc_top .LCPI23_0.data,.LCPI23_0
	.align	4
	.type	.LCPI23_0,@object
	.size	.LCPI23_0, 4
.LCPI23_0:
	.long	4294967056              # 0xffffff10
	.cc_bottom .LCPI23_0.data
	.cc_top .LCPI23_1.data,.LCPI23_1
	.align	4
	.type	.LCPI23_1,@object
	.size	.LCPI23_1, 4
.LCPI23_1:
	.long	285483025               # 0x11042011
	.cc_bottom .LCPI23_1.data
	.cc_top .LCPI23_2.data,.LCPI23_2
	.align	4
	.type	.LCPI23_2,@object
	.size	.LCPI23_2, 4
.LCPI23_2:
	.long	25000000                # 0x17d7840
	.cc_bottom .LCPI23_2.data
	.cc_top .LCPI23_3.data,.LCPI23_3
	.align	4
	.type	.LCPI23_3,@object
	.size	.LCPI23_3, 4
.LCPI23_3:
	.long	100000                  # 0x186a0
	.cc_bottom .LCPI23_3.data
	.text
	.align	4
	.type	DFUHandler.select.0.case.0,@function
	.cc_top DFUHandler.select.0.case.0.function,DFUHandler.select.0.case.0
DFUHandler.select.0.case.0:             # @DFUHandler.select.0.case.0
.Lfunc_begin23:
	.loc	1 432 0                 # C:/Projects/UI-01_sw1_hw1/module_dfu/src/dfu.xc:432:0
	.cfi_startproc
	.issue_mode dual
# BB#0:                                 # %allocas
.Lxtalabel248:
	DUALENTSP_lu6 74
.Ltmp662:
	.cfi_def_cfa_offset 296
.Ltmp663:
	.cfi_offset 15, 0
	stw r4, sp[68]                  # 4-byte Folded Spill
	stw r5, sp[69]                  # 4-byte Folded Spill
.Ltmp664:
	.cfi_offset 4, -24
.Ltmp665:
	.cfi_offset 5, -20
	stw r6, sp[70]                  # 4-byte Folded Spill
	stw r7, sp[71]                  # 4-byte Folded Spill
.Ltmp666:
	.cfi_offset 6, -16
.Ltmp667:
	.cfi_offset 7, -12
	stw r8, sp[72]                  # 4-byte Folded Spill
	stw r9, sp[73]                  # 4-byte Folded Spill
.Ltmp668:
	.cfi_offset 8, -8
.Ltmp669:
	.cfi_offset 9, -4
	{
		get r11, ed
		nop
	}
	{
		mov r4, r11
		ldc r0, 0
	}
	{
		nop
		stw r0, r4[0]
	}
	{
		nop
		ldw r1, r4[4]
	}
	{
		nop
		ldw r6, r1[0]
	}
	{
		in r1, res[r6]
		nop
	}
	ldc r2, 254
	{
		add r2, r1, r2
		nop
	}
	{
		zext r2, 8
		nop
	}
	{
		sub r1, r1, r2
		nop
	}
	{
		setd res[r6], r1
		nop
	}
	bf r2, .LBB23_3
# BB#1:                                 # %switchcase
	{
		out res[r6], r0
		nop
	}
	{
		outct res[r6], 1
		nop
	}
	bu .LBB23_2
.LBB23_3:                               # %switchcase13
.Lxtalabel249:
	{
		outct res[r6], 1
		nop
	}
	{
		in r1, res[r6]
		nop
	}
	{
		in r0, res[r6]
		nop
	}
.Ltmp670:
	#DEBUG_VALUE: data_buffer_length <- R0
	#DEBUG_VALUE: dfuState <- R0
	#DEBUG_VALUE: tmpDfuState <- R0
	#DEBUG_VALUE: return_data_len <- 0
	#DEBUG_VALUE: reset_device_after_ack <- 0
	{
		in r0, res[r6]
		ldc r2, 0
	}
.Ltmp671:
	.loc	1 436 0 prologue_end    # C:/Projects/UI-01_sw1_hw1/module_dfu/src/dfu.xc:436:0
	stw r2, sp[67]
.Ltmp672:
	#DEBUG_VALUE: dfu_reset_override <- 0
	.loc	1 438 0                 # C:/Projects/UI-01_sw1_hw1/module_dfu/src/dfu.xc:438:0
	stw r0, sp[66]
	{
		ldc r3, 5
		nop
	}
.Ltmp673:
	#DEBUG_VALUE: returnVal <- 0
	.loc	1 442 0                 # C:/Projects/UI-01_sw1_hw1/module_dfu/src/dfu.xc:442:0
	{
		out res[r6], r3
		nop
	}
	.loc	1 442 0                 # C:/Projects/UI-01_sw1_hw1/module_dfu/src/dfu.xc:442:0
	{
		out res[r6], r2
		mkmsk r11, 2
	}
	.loc	1 442 0                 # C:/Projects/UI-01_sw1_hw1/module_dfu/src/dfu.xc:442:0
	{
		out res[r6], r11
		nop
	}
	.loc	1 442 0                 # C:/Projects/UI-01_sw1_hw1/module_dfu/src/dfu.xc:442:0
	{
		outct res[r6], 2
		nop
	}
	.loc	1 442 0                 # C:/Projects/UI-01_sw1_hw1/module_dfu/src/dfu.xc:442:0
	{
		in r5, res[r6]
		nop
	}
	.loc	1 442 0                 # C:/Projects/UI-01_sw1_hw1/module_dfu/src/dfu.xc:442:0
	{
		chkct res[r6], 1
		zext r5, 8
	}
	ldc r7, 239
	.loc	1 442 0                 # C:/Projects/UI-01_sw1_hw1/module_dfu/src/dfu.xc:442:0
	{
		lss r7, r7, r5
		nop
	}
	bt r7, .LBB23_6
# BB#4:                                 # %switchcase13
.Lxtalabel250:
	{
		ldc r7, 6
		nop
	}
	{
		lsu r8, r7, r5
		nop
	}
	bt r8, .LBB23_8
# BB#5:                                 # %switchcase13
.Lxtalabel251:

	.xtabranch .Ljumptable10+4,.Ljumptable10+8,.Ljumptable10+12,.Ljumptable10+16,.Ljumptable10+20,.Ljumptable10+24,.Ljumptable10+28
.Ljumptable10:
		
	{
		nop
		bru r5
	}
	.jmptable32 .LBB23_12,.LBB23_19,.LBB23_30,.LBB23_21,.LBB23_32,.LBB23_37,.LBB23_42
.LBB23_12:                              # %switchcase62
.Lxtalabel252:
	.loc	1 445 0                 # C:/Projects/UI-01_sw1_hw1/module_dfu/src/dfu.xc:445:0
	stw r0, sp[66]
	{
		ldc r1, 4
		nop
	}
	.loc	1 446 0                 # C:/Projects/UI-01_sw1_hw1/module_dfu/src/dfu.xc:446:0
	{
		out res[r6], r1
		ldc r5, 0
	}
	.loc	1 446 0                 # C:/Projects/UI-01_sw1_hw1/module_dfu/src/dfu.xc:446:0
	{
		out res[r6], r5
		ldc r1, 2
	}
	.loc	1 446 0                 # C:/Projects/UI-01_sw1_hw1/module_dfu/src/dfu.xc:446:0
	{
		out res[r6], r1
		nop
	}
	.loc	1 446 0                 # C:/Projects/UI-01_sw1_hw1/module_dfu/src/dfu.xc:446:0
	{
		outct res[r6], 2
		nop
	}
	.loc	1 446 0                 # C:/Projects/UI-01_sw1_hw1/module_dfu/src/dfu.xc:446:0
	{
		in r7, res[r6]
		nop
	}
	.loc	1 446 0                 # C:/Projects/UI-01_sw1_hw1/module_dfu/src/dfu.xc:446:0
	{
		chkct res[r6], 1
		nop
	}
	.loc	1 89 5                  # C:/Projects/UI-01_sw1_hw1/module_dfu/src/dfu.xc:89:5
.Ltmp674:
	bf r0, .LBB23_13
# BB#17:                                # %iffalse.i
.Lxtalabel253:
	{
		ldc r0, 10
		nop
	}
	.loc	1 103 0                 # C:/Projects/UI-01_sw1_hw1/module_dfu/src/dfu.xc:103:0
.Ltmp675:
	stw r0, sp[66]
	bu .LBB23_18
.Ltmp676:
.LBB23_19:                              # %afterboundcheck
                                        # =>This Inner Loop Header: Depth=1
.Lxtalabel254:
	.loc	1 453 0                 # C:/Projects/UI-01_sw1_hw1/module_dfu/src/dfu.xc:453:0
	{
		lsu r0, r2, r1
		nop
	}
.Ltrap_info17:
	{
		ecallf r0
		nop
	}
	.loc	1 453 0                 # C:/Projects/UI-01_sw1_hw1/module_dfu/src/dfu.xc:453:0
	{
		out res[r6], r11
		mkmsk r8, 1
	}
	.loc	1 453 0                 # C:/Projects/UI-01_sw1_hw1/module_dfu/src/dfu.xc:453:0
	{
		out res[r6], r8
		nop
	}
	.loc	1 453 0                 # C:/Projects/UI-01_sw1_hw1/module_dfu/src/dfu.xc:453:0
	{
		out res[r6], r2
		nop
	}
	.loc	1 453 0                 # C:/Projects/UI-01_sw1_hw1/module_dfu/src/dfu.xc:453:0
	{
		outct res[r6], 2
		nop
	}
	.loc	1 453 0                 # C:/Projects/UI-01_sw1_hw1/module_dfu/src/dfu.xc:453:0
	{
		in r0, res[r6]
		nop
	}
	.loc	1 453 0                 # C:/Projects/UI-01_sw1_hw1/module_dfu/src/dfu.xc:453:0
	{
		chkct res[r6], 1
		ldaw r3, sp[50]
	}
	.loc	1 453 0                 # C:/Projects/UI-01_sw1_hw1/module_dfu/src/dfu.xc:453:0
	stw r0, r3[r2]
.Ltmp677:
	#DEBUG_VALUE: i <- R2
	.loc	1 452 0                 # C:/Projects/UI-01_sw1_hw1/module_dfu/src/dfu.xc:452:0
	{
		add r2, r2, 1
		ldc r0, 16
	}
.Ltmp678:
	.loc	1 452 0                 # C:/Projects/UI-01_sw1_hw1/module_dfu/src/dfu.xc:452:0
	{
		lss r0, r2, r0
		nop
	}
.Lxta.loop_labels22:
	# LOOPMARKER 3
	bt r0, .LBB23_19
.Ltmp679:
# BB#20:                                # %ifdone
.Lxtalabel255:
	{
		ldc r1, 4
		nop
	}
	.loc	1 454 0                 # C:/Projects/UI-01_sw1_hw1/module_dfu/src/dfu.xc:454:0
	{
		out res[r6], r1
		ldc r7, 0
	}
	.loc	1 454 0                 # C:/Projects/UI-01_sw1_hw1/module_dfu/src/dfu.xc:454:0
	{
		out res[r6], r7
		nop
	}
	.loc	1 454 0                 # C:/Projects/UI-01_sw1_hw1/module_dfu/src/dfu.xc:454:0
	{
		out res[r6], r1
		nop
	}
	.loc	1 454 0                 # C:/Projects/UI-01_sw1_hw1/module_dfu/src/dfu.xc:454:0
	{
		outct res[r6], 2
		nop
	}
	.loc	1 454 0                 # C:/Projects/UI-01_sw1_hw1/module_dfu/src/dfu.xc:454:0
