	.text
	.file	"/home/evgeny/git/104/UI-01_sw1_hw1/lib_i2c/src/i2c_master.xc"
                                        # Start of file scope inline assembly
	.inline_definition __i_i2c_master_if_read_reg
	.inline_definition __i_i2c_master_if_write_reg
	.inline_definition __i_i2c_master_if_read_reg8_addr16
	.inline_definition __i_i2c_master_if_write_reg8_addr16
	.inline_definition __i_i2c_master_if_read_reg16
	.inline_definition __i_i2c_master_if_write_reg16
	.inline_definition __i_i2c_master_if_read_reg16_addr8
	.inline_definition __i_i2c_master_if_write_reg16_addr8
	.inline_definition delay_seconds
	.inline_definition delay_milliseconds
	.inline_definition delay_microseconds
	.inline_definition xassert_msg
	.add_to_set compute_low_period_ticks.0.maxargsize.group, 1
	.set compute_low_period_ticks.0.maxargsize.group, 0
	.max_reduce compute_low_period_ticks.0.maxargsize, compute_low_period_ticks.0.maxargsize.group, 0
	.add_to_set compute_bus_off_ticks.0.maxargsize.group, 1
	.set compute_bus_off_ticks.0.maxargsize.group, 0
	.max_reduce compute_bus_off_ticks.0.maxargsize, compute_bus_off_ticks.0.maxargsize.group, 0
	.add_to_set high_pulse_sample.2.maxargsize.group, 1
	.set high_pulse_sample.2.maxargsize.group, 0
	.max_reduce high_pulse_sample.2.maxargsize, high_pulse_sample.2.maxargsize.group, 0
	.add_to_set compute_low_period_ticks.0.maxargsize.group, high_pulse_sample.2.maxargsize
	.add_to_set high_pulse.1.maxargsize.group, 1
	.set high_pulse.1.maxargsize.group, 0
	.max_reduce high_pulse.1.maxargsize, high_pulse.1.maxargsize.group, 0
	.add_to_set compute_low_period_ticks.0.maxargsize.group, high_pulse.1.maxargsize
	.add_to_set start_bit.2.maxargsize.group, 1
	.set start_bit.2.maxargsize.group, 0
	.max_reduce start_bit.2.maxargsize, start_bit.2.maxargsize.group, 0
	.add_to_set compute_low_period_ticks.0.maxargsize.group, start_bit.2.maxargsize
	.add_to_set compute_bus_off_ticks.0.maxargsize.group, start_bit.2.maxargsize
	.add_to_set stop_bit.2.maxargsize.group, 1
	.set stop_bit.2.maxargsize.group, 0
	.max_reduce stop_bit.2.maxargsize, stop_bit.2.maxargsize.group, 0
	.add_to_set compute_low_period_ticks.0.maxargsize.group, stop_bit.2.maxargsize
	.add_to_set compute_bus_off_ticks.0.maxargsize.group, stop_bit.2.maxargsize
	.add_to_set tx8.3.maxargsize.group, 1
	.set tx8.3.maxargsize.group, 0
	.max_reduce tx8.3.maxargsize, tx8.3.maxargsize.group, 0
	.add_to_set high_pulse.1.maxargsize.group, tx8.3.maxargsize
	.add_to_set high_pulse_sample.2.maxargsize.group, tx8.3.maxargsize
	.weak i2c_master.4.maxargsize.group
	.globl i2c_master.4.maxargsize.group
	.add_to_set i2c_master.4.maxargsize.group, 1
	.weak i2c_master.4.maxargsize
	.globl i2c_master.4.maxargsize
	.max_reduce i2c_master.4.maxargsize, i2c_master.4.maxargsize.group, 0
	.add_to_set stop_bit.2.maxargsize.group, i2c_master.4.maxargsize
	.add_to_set start_bit.2.maxargsize.group, i2c_master.4.maxargsize
	.add_to_set tx8.3.maxargsize.group, i2c_master.4.maxargsize
	.add_to_set tx8.3.maxargsize.group, i2c_master.4.maxargsize
	.add_to_set stop_bit.2.maxargsize.group, i2c_master.4.maxargsize
	.add_to_set start_bit.2.maxargsize.group, i2c_master.4.maxargsize
	.add_to_set tx8.3.maxargsize.group, i2c_master.4.maxargsize
	.add_to_set high_pulse_sample.2.maxargsize.group, i2c_master.4.maxargsize
	.add_to_set compute_low_period_ticks.0.maxargsize.group, i2c_master.4.maxargsize
	.add_to_set high_pulse.1.maxargsize.group, i2c_master.4.maxargsize
	.add_to_set stop_bit.2.maxargsize.group, i2c_master.4.maxargsize
	.add_to_set stop_bit.2.maxargsize.group, i2c_master.4.maxargsize
	.add_to_set start_bit.2.maxargsize.group, i2c_master.4.maxargsize
	.add_to_set tx8.3.maxargsize.group, i2c_master.4.maxargsize
	.add_to_set tx8.3.maxargsize.group, i2c_master.4.maxargsize
	.add_to_set stop_bit.2.maxargsize.group, i2c_master.4.maxargsize
	.add_to_set start_bit.2.maxargsize.group, i2c_master.4.maxargsize
	.add_to_set tx8.3.maxargsize.group, i2c_master.4.maxargsize
	.add_to_set high_pulse_sample.2.maxargsize.group, i2c_master.4.maxargsize
	.add_to_set compute_low_period_ticks.0.maxargsize.group, i2c_master.4.maxargsize
	.add_to_set high_pulse.1.maxargsize.group, i2c_master.4.maxargsize
	.add_to_set stop_bit.2.maxargsize.group, i2c_master.4.maxargsize
	.set i2c_master.select.0.enable.savedstate,42
	.globl i2c_master.select.0.enable.savedstate
	.set i2c_master.select.0.enable.cases.maxtimers,0 $M i2c_master.select.0.case.0.maxtimers
	.globl i2c_master.select.0.enable.cases.maxtimers
	.set i2c_master.select.0.enable.cases.maxcores,0 $M i2c_master.select.0.case.0.maxcores
	.globl i2c_master.select.0.enable.cases.maxcores
	.set i2c_master.select.0.enable.cases.maxchanends,0 $M i2c_master.select.0.case.0.maxchanends
	.globl i2c_master.select.0.enable.cases.maxchanends
	.set i2c_master.select.0.enable.cases,0
	.globl i2c_master.select.0.enable.cases
	.set i2c_master.select.0.enable.cases.nstackwords, 0 $M (i2c_master.select.0.case.0.nstackwords)
	.globl i2c_master.select.0.enable.cases.nstackwords
	.set i2c_master.dynalloc_maxchanends, 0
	.globl i2c_master.dynalloc_maxchanends
	.set i2c_master.dynalloc_maxcores, 0
	.globl i2c_master.dynalloc_maxcores
	.set i2c_master.dynalloc_maxtimers, 0
	.globl i2c_master.dynalloc_maxtimers
	.set i2c_master.init.0.savedstate,42
	.globl i2c_master.init.0.savedstate
	.add_to_set stop_bit.2.maxargsize.group, i2c_master.4.maxargsize
	.add_to_set start_bit.2.maxargsize.group, i2c_master.4.maxargsize
	.add_to_set tx8.3.maxargsize.group, i2c_master.4.maxargsize
	.add_to_set tx8.3.maxargsize.group, i2c_master.4.maxargsize
	.add_to_set stop_bit.2.maxargsize.group, i2c_master.4.maxargsize
	.add_to_set start_bit.2.maxargsize.group, i2c_master.4.maxargsize
	.add_to_set tx8.3.maxargsize.group, i2c_master.4.maxargsize
	.add_to_set high_pulse_sample.2.maxargsize.group, i2c_master.4.maxargsize
	.add_to_set compute_low_period_ticks.0.maxargsize.group, i2c_master.4.maxargsize
	.add_to_set high_pulse.1.maxargsize.group, i2c_master.4.maxargsize
	.add_to_set stop_bit.2.maxargsize.group, i2c_master.4.maxargsize
	.set i2c_master.select.yield.enable.savedstate,42
	.globl i2c_master.select.yield.enable.savedstate
	.set i2c_master.select.yield.enable.cases.maxtimers,0 $M i2c_master.select.yield.case.0.maxtimers
	.globl i2c_master.select.yield.enable.cases.maxtimers
	.set i2c_master.select.yield.enable.cases.maxcores,0 $M i2c_master.select.yield.case.0.maxcores
	.globl i2c_master.select.yield.enable.cases.maxcores
	.set i2c_master.select.yield.enable.cases.maxchanends,0 $M i2c_master.select.yield.case.0.maxchanends
	.globl i2c_master.select.yield.enable.cases.maxchanends
	.set i2c_master.select.yield.enable.cases,0
	.globl i2c_master.select.yield.enable.cases
	.set i2c_master.select.yield.enable.cases.nstackwords, 0 $M (i2c_master.select.yield.case.0.nstackwords)
	.globl i2c_master.select.yield.enable.cases.nstackwords
	.add_to_set stop_bit.2.maxargsize.group, i2c_master.4.maxargsize
	.add_to_set start_bit.2.maxargsize.group, i2c_master.4.maxargsize
	.add_to_set tx8.3.maxargsize.group, i2c_master.4.maxargsize
	.add_to_set tx8.3.maxargsize.group, i2c_master.4.maxargsize
	.add_to_set stop_bit.2.maxargsize.group, i2c_master.4.maxargsize
	.add_to_set start_bit.2.maxargsize.group, i2c_master.4.maxargsize
	.add_to_set tx8.3.maxargsize.group, i2c_master.4.maxargsize
	.add_to_set high_pulse_sample.2.maxargsize.group, i2c_master.4.maxargsize
	.add_to_set compute_low_period_ticks.0.maxargsize.group, i2c_master.4.maxargsize
	.add_to_set high_pulse.1.maxargsize.group, i2c_master.4.maxargsize
	.add_to_set stop_bit.2.maxargsize.group, i2c_master.4.maxargsize
	.set i2c_master.select.enable.savedstate,42
	.globl i2c_master.select.enable.savedstate
	.set i2c_master.select.enable.cases.maxtimers,0 $M i2c_master.select.case.0.maxtimers
	.globl i2c_master.select.enable.cases.maxtimers
	.set i2c_master.select.enable.cases.maxcores,0 $M i2c_master.select.case.0.maxcores
	.globl i2c_master.select.enable.cases.maxcores
	.set i2c_master.select.enable.cases.maxchanends,0 $M i2c_master.select.case.0.maxchanends
	.globl i2c_master.select.enable.cases.maxchanends
	.set i2c_master.select.enable.cases,0
	.globl i2c_master.select.enable.cases
	.set i2c_master.select.enable.cases.nstackwords, 0 $M (i2c_master.select.case.0.nstackwords)
	.globl i2c_master.select.enable.cases.nstackwords
	.weak _Si2c_master_0.3.maxargsize.group
	.globl _Si2c_master_0.3.maxargsize.group
	.add_to_set _Si2c_master_0.3.maxargsize.group, 1
	.weak _Si2c_master_0.3.maxargsize
	.globl _Si2c_master_0.3.maxargsize
	.max_reduce _Si2c_master_0.3.maxargsize, _Si2c_master_0.3.maxargsize.group, 0
	.add_to_set stop_bit.2.maxargsize.group, _Si2c_master_0.3.maxargsize
	.add_to_set start_bit.2.maxargsize.group, _Si2c_master_0.3.maxargsize
	.add_to_set tx8.3.maxargsize.group, _Si2c_master_0.3.maxargsize
	.add_to_set tx8.3.maxargsize.group, _Si2c_master_0.3.maxargsize
	.add_to_set stop_bit.2.maxargsize.group, _Si2c_master_0.3.maxargsize
	.add_to_set start_bit.2.maxargsize.group, _Si2c_master_0.3.maxargsize
	.add_to_set tx8.3.maxargsize.group, _Si2c_master_0.3.maxargsize
	.add_to_set high_pulse_sample.2.maxargsize.group, _Si2c_master_0.3.maxargsize
	.add_to_set compute_low_period_ticks.0.maxargsize.group, _Si2c_master_0.3.maxargsize
	.add_to_set high_pulse.1.maxargsize.group, _Si2c_master_0.3.maxargsize
	.add_to_set stop_bit.2.maxargsize.group, _Si2c_master_0.3.maxargsize
	.set _Si2c_master_0.select.0.enable.savedstate,40
	.globl _Si2c_master_0.select.0.enable.savedstate
	.set _Si2c_master_0.select.0.enable.cases.maxtimers,0
	.globl _Si2c_master_0.select.0.enable.cases.maxtimers
	.set _Si2c_master_0.select.0.enable.cases.maxcores,0
	.globl _Si2c_master_0.select.0.enable.cases.maxcores
	.set _Si2c_master_0.select.0.enable.cases.maxchanends,0
	.globl _Si2c_master_0.select.0.enable.cases.maxchanends
	.set _Si2c_master_0.select.0.enable.cases,0
	.globl _Si2c_master_0.select.0.enable.cases
	.set _Si2c_master_0.select.0.enable.cases.nstackwords, 0
	.globl _Si2c_master_0.select.0.enable.cases.nstackwords
	.set _Si2c_master_0.dynalloc_maxchanends, 0
	.globl _Si2c_master_0.dynalloc_maxchanends
	.set _Si2c_master_0.dynalloc_maxcores, 0
	.globl _Si2c_master_0.dynalloc_maxcores
	.set _Si2c_master_0.dynalloc_maxtimers, 0
	.globl _Si2c_master_0.dynalloc_maxtimers
	.set _Si2c_master_0.init.0.savedstate,40
	.globl _Si2c_master_0.init.0.savedstate
	.set _Si2c_master_0.select.yield.enable.savedstate,40
	.globl _Si2c_master_0.select.yield.enable.savedstate
	.set _Si2c_master_0.select.yield.enable.cases.maxtimers,0
	.globl _Si2c_master_0.select.yield.enable.cases.maxtimers
	.set _Si2c_master_0.select.yield.enable.cases.maxcores,0
	.globl _Si2c_master_0.select.yield.enable.cases.maxcores
	.set _Si2c_master_0.select.yield.enable.cases.maxchanends,0
	.globl _Si2c_master_0.select.yield.enable.cases.maxchanends
	.set _Si2c_master_0.select.yield.enable.cases,0
	.globl _Si2c_master_0.select.yield.enable.cases
	.set _Si2c_master_0.select.yield.enable.cases.nstackwords, 0
	.globl _Si2c_master_0.select.yield.enable.cases.nstackwords
	.set _Si2c_master_0.select.enable.savedstate,40
	.globl _Si2c_master_0.select.enable.savedstate
	.set _Si2c_master_0.select.enable.cases.maxtimers,0
	.globl _Si2c_master_0.select.enable.cases.maxtimers
	.set _Si2c_master_0.select.enable.cases.maxcores,0
	.globl _Si2c_master_0.select.enable.cases.maxcores
	.set _Si2c_master_0.select.enable.cases.maxchanends,0
	.globl _Si2c_master_0.select.enable.cases.maxchanends
	.set _Si2c_master_0.select.enable.cases,0
	.globl _Si2c_master_0.select.enable.cases
	.set _Si2c_master_0.select.enable.cases.nstackwords, 0
	.globl _Si2c_master_0.select.enable.cases.nstackwords
	.add_to_set stop_bit.2.maxargsize.group, i2c_master.4.maxargsize
	.add_to_set start_bit.2.maxargsize.group, i2c_master.4.maxargsize
	.add_to_set tx8.3.maxargsize.group, i2c_master.4.maxargsize
	.add_to_set tx8.3.maxargsize.group, i2c_master.4.maxargsize
	.add_to_set stop_bit.2.maxargsize.group, i2c_master.4.maxargsize
	.add_to_set start_bit.2.maxargsize.group, i2c_master.4.maxargsize
	.add_to_set tx8.3.maxargsize.group, i2c_master.4.maxargsize
	.add_to_set high_pulse_sample.2.maxargsize.group, i2c_master.4.maxargsize
	.add_to_set compute_low_period_ticks.0.maxargsize.group, i2c_master.4.maxargsize
	.add_to_set high_pulse.1.maxargsize.group, i2c_master.4.maxargsize
	.add_to_set stop_bit.2.maxargsize.group, i2c_master.4.maxargsize
	.add_to_set stop_bit.2.maxargsize.group, i2c_master.4.maxargsize
	.add_to_set start_bit.2.maxargsize.group, i2c_master.4.maxargsize
	.add_to_set tx8.3.maxargsize.group, i2c_master.4.maxargsize
	.add_to_set tx8.3.maxargsize.group, i2c_master.4.maxargsize
	.add_to_set stop_bit.2.maxargsize.group, i2c_master.4.maxargsize
	.add_to_set start_bit.2.maxargsize.group, i2c_master.4.maxargsize
	.add_to_set tx8.3.maxargsize.group, i2c_master.4.maxargsize
	.add_to_set high_pulse_sample.2.maxargsize.group, i2c_master.4.maxargsize
	.add_to_set compute_low_period_ticks.0.maxargsize.group, i2c_master.4.maxargsize
	.add_to_set high_pulse.1.maxargsize.group, i2c_master.4.maxargsize
	.add_to_set stop_bit.2.maxargsize.group, i2c_master.4.maxargsize
	.add_to_set stop_bit.2.maxargsize.group, _Si2c_master_0.3.maxargsize
	.add_to_set start_bit.2.maxargsize.group, _Si2c_master_0.3.maxargsize
	.add_to_set tx8.3.maxargsize.group, _Si2c_master_0.3.maxargsize
	.add_to_set tx8.3.maxargsize.group, _Si2c_master_0.3.maxargsize
	.add_to_set stop_bit.2.maxargsize.group, _Si2c_master_0.3.maxargsize
	.add_to_set start_bit.2.maxargsize.group, _Si2c_master_0.3.maxargsize
	.add_to_set tx8.3.maxargsize.group, _Si2c_master_0.3.maxargsize
	.add_to_set high_pulse_sample.2.maxargsize.group, _Si2c_master_0.3.maxargsize
	.add_to_set compute_low_period_ticks.0.maxargsize.group, _Si2c_master_0.3.maxargsize
	.add_to_set high_pulse.1.maxargsize.group, _Si2c_master_0.3.maxargsize
	.add_to_set stop_bit.2.maxargsize.group, _Si2c_master_0.3.maxargsize
	.add_to_set stop_bit.2.maxargsize.group, _Si2c_master_0.3.maxargsize
	.add_to_set start_bit.2.maxargsize.group, _Si2c_master_0.3.maxargsize
	.add_to_set tx8.3.maxargsize.group, _Si2c_master_0.3.maxargsize
	.add_to_set tx8.3.maxargsize.group, _Si2c_master_0.3.maxargsize
	.add_to_set stop_bit.2.maxargsize.group, _Si2c_master_0.3.maxargsize
	.add_to_set start_bit.2.maxargsize.group, _Si2c_master_0.3.maxargsize
	.add_to_set tx8.3.maxargsize.group, _Si2c_master_0.3.maxargsize
	.add_to_set high_pulse_sample.2.maxargsize.group, _Si2c_master_0.3.maxargsize
	.add_to_set compute_low_period_ticks.0.maxargsize.group, _Si2c_master_0.3.maxargsize
	.add_to_set high_pulse.1.maxargsize.group, _Si2c_master_0.3.maxargsize
	.add_to_set stop_bit.2.maxargsize.group, _Si2c_master_0.3.maxargsize
	.weak _i.i2c_slave_callback_if.ack_read_request.maxchanends.group
	.max_reduce _i.i2c_slave_callback_if.ack_read_request.max.maxchanends, _i.i2c_slave_callback_if.ack_read_request.maxchanends.group, 0
	.weak _i.i2c_slave_callback_if.ack_read_request.maxcores.group
	.max_reduce _i.i2c_slave_callback_if.ack_read_request.max.maxcores, _i.i2c_slave_callback_if.ack_read_request.maxcores.group, 0
	.weak _i.i2c_slave_callback_if.ack_read_request.maxtimers.group
	.max_reduce _i.i2c_slave_callback_if.ack_read_request.max.maxtimers, _i.i2c_slave_callback_if.ack_read_request.maxtimers.group, 0
	.weak _i.i2c_slave_callback_if.ack_read_request.nstackwords.group
	.globl _i.i2c_slave_callback_if.ack_read_request.nstackwords.group
	.weak _i.i2c_slave_callback_if.ack_read_request.fns.group
	.globl _i.i2c_slave_callback_if.ack_read_request.fns.group
	.max_reduce _i.i2c_slave_callback_if.ack_read_request.max.nstackwords, _i.i2c_slave_callback_if.ack_read_request.nstackwords.group, 0
	.max_reduce _i.i2c_slave_callback_if.ack_read_request.fns, _i.i2c_slave_callback_if.ack_read_request.fns.group, 0
	.weak _i.i2c_slave_callback_if.ack_write_request.maxchanends.group
	.max_reduce _i.i2c_slave_callback_if.ack_write_request.max.maxchanends, _i.i2c_slave_callback_if.ack_write_request.maxchanends.group, 0
	.weak _i.i2c_slave_callback_if.ack_write_request.maxcores.group
	.max_reduce _i.i2c_slave_callback_if.ack_write_request.max.maxcores, _i.i2c_slave_callback_if.ack_write_request.maxcores.group, 0
	.weak _i.i2c_slave_callback_if.ack_write_request.maxtimers.group
	.max_reduce _i.i2c_slave_callback_if.ack_write_request.max.maxtimers, _i.i2c_slave_callback_if.ack_write_request.maxtimers.group, 0
	.weak _i.i2c_slave_callback_if.ack_write_request.nstackwords.group
	.globl _i.i2c_slave_callback_if.ack_write_request.nstackwords.group
	.weak _i.i2c_slave_callback_if.ack_write_request.fns.group
	.globl _i.i2c_slave_callback_if.ack_write_request.fns.group
	.max_reduce _i.i2c_slave_callback_if.ack_write_request.max.nstackwords, _i.i2c_slave_callback_if.ack_write_request.nstackwords.group, 0
	.max_reduce _i.i2c_slave_callback_if.ack_write_request.fns, _i.i2c_slave_callback_if.ack_write_request.fns.group, 0
	.weak _i.i2c_slave_callback_if.master_requires_data.maxchanends.group
	.max_reduce _i.i2c_slave_callback_if.master_requires_data.max.maxchanends, _i.i2c_slave_callback_if.master_requires_data.maxchanends.group, 0
	.weak _i.i2c_slave_callback_if.master_requires_data.maxcores.group
	.max_reduce _i.i2c_slave_callback_if.master_requires_data.max.maxcores, _i.i2c_slave_callback_if.master_requires_data.maxcores.group, 0
	.weak _i.i2c_slave_callback_if.master_requires_data.maxtimers.group
	.max_reduce _i.i2c_slave_callback_if.master_requires_data.max.maxtimers, _i.i2c_slave_callback_if.master_requires_data.maxtimers.group, 0
	.weak _i.i2c_slave_callback_if.master_requires_data.nstackwords.group
	.globl _i.i2c_slave_callback_if.master_requires_data.nstackwords.group
	.weak _i.i2c_slave_callback_if.master_requires_data.fns.group
	.globl _i.i2c_slave_callback_if.master_requires_data.fns.group
	.max_reduce _i.i2c_slave_callback_if.master_requires_data.max.nstackwords, _i.i2c_slave_callback_if.master_requires_data.nstackwords.group, 0
	.max_reduce _i.i2c_slave_callback_if.master_requires_data.fns, _i.i2c_slave_callback_if.master_requires_data.fns.group, 0
	.weak _i.i2c_slave_callback_if.master_sent_data.maxchanends.group
	.max_reduce _i.i2c_slave_callback_if.master_sent_data.max.maxchanends, _i.i2c_slave_callback_if.master_sent_data.maxchanends.group, 0
	.weak _i.i2c_slave_callback_if.master_sent_data.maxcores.group
	.max_reduce _i.i2c_slave_callback_if.master_sent_data.max.maxcores, _i.i2c_slave_callback_if.master_sent_data.maxcores.group, 0
	.weak _i.i2c_slave_callback_if.master_sent_data.maxtimers.group
	.max_reduce _i.i2c_slave_callback_if.master_sent_data.max.maxtimers, _i.i2c_slave_callback_if.master_sent_data.maxtimers.group, 0
	.weak _i.i2c_slave_callback_if.master_sent_data.nstackwords.group
	.globl _i.i2c_slave_callback_if.master_sent_data.nstackwords.group
	.weak _i.i2c_slave_callback_if.master_sent_data.fns.group
	.globl _i.i2c_slave_callback_if.master_sent_data.fns.group
	.max_reduce _i.i2c_slave_callback_if.master_sent_data.max.nstackwords, _i.i2c_slave_callback_if.master_sent_data.nstackwords.group, 0
	.max_reduce _i.i2c_slave_callback_if.master_sent_data.fns, _i.i2c_slave_callback_if.master_sent_data.fns.group, 0
	.weak _i.i2c_slave_callback_if.stop_bit.maxchanends.group
	.max_reduce _i.i2c_slave_callback_if.stop_bit.max.maxchanends, _i.i2c_slave_callback_if.stop_bit.maxchanends.group, 0
	.weak _i.i2c_slave_callback_if.stop_bit.maxcores.group
	.max_reduce _i.i2c_slave_callback_if.stop_bit.max.maxcores, _i.i2c_slave_callback_if.stop_bit.maxcores.group, 0
	.weak _i.i2c_slave_callback_if.stop_bit.maxtimers.group
	.max_reduce _i.i2c_slave_callback_if.stop_bit.max.maxtimers, _i.i2c_slave_callback_if.stop_bit.maxtimers.group, 0
	.weak _i.i2c_slave_callback_if.stop_bit.nstackwords.group
	.globl _i.i2c_slave_callback_if.stop_bit.nstackwords.group
	.weak _i.i2c_slave_callback_if.stop_bit.fns.group
	.globl _i.i2c_slave_callback_if.stop_bit.fns.group
	.max_reduce _i.i2c_slave_callback_if.stop_bit.max.nstackwords, _i.i2c_slave_callback_if.stop_bit.nstackwords.group, 0
	.max_reduce _i.i2c_slave_callback_if.stop_bit.fns, _i.i2c_slave_callback_if.stop_bit.fns.group, 0
	.weak _i.i2c_slave_callback_if.__interface_init.maxchanends.group
	.max_reduce _i.i2c_slave_callback_if.__interface_init.max.maxchanends, _i.i2c_slave_callback_if.__interface_init.maxchanends.group, 0
	.weak _i.i2c_slave_callback_if.__interface_init.maxcores.group
	.max_reduce _i.i2c_slave_callback_if.__interface_init.max.maxcores, _i.i2c_slave_callback_if.__interface_init.maxcores.group, 0
	.weak _i.i2c_slave_callback_if.__interface_init.maxtimers.group
	.max_reduce _i.i2c_slave_callback_if.__interface_init.max.maxtimers, _i.i2c_slave_callback_if.__interface_init.maxtimers.group, 0
	.weak _i.i2c_slave_callback_if.__interface_init.nstackwords.group
	.globl _i.i2c_slave_callback_if.__interface_init.nstackwords.group
	.weak _i.i2c_slave_callback_if.__interface_init.fns.group
	.globl _i.i2c_slave_callback_if.__interface_init.fns.group
	.max_reduce _i.i2c_slave_callback_if.__interface_init.max.nstackwords, _i.i2c_slave_callback_if.__interface_init.nstackwords.group, 0
	.max_reduce _i.i2c_slave_callback_if.__interface_init.fns, _i.i2c_slave_callback_if.__interface_init.fns.group, 0
	.weak _i.i2c_slave_callback_if._client_call_y.maxchanends.group
	.add_to_set _i.i2c_slave_callback_if._client_call_y.maxchanends.group, (__interface_client_call_y_other.maxchanends + __interface_client_call_y_extra.maxchanends), __interface_client_call_y_other
	.max_reduce _i.i2c_slave_callback_if._client_call_y.max.maxchanends, _i.i2c_slave_callback_if._client_call_y.maxchanends.group, 0
	.weak _i.i2c_slave_callback_if._client_call_y.maxcores.group
	.add_to_set _i.i2c_slave_callback_if._client_call_y.maxcores.group, (__interface_client_call_y_other.maxcores + __interface_client_call_y_extra.maxcores), __interface_client_call_y_other
	.max_reduce _i.i2c_slave_callback_if._client_call_y.max.maxcores, _i.i2c_slave_callback_if._client_call_y.maxcores.group, 0
	.weak _i.i2c_slave_callback_if._client_call_y.maxtimers.group
	.add_to_set _i.i2c_slave_callback_if._client_call_y.maxtimers.group, (__interface_client_call_y_other.maxtimers + __interface_client_call_y_extra.maxtimers), __interface_client_call_y_other
	.max_reduce _i.i2c_slave_callback_if._client_call_y.max.maxtimers, _i.i2c_slave_callback_if._client_call_y.maxtimers.group, 0
	.weak _i.i2c_slave_callback_if._client_call_y.nstackwords.group
	.globl _i.i2c_slave_callback_if._client_call_y.nstackwords.group
	.weak _i.i2c_slave_callback_if._client_call_y.fns.group
	.globl _i.i2c_slave_callback_if._client_call_y.fns.group
	.add_to_set _i.i2c_slave_callback_if._client_call_y.nstackwords.group, (__interface_client_call_y_other.nstackwords + __interface_client_call_y_extra.nstackwords), __interface_client_call_y_other
	.add_to_set _i.i2c_slave_callback_if._client_call_y.fns.group, __interface_client_call_y_other, __interface_client_call_y_other
	.max_reduce _i.i2c_slave_callback_if._client_call_y.max.nstackwords, _i.i2c_slave_callback_if._client_call_y.nstackwords.group, 0
	.max_reduce _i.i2c_slave_callback_if._client_call_y.fns, _i.i2c_slave_callback_if._client_call_y.fns.group, 0
	.weak _i.i2c_master_async_if.write.maxchanends.group
	.max_reduce _i.i2c_master_async_if.write.max.maxchanends, _i.i2c_master_async_if.write.maxchanends.group, 0
	.weak _i.i2c_master_async_if.write.maxcores.group
	.max_reduce _i.i2c_master_async_if.write.max.maxcores, _i.i2c_master_async_if.write.maxcores.group, 0
	.weak _i.i2c_master_async_if.write.maxtimers.group
	.max_reduce _i.i2c_master_async_if.write.max.maxtimers, _i.i2c_master_async_if.write.maxtimers.group, 0
	.weak _i.i2c_master_async_if.write.nstackwords.group
	.globl _i.i2c_master_async_if.write.nstackwords.group
	.weak _i.i2c_master_async_if.write.fns.group
	.globl _i.i2c_master_async_if.write.fns.group
	.max_reduce _i.i2c_master_async_if.write.max.nstackwords, _i.i2c_master_async_if.write.nstackwords.group, 0
	.max_reduce _i.i2c_master_async_if.write.fns, _i.i2c_master_async_if.write.fns.group, 0
	.weak _i.i2c_master_async_if.read.maxchanends.group
	.max_reduce _i.i2c_master_async_if.read.max.maxchanends, _i.i2c_master_async_if.read.maxchanends.group, 0
	.weak _i.i2c_master_async_if.read.maxcores.group
	.max_reduce _i.i2c_master_async_if.read.max.maxcores, _i.i2c_master_async_if.read.maxcores.group, 0
	.weak _i.i2c_master_async_if.read.maxtimers.group
	.max_reduce _i.i2c_master_async_if.read.max.maxtimers, _i.i2c_master_async_if.read.maxtimers.group, 0
	.weak _i.i2c_master_async_if.read.nstackwords.group
	.globl _i.i2c_master_async_if.read.nstackwords.group
	.weak _i.i2c_master_async_if.read.fns.group
	.globl _i.i2c_master_async_if.read.fns.group
	.max_reduce _i.i2c_master_async_if.read.max.nstackwords, _i.i2c_master_async_if.read.nstackwords.group, 0
	.max_reduce _i.i2c_master_async_if.read.fns, _i.i2c_master_async_if.read.fns.group, 0
	.weak _i.i2c_master_async_if.get_write_result.maxchanends.group
	.max_reduce _i.i2c_master_async_if.get_write_result.max.maxchanends, _i.i2c_master_async_if.get_write_result.maxchanends.group, 0
	.weak _i.i2c_master_async_if.get_write_result.maxcores.group
	.max_reduce _i.i2c_master_async_if.get_write_result.max.maxcores, _i.i2c_master_async_if.get_write_result.maxcores.group, 0
	.weak _i.i2c_master_async_if.get_write_result.maxtimers.group
	.max_reduce _i.i2c_master_async_if.get_write_result.max.maxtimers, _i.i2c_master_async_if.get_write_result.maxtimers.group, 0
	.weak _i.i2c_master_async_if.get_write_result.nstackwords.group
	.globl _i.i2c_master_async_if.get_write_result.nstackwords.group
	.weak _i.i2c_master_async_if.get_write_result.fns.group
	.globl _i.i2c_master_async_if.get_write_result.fns.group
	.max_reduce _i.i2c_master_async_if.get_write_result.max.nstackwords, _i.i2c_master_async_if.get_write_result.nstackwords.group, 0
	.max_reduce _i.i2c_master_async_if.get_write_result.fns, _i.i2c_master_async_if.get_write_result.fns.group, 0
	.weak _i.i2c_master_async_if.get_read_data.maxchanends.group
	.max_reduce _i.i2c_master_async_if.get_read_data.max.maxchanends, _i.i2c_master_async_if.get_read_data.maxchanends.group, 0
	.weak _i.i2c_master_async_if.get_read_data.maxcores.group
	.max_reduce _i.i2c_master_async_if.get_read_data.max.maxcores, _i.i2c_master_async_if.get_read_data.maxcores.group, 0
	.weak _i.i2c_master_async_if.get_read_data.maxtimers.group
	.max_reduce _i.i2c_master_async_if.get_read_data.max.maxtimers, _i.i2c_master_async_if.get_read_data.maxtimers.group, 0
	.weak _i.i2c_master_async_if.get_read_data.nstackwords.group
	.globl _i.i2c_master_async_if.get_read_data.nstackwords.group
	.weak _i.i2c_master_async_if.get_read_data.fns.group
	.globl _i.i2c_master_async_if.get_read_data.fns.group
	.max_reduce _i.i2c_master_async_if.get_read_data.max.nstackwords, _i.i2c_master_async_if.get_read_data.nstackwords.group, 0
	.max_reduce _i.i2c_master_async_if.get_read_data.fns, _i.i2c_master_async_if.get_read_data.fns.group, 0
	.weak _i.i2c_master_async_if.send_stop_bit.maxchanends.group
	.max_reduce _i.i2c_master_async_if.send_stop_bit.max.maxchanends, _i.i2c_master_async_if.send_stop_bit.maxchanends.group, 0
	.weak _i.i2c_master_async_if.send_stop_bit.maxcores.group
	.max_reduce _i.i2c_master_async_if.send_stop_bit.max.maxcores, _i.i2c_master_async_if.send_stop_bit.maxcores.group, 0
	.weak _i.i2c_master_async_if.send_stop_bit.maxtimers.group
	.max_reduce _i.i2c_master_async_if.send_stop_bit.max.maxtimers, _i.i2c_master_async_if.send_stop_bit.maxtimers.group, 0
	.weak _i.i2c_master_async_if.send_stop_bit.nstackwords.group
	.globl _i.i2c_master_async_if.send_stop_bit.nstackwords.group
	.weak _i.i2c_master_async_if.send_stop_bit.fns.group
	.globl _i.i2c_master_async_if.send_stop_bit.fns.group
	.max_reduce _i.i2c_master_async_if.send_stop_bit.max.nstackwords, _i.i2c_master_async_if.send_stop_bit.nstackwords.group, 0
	.max_reduce _i.i2c_master_async_if.send_stop_bit.fns, _i.i2c_master_async_if.send_stop_bit.fns.group, 0
	.weak _i.i2c_master_async_if.shutdown.maxchanends.group
	.max_reduce _i.i2c_master_async_if.shutdown.max.maxchanends, _i.i2c_master_async_if.shutdown.maxchanends.group, 0
	.weak _i.i2c_master_async_if.shutdown.maxcores.group
	.max_reduce _i.i2c_master_async_if.shutdown.max.maxcores, _i.i2c_master_async_if.shutdown.maxcores.group, 0
	.weak _i.i2c_master_async_if.shutdown.maxtimers.group
	.max_reduce _i.i2c_master_async_if.shutdown.max.maxtimers, _i.i2c_master_async_if.shutdown.maxtimers.group, 0
	.weak _i.i2c_master_async_if.shutdown.nstackwords.group
	.globl _i.i2c_master_async_if.shutdown.nstackwords.group
	.weak _i.i2c_master_async_if.shutdown.fns.group
	.globl _i.i2c_master_async_if.shutdown.fns.group
	.max_reduce _i.i2c_master_async_if.shutdown.max.nstackwords, _i.i2c_master_async_if.shutdown.nstackwords.group, 0
	.max_reduce _i.i2c_master_async_if.shutdown.fns, _i.i2c_master_async_if.shutdown.fns.group, 0
	.weak _i.i2c_master_async_if.__interface_init.maxchanends.group
	.max_reduce _i.i2c_master_async_if.__interface_init.max.maxchanends, _i.i2c_master_async_if.__interface_init.maxchanends.group, 0
	.weak _i.i2c_master_async_if.__interface_init.maxcores.group
	.max_reduce _i.i2c_master_async_if.__interface_init.max.maxcores, _i.i2c_master_async_if.__interface_init.maxcores.group, 0
	.weak _i.i2c_master_async_if.__interface_init.maxtimers.group
	.max_reduce _i.i2c_master_async_if.__interface_init.max.maxtimers, _i.i2c_master_async_if.__interface_init.maxtimers.group, 0
	.weak _i.i2c_master_async_if.__interface_init.nstackwords.group
	.globl _i.i2c_master_async_if.__interface_init.nstackwords.group
	.weak _i.i2c_master_async_if.__interface_init.fns.group
	.globl _i.i2c_master_async_if.__interface_init.fns.group
	.max_reduce _i.i2c_master_async_if.__interface_init.max.nstackwords, _i.i2c_master_async_if.__interface_init.nstackwords.group, 0
	.max_reduce _i.i2c_master_async_if.__interface_init.fns, _i.i2c_master_async_if.__interface_init.fns.group, 0
	.weak _i.i2c_master_async_if._client_call_y.maxchanends.group
	.add_to_set _i.i2c_master_async_if._client_call_y.maxchanends.group, (__interface_client_call_y_other.maxchanends + __interface_client_call_y_extra.maxchanends), __interface_client_call_y_other
	.max_reduce _i.i2c_master_async_if._client_call_y.max.maxchanends, _i.i2c_master_async_if._client_call_y.maxchanends.group, 0
	.weak _i.i2c_master_async_if._client_call_y.maxcores.group
	.add_to_set _i.i2c_master_async_if._client_call_y.maxcores.group, (__interface_client_call_y_other.maxcores + __interface_client_call_y_extra.maxcores), __interface_client_call_y_other
	.max_reduce _i.i2c_master_async_if._client_call_y.max.maxcores, _i.i2c_master_async_if._client_call_y.maxcores.group, 0
	.weak _i.i2c_master_async_if._client_call_y.maxtimers.group
	.add_to_set _i.i2c_master_async_if._client_call_y.maxtimers.group, (__interface_client_call_y_other.maxtimers + __interface_client_call_y_extra.maxtimers), __interface_client_call_y_other
	.max_reduce _i.i2c_master_async_if._client_call_y.max.maxtimers, _i.i2c_master_async_if._client_call_y.maxtimers.group, 0
	.weak _i.i2c_master_async_if._client_call_y.nstackwords.group
	.globl _i.i2c_master_async_if._client_call_y.nstackwords.group
	.weak _i.i2c_master_async_if._client_call_y.fns.group
	.globl _i.i2c_master_async_if._client_call_y.fns.group
	.add_to_set _i.i2c_master_async_if._client_call_y.nstackwords.group, (__interface_client_call_y_other.nstackwords + __interface_client_call_y_extra.nstackwords), __interface_client_call_y_other
	.add_to_set _i.i2c_master_async_if._client_call_y.fns.group, __interface_client_call_y_other, __interface_client_call_y_other
	.max_reduce _i.i2c_master_async_if._client_call_y.max.nstackwords, _i.i2c_master_async_if._client_call_y.nstackwords.group, 0
	.max_reduce _i.i2c_master_async_if._client_call_y.fns, _i.i2c_master_async_if._client_call_y.fns.group, 0
	.weak _i.i2c_master_if.write.maxchanends.group
	.max_reduce _i.i2c_master_if.write.max.maxchanends, _i.i2c_master_if.write.maxchanends.group, 0
	.weak _i.i2c_master_if.write.maxcores.group
	.max_reduce _i.i2c_master_if.write.max.maxcores, _i.i2c_master_if.write.maxcores.group, 0
	.weak _i.i2c_master_if.write.maxtimers.group
	.max_reduce _i.i2c_master_if.write.max.maxtimers, _i.i2c_master_if.write.maxtimers.group, 0
	.weak _i.i2c_master_if.write.nstackwords.group
	.globl _i.i2c_master_if.write.nstackwords.group
	.weak _i.i2c_master_if.write.fns.group
	.globl _i.i2c_master_if.write.fns.group
	.max_reduce _i.i2c_master_if.write.max.nstackwords, _i.i2c_master_if.write.nstackwords.group, 0
	.max_reduce _i.i2c_master_if.write.fns, _i.i2c_master_if.write.fns.group, 0
	.weak _i.i2c_master_if.read.maxchanends.group
	.max_reduce _i.i2c_master_if.read.max.maxchanends, _i.i2c_master_if.read.maxchanends.group, 0
	.weak _i.i2c_master_if.read.maxcores.group
	.max_reduce _i.i2c_master_if.read.max.maxcores, _i.i2c_master_if.read.maxcores.group, 0
	.weak _i.i2c_master_if.read.maxtimers.group
	.max_reduce _i.i2c_master_if.read.max.maxtimers, _i.i2c_master_if.read.maxtimers.group, 0
	.weak _i.i2c_master_if.read.nstackwords.group
	.globl _i.i2c_master_if.read.nstackwords.group
	.weak _i.i2c_master_if.read.fns.group
	.globl _i.i2c_master_if.read.fns.group
	.max_reduce _i.i2c_master_if.read.max.nstackwords, _i.i2c_master_if.read.nstackwords.group, 0
	.max_reduce _i.i2c_master_if.read.fns, _i.i2c_master_if.read.fns.group, 0
	.weak _i.i2c_master_if.send_stop_bit.maxchanends.group
	.max_reduce _i.i2c_master_if.send_stop_bit.max.maxchanends, _i.i2c_master_if.send_stop_bit.maxchanends.group, 0
	.weak _i.i2c_master_if.send_stop_bit.maxcores.group
	.max_reduce _i.i2c_master_if.send_stop_bit.max.maxcores, _i.i2c_master_if.send_stop_bit.maxcores.group, 0
	.weak _i.i2c_master_if.send_stop_bit.maxtimers.group
	.max_reduce _i.i2c_master_if.send_stop_bit.max.maxtimers, _i.i2c_master_if.send_stop_bit.maxtimers.group, 0
	.weak _i.i2c_master_if.send_stop_bit.nstackwords.group
	.globl _i.i2c_master_if.send_stop_bit.nstackwords.group
	.weak _i.i2c_master_if.send_stop_bit.fns.group
	.globl _i.i2c_master_if.send_stop_bit.fns.group
	.max_reduce _i.i2c_master_if.send_stop_bit.max.nstackwords, _i.i2c_master_if.send_stop_bit.nstackwords.group, 0
	.max_reduce _i.i2c_master_if.send_stop_bit.fns, _i.i2c_master_if.send_stop_bit.fns.group, 0
	.weak _i.i2c_master_if.shutdown.maxchanends.group
	.max_reduce _i.i2c_master_if.shutdown.max.maxchanends, _i.i2c_master_if.shutdown.maxchanends.group, 0
	.weak _i.i2c_master_if.shutdown.maxcores.group
	.max_reduce _i.i2c_master_if.shutdown.max.maxcores, _i.i2c_master_if.shutdown.maxcores.group, 0
	.weak _i.i2c_master_if.shutdown.maxtimers.group
	.max_reduce _i.i2c_master_if.shutdown.max.maxtimers, _i.i2c_master_if.shutdown.maxtimers.group, 0
	.weak _i.i2c_master_if.shutdown.nstackwords.group
	.globl _i.i2c_master_if.shutdown.nstackwords.group
	.weak _i.i2c_master_if.shutdown.fns.group
	.globl _i.i2c_master_if.shutdown.fns.group
	.max_reduce _i.i2c_master_if.shutdown.max.nstackwords, _i.i2c_master_if.shutdown.nstackwords.group, 0
	.max_reduce _i.i2c_master_if.shutdown.fns, _i.i2c_master_if.shutdown.fns.group, 0
	.weak _i.i2c_master_if.__interface_init.maxchanends.group
	.max_reduce _i.i2c_master_if.__interface_init.max.maxchanends, _i.i2c_master_if.__interface_init.maxchanends.group, 0
	.weak _i.i2c_master_if.__interface_init.maxcores.group
	.max_reduce _i.i2c_master_if.__interface_init.max.maxcores, _i.i2c_master_if.__interface_init.maxcores.group, 0
	.weak _i.i2c_master_if.__interface_init.maxtimers.group
	.max_reduce _i.i2c_master_if.__interface_init.max.maxtimers, _i.i2c_master_if.__interface_init.maxtimers.group, 0
	.weak _i.i2c_master_if.__interface_init.nstackwords.group
	.globl _i.i2c_master_if.__interface_init.nstackwords.group
	.weak _i.i2c_master_if.__interface_init.fns.group
	.globl _i.i2c_master_if.__interface_init.fns.group
	.max_reduce _i.i2c_master_if.__interface_init.max.nstackwords, _i.i2c_master_if.__interface_init.nstackwords.group, 0
	.max_reduce _i.i2c_master_if.__interface_init.fns, _i.i2c_master_if.__interface_init.fns.group, 0
	.weak _i.i2c_master_if._client_call_y.maxchanends.group
	.add_to_set _i.i2c_master_if._client_call_y.maxchanends.group, (__interface_client_call_y_other.maxchanends + __interface_client_call_y_extra.maxchanends), __interface_client_call_y_other
	.max_reduce _i.i2c_master_if._client_call_y.max.maxchanends, _i.i2c_master_if._client_call_y.maxchanends.group, 0
	.weak _i.i2c_master_if._client_call_y.maxcores.group
	.add_to_set _i.i2c_master_if._client_call_y.maxcores.group, (__interface_client_call_y_other.maxcores + __interface_client_call_y_extra.maxcores), __interface_client_call_y_other
	.max_reduce _i.i2c_master_if._client_call_y.max.maxcores, _i.i2c_master_if._client_call_y.maxcores.group, 0
	.weak _i.i2c_master_if._client_call_y.maxtimers.group
	.add_to_set _i.i2c_master_if._client_call_y.maxtimers.group, (__interface_client_call_y_other.maxtimers + __interface_client_call_y_extra.maxtimers), __interface_client_call_y_other
	.max_reduce _i.i2c_master_if._client_call_y.max.maxtimers, _i.i2c_master_if._client_call_y.maxtimers.group, 0
	.weak _i.i2c_master_if._client_call_y.nstackwords.group
	.globl _i.i2c_master_if._client_call_y.nstackwords.group
	.weak _i.i2c_master_if._client_call_y.fns.group
	.globl _i.i2c_master_if._client_call_y.fns.group
	.add_to_set _i.i2c_master_if._client_call_y.nstackwords.group, (__interface_client_call_y_other.nstackwords + __interface_client_call_y_extra.nstackwords), __interface_client_call_y_other
	.add_to_set _i.i2c_master_if._client_call_y.fns.group, __interface_client_call_y_other, __interface_client_call_y_other
	.max_reduce _i.i2c_master_if._client_call_y.max.nstackwords, _i.i2c_master_if._client_call_y.nstackwords.group, 0
	.max_reduce _i.i2c_master_if._client_call_y.fns, _i.i2c_master_if._client_call_y.fns.group, 0
	.set usage.anon.0,0
	.set usage.anon.1,0
	.set usage.anon.2,0
	.set usage.anon.3,0
	.set usage.anon.4,0
	.set usage.anon.5,0
	.set usage.anon.6,0
	.set usage.anon.7,0
	.set usage.anon.8,0
	.set usage.anon.9,0
	.set usage.anon.10,0
	.set usage.anon.11,0
	.set usage.anon.12,0
	.set usage.anon.13,0
	.set usage.anon.14,0
	.set usage.anon.15,0
	.set usage.anon.16,0
	.set usage.anon.17,0
	.set usage.anon.18,0
	.set usage.anon.19,0
	.call i2c_master,usage.anon.19
	.call i2c_master,usage.anon.18
	.call i2c_master,usage.anon.17
	.call i2c_master,usage.anon.16
	.call i2c_master,usage.anon.15
	.call i2c_master,usage.anon.12
	.call usage.anon.19,usage.anon.16
	.call usage.anon.19,usage.anon.15
	.call usage.anon.18,usage.anon.14
	.call usage.anon.18,usage.anon.13
	.call usage.anon.18,usage.anon.12
	.call usage.anon.18,delay_ticks
	.call usage.anon.17,usage.anon.14
	.call usage.anon.17,usage.anon.13
	.call usage.anon.17,usage.anon.12
	.call usage.anon.17,delay_ticks
	.call usage.anon.16,usage.anon.14
	.call usage.anon.16,usage.anon.12
	.call usage.anon.15,usage.anon.14
	.call usage.anon.15,usage.anon.12
	.call usage.anon.10,delay_ticks_longlong
	.call usage.anon.9,delay_ticks_longlong
	.call usage.anon.8,delay_ticks_longlong
	.set usage.anon.0.locnoside, 0
	.set usage.anon.1.locnoside, 0
	.set usage.anon.2.locnoside, 0
	.set usage.anon.3.locnoside, 0
	.set usage.anon.4.locnoside, 0
	.set usage.anon.5.locnoside, 0
	.set usage.anon.6.locnoside, 0
	.set usage.anon.7.locnoside, 0
	.set usage.anon.14.locnoside, 0
	.set usage.anon.15.locnoside, 0
	.set usage.anon.16.locnoside, 0
	.set usage.anon.17.locnoside, 0
	.set usage.anon.18.locnoside, 0
	.set usage.anon.19.locnoside, 0
	.set i2c_master.locnoside, 0
	.set usage.anon.0.locnointerfaceaccess, 0
	.set usage.anon.1.locnointerfaceaccess, 0
	.set usage.anon.2.locnointerfaceaccess, 0
	.set usage.anon.3.locnointerfaceaccess, 0
	.set usage.anon.4.locnointerfaceaccess, 0
	.set usage.anon.5.locnointerfaceaccess, 0
	.set usage.anon.6.locnointerfaceaccess, 0
	.set usage.anon.7.locnointerfaceaccess, 0
	.set i2c_master.locnointerfaceaccess, 0
	.assert 1,usage.anon.19.actnonotificationselect,"/home/evgeny/git/104/UI-01_sw1_hw1/lib_i2c/src/i2c_master.xc:264:15: error: call to function `tx8\' which selects on a notification in a combinable function select case\n        ack = tx8(p_scl, p_sda, buf[j], kbits_per_second, fall_time);\n              ^~~~~~~~~~~~~~~~~~~~~~~~~~~~~~~~~~~~~~~~~~~~~~~~~~~~~~"
	.assert 1,usage.anon.18.actnonotificationselect,"/home/evgeny/git/104/UI-01_sw1_hw1/lib_i2c/src/i2c_master.xc:283:7: error: call to function `stop_bit\' which selects on a notification in a combinable function select case\n      stop_bit(p_scl, p_sda, kbits_per_second, fall_time);\n      ^~~~~~~~~~~~~~~~~~~~~~~~~~~~~~~~~~~~~~~~~~~~~~~~~~~"
	.assert 1,usage.anon.17.actnonotificationselect,"/home/evgeny/git/104/UI-01_sw1_hw1/lib_i2c/src/i2c_master.xc:257:7: error: call to function `start_bit\' which selects on a notification in a combinable function select case\n      start_bit(p_scl, p_sda, kbits_per_second, fall_time, stopped);\n      ^~~~~~~~~~~~~~~~~~~~~~~~~~~~~~~~~~~~~~~~~~~~~~~~~~~~~~~~~~~~~"
	.assert 1,usage.anon.16.actnonotificationselect,"/home/evgeny/git/104/UI-01_sw1_hw1/lib_i2c/src/i2c_master.xc:232:11: error: call to function `high_pulse\' which selects on a notification in a combinable function select case\n          high_pulse(p_scl, kbits_per_second, fall_time);\n          ^~~~~~~~~~~~~~~~~~~~~~~~~~~~~~~~~~~~~~~~~~~~~~"
	.assert 1,usage.anon.15.actnonotificationselect,"/home/evgeny/git/104/UI-01_sw1_hw1/lib_i2c/src/i2c_master.xc:218:24: error: call to function `high_pulse_sample\' which selects on a notification in a combinable function select case\n            int temp = high_pulse_sample(p_scl, p_sda, kbits_per_second, fall_time);\n                       ^~~~~~~~~~~~~~~~~~~~~~~~~~~~~~~~~~~~~~~~~~~~~~~~~~~~~~~~~~~~"
	.assert 1,usage.anon.12.actnonotificationselect,"/home/evgeny/git/104/UI-01_sw1_hw1/lib_i2c/src/i2c_master.xc:231:43: error: call to function `compute_low_period_ticks\' which selects on a notification in a combinable function select case\n          tmr when timerafter(fall_time + compute_low_period_ticks(kbits_per_second)) :> void;\n                                          ^~~~~~~~~~~~~~~~~~~~~~~~~~~~~~~~~~~~~~~~~~\n/home/evgeny/soft/XMOS/xTIMEcomposer/Community_14.3.3/target/include/xs1.h:1710:69: note: expanded from macro \'timerafter\'\n#define timerafter(val)                       __builtin_timer_after(val)\n                                                                    ^"

                                        # End of file scope inline assembly
	.text
	.globl	_i.i2c_master_if.i2c_master._c0.shutdown
	.align	4
	.type	_i.i2c_master_if.i2c_master._c0.shutdown,@function
	.cc_top _i.i2c_master_if.i2c_master._c0.shutdown.function,_i.i2c_master_if.i2c_master._c0.shutdown
_i.i2c_master_if.i2c_master._c0.shutdown: # @_i.i2c_master_if.i2c_master._c0.shutdown
	.cfi_startproc
	.issue_mode single
# BB#0:                                 # %allocas
	ENTSP_lu6 0
	#DEBUG_VALUE: _i.i2c_master_if.i2c_master._c0.shutdown:p <- R0
	ldw r0, r0[0]
.LBB0_1:                                # %LoopTest
                                        # =>This Inner Loop Header: Depth=1
	ldw r1, r0[0]
	bf r1, .LBB0_1
# BB#2:                                 # %ifdone
	ldc r1, 0
	stw r1, r0[0]
	retsp 0
	# RETURN_REG_HOLDER
	.cc_bottom _i.i2c_master_if.i2c_master._c0.shutdown.function
	.set	_i.i2c_master_if.i2c_master._c0.shutdown.nstackwords,0
	.globl	_i.i2c_master_if.i2c_master._c0.shutdown.nstackwords
	.set	_i.i2c_master_if.i2c_master._c0.shutdown.maxcores,1
	.globl	_i.i2c_master_if.i2c_master._c0.shutdown.maxcores
	.set	_i.i2c_master_if.i2c_master._c0.shutdown.maxtimers,0
	.globl	_i.i2c_master_if.i2c_master._c0.shutdown.maxtimers
	.set	_i.i2c_master_if.i2c_master._c0.shutdown.maxchanends,0
	.globl	_i.i2c_master_if.i2c_master._c0.shutdown.maxchanends
.Ltmp0:
	.size	_i.i2c_master_if.i2c_master._c0.shutdown, .Ltmp0-_i.i2c_master_if.i2c_master._c0.shutdown
	.cfi_endproc

	.globl	_i.i2c_master_if.i2c_master._c0.send_stop_bit
	.align	4
	.type	_i.i2c_master_if.i2c_master._c0.send_stop_bit,@function
	.cc_top _i.i2c_master_if.i2c_master._c0.send_stop_bit.function,_i.i2c_master_if.i2c_master._c0.send_stop_bit
_i.i2c_master_if.i2c_master._c0.send_stop_bit: # @_i.i2c_master_if.i2c_master._c0.send_stop_bit
.Lfunc_begin1:
	.loc	2 279 0                 # /home/evgeny/git/104/UI-01_sw1_hw1/lib_i2c/src/i2c_master.xc:279:0
	.cfi_startproc
	.issue_mode single
# BB#0:                                 # %allocas
	ENTSP_lu6 4
.Ltmp1:
	.cfi_def_cfa_offset 16
.Ltmp2:
	.cfi_offset 15, 0
	stw r4, sp[2]                   # 4-byte Folded Spill
.Ltmp3:
	.cfi_offset 4, -8
	#DEBUG_VALUE: _i.i2c_master_if.i2c_master._c0.send_stop_bit:p <- R0
	ldw r4, r0[0]
.Ltmp4:
.LBB1_1:                                # %LoopTest
                                        # =>This Inner Loop Header: Depth=1
	ldw r0, r4[0]
	bf r0, .LBB1_1
# BB#2:                                 # %ifdone
	ldc r0, 0
	stw r0, r4[0]
	.loc	2 282 0 prologue_end    # /home/evgeny/git/104/UI-01_sw1_hw1/lib_i2c/src/i2c_master.xc:282:0
.Ltmp5:
	gettime r0
.Ltmp6:
	#DEBUG_VALUE: fall_time <- R0
	.loc	2 282 0                 # /home/evgeny/git/104/UI-01_sw1_hw1/lib_i2c/src/i2c_master.xc:282:0
	stw r0, sp[1]
	.loc	2 283 0                 # /home/evgeny/git/104/UI-01_sw1_hw1/lib_i2c/src/i2c_master.xc:283:0
.Ltmp7:
	ldw r0, r4[8]
.Ltmp8:
	.loc	2 283 0                 # /home/evgeny/git/104/UI-01_sw1_hw1/lib_i2c/src/i2c_master.xc:283:0
	ldw r1, r4[9]
	.loc	2 283 0                 # /home/evgeny/git/104/UI-01_sw1_hw1/lib_i2c/src/i2c_master.xc:283:0
	ldw r2, r4[10]
	ldaw r3, sp[1]
.Ltmp9:
	#DEBUG_VALUE: fall_time <- [R3+0]
	.loc	2 283 0                 # /home/evgeny/git/104/UI-01_sw1_hw1/lib_i2c/src/i2c_master.xc:283:0
.Lxta.call_labels0:
	bl stop_bit
.Ltmp10:
	ldc r0, 52
	.loc	2 284 0                 # /home/evgeny/git/104/UI-01_sw1_hw1/lib_i2c/src/i2c_master.xc:284:0
	add r0, r4, r0
	mkmsk r1, 32
	.loc	2 284 0                 # /home/evgeny/git/104/UI-01_sw1_hw1/lib_i2c/src/i2c_master.xc:284:0
	stw r1, r0[0]
	mkmsk r0, 1
	stw r0, r4[0]
	ldw r4, sp[2]                   # 4-byte Folded Reload
	retsp 4
	# RETURN_REG_HOLDER
.Ltmp11:
	.cc_bottom _i.i2c_master_if.i2c_master._c0.send_stop_bit.function
	.set	_i.i2c_master_if.i2c_master._c0.send_stop_bit.nstackwords,(stop_bit.nstackwords + 4)
	.globl	_i.i2c_master_if.i2c_master._c0.send_stop_bit.nstackwords
	.set	_i.i2c_master_if.i2c_master._c0.send_stop_bit.maxcores,stop_bit.maxcores $M 1
	.globl	_i.i2c_master_if.i2c_master._c0.send_stop_bit.maxcores
	.set	_i.i2c_master_if.i2c_master._c0.send_stop_bit.maxtimers,stop_bit.maxtimers $M 0
	.globl	_i.i2c_master_if.i2c_master._c0.send_stop_bit.maxtimers
	.set	_i.i2c_master_if.i2c_master._c0.send_stop_bit.maxchanends,stop_bit.maxchanends $M 0
	.globl	_i.i2c_master_if.i2c_master._c0.send_stop_bit.maxchanends
.Ltmp12:
	.size	_i.i2c_master_if.i2c_master._c0.send_stop_bit, .Ltmp12-_i.i2c_master_if.i2c_master._c0.send_stop_bit
.Lfunc_end1:
	.cfi_endproc

	.section	.cp.rodata.cst4,"aMc",@progbits,4
	.cc_top .LCPI2_0.data,.LCPI2_0
	.align	4
	.type	.LCPI2_0,@object
	.size	.LCPI2_0, 4
.LCPI2_0:
	.long	4294967288              # 0xfffffff8
	.cc_bottom .LCPI2_0.data
	.cc_top .LCPI2_1.data,.LCPI2_1
	.align	4
	.type	.LCPI2_1,@object
	.size	.LCPI2_1, 4
.LCPI2_1:
	.long	100000                  # 0x186a0
	.cc_bottom .LCPI2_1.data
	.text
	.globl	_i.i2c_master_if.i2c_master._c0.read
	.align	4
	.type	_i.i2c_master_if.i2c_master._c0.read,@function
	.cc_top _i.i2c_master_if.i2c_master._c0.read.function,_i.i2c_master_if.i2c_master._c0.read
_i.i2c_master_if.i2c_master._c0.read:   # @_i.i2c_master_if.i2c_master._c0.read
.Lfunc_begin2:
	.loc	2 203 0                 # /home/evgeny/git/104/UI-01_sw1_hw1/lib_i2c/src/i2c_master.xc:203:0
	.cfi_startproc
	.issue_mode single
# BB#0:                                 # %allocas
	ENTSP_lu6 20
.Ltmp13:
	.cfi_def_cfa_offset 80
.Ltmp14:
	.cfi_offset 15, 0
	std r5, r4, sp[6]               # 4-byte Folded Spill
.Ltmp15:
	.cfi_offset 4, -32
.Ltmp16:
	.cfi_offset 5, -28
	std r7, r6, sp[7]               # 4-byte Folded Spill
.Ltmp17:
	.cfi_offset 6, -24
.Ltmp18:
	.cfi_offset 7, -20
	std r9, r8, sp[8]               # 4-byte Folded Spill
.Ltmp19:
	.cfi_offset 8, -16
.Ltmp20:
	.cfi_offset 9, -12
	stw r10, sp[18]                 # 4-byte Folded Spill
.Ltmp21:
	.cfi_offset 10, -8
	#DEBUG_VALUE: _i.i2c_master_if.i2c_master._c0.read:p <- R0
	#DEBUG_VALUE: _i.i2c_master_if.i2c_master._c0.read:device <- R1
	#DEBUG_VALUE: _i.i2c_master_if.i2c_master._c0.read:buf <- R2
	#DEBUG_VALUE: _i.i2c_master_if.i2c_master._c0.read:m <- R3
	stw r3, sp[8]                   # 4-byte Folded Spill
.Ltmp22:
	#DEBUG_VALUE: _i.i2c_master_if.i2c_master._c0.read:m <- [SP+32]
	stw r2, sp[7]                   # 4-byte Folded Spill
.Ltmp23:
	#DEBUG_VALUE: _i.i2c_master_if.i2c_master._c0.read:buf <- [SP+28]
	mov r9, r1
.Ltmp24:
	#DEBUG_VALUE: _i.i2c_master_if.i2c_master._c0.read:device <- undef
	#DEBUG_VALUE: _i.i2c_master_if.i2c_master._c0.read:device <- R9
	ldw r10, r0[0]
	stw r10, sp[10]                 # 4-byte Folded Spill
	ldw r5, r0[1]
.Ltmp25:
.LBB2_1:                                # %allocas
                                        # =>This Inner Loop Header: Depth=1
	ldw r0, r10[0]
	bf r0, .LBB2_1
# BB#2:                                 # %ifdone
.Ltmp26:
	#DEBUG_VALUE: _i.i2c_master_if.i2c_master._c0.read:device <- undef
	#DEBUG_VALUE: _i.i2c_master_if.i2c_master._c0.read:buf <- [SP+28]
	#DEBUG_VALUE: _i.i2c_master_if.i2c_master._c0.read:m <- [SP+32]
	ldw r0, r10[7]
	eq r0, r0, 1
	ldc r1, 52
	.loc	2 208 0 prologue_end    # /home/evgeny/git/104/UI-01_sw1_hw1/lib_i2c/src/i2c_master.xc:208:0
.Ltmp27:
	add r6, r10, r1
	bt r0, .LBB2_3
.Ltmp28:
# BB#20:                                # %lhsfalse
	#DEBUG_VALUE: _i.i2c_master_if.i2c_master._c0.read:device <- undef
	#DEBUG_VALUE: _i.i2c_master_if.i2c_master._c0.read:buf <- [SP+28]
	#DEBUG_VALUE: _i.i2c_master_if.i2c_master._c0.read:m <- [SP+32]
	ldw r0, r6[0]
	mkmsk r4, 32
	bu .LBB2_24
.Ltmp29:
.LBB2_23:                               # %lhsfalse51
                                        #   in Loop: Header=BB2_24 Depth=1
	#DEBUG_VALUE: _i.i2c_master_if.i2c_master._c0.read:device <- undef
	#DEBUG_VALUE: _i.i2c_master_if.i2c_master._c0.read:buf <- [SP+28]
	#DEBUG_VALUE: _i.i2c_master_if.i2c_master._c0.read:m <- [SP+32]
	ldw r0, r6[0]
.Ltmp30:
.LBB2_24:                               # %lhsfalse51
                                        # =>This Inner Loop Header: Depth=1
	eq r1, r0, r4
	bt r1, .LBB2_3
# BB#21:                                # %lhsfalse
                                        #   in Loop: Header=BB2_24 Depth=1
	#DEBUG_VALUE: _i.i2c_master_if.i2c_master._c0.read:device <- undef
.Ltmp31:
	#DEBUG_VALUE: _i.i2c_master_if.i2c_master._c0.read:buf <- [SP+28]
	#DEBUG_VALUE: _i.i2c_master_if.i2c_master._c0.read:m <- [SP+32]
	eq r0, r5, r0
	bt r0, .LBB2_3
.Ltmp32:
# BB#22:                                # %LoopBody42
                                        #   in Loop: Header=BB2_24 Depth=1
	#DEBUG_VALUE: _i.i2c_master_if.i2c_master._c0.read:device <- undef
	#DEBUG_VALUE: _i.i2c_master_if.i2c_master._c0.read:buf <- [SP+28]
	#DEBUG_VALUE: _i.i2c_master_if.i2c_master._c0.read:m <- [SP+32]
	mov r0, r5
	bl __interface_yield_once
	ldw r0, r10[7]
	eq r0, r0, 1
	bf r0, .LBB2_23
.Ltmp33:
.LBB2_3:                                # %ifdone19
	#DEBUG_VALUE: _i.i2c_master_if.i2c_master._c0.read:device <- undef
	#DEBUG_VALUE: _i.i2c_master_if.i2c_master._c0.read:buf <- [SP+28]
	#DEBUG_VALUE: _i.i2c_master_if.i2c_master._c0.read:m <- [SP+32]
	stw r5, sp[4]                   # 4-byte Folded Spill
	ldc r7, 0
	stw r7, r10[0]
	.loc	2 208 0                 # /home/evgeny/git/104/UI-01_sw1_hw1/lib_i2c/src/i2c_master.xc:208:0
	ldw r0, r6[0]
	stw r6, sp[3]                   # 4-byte Folded Spill
	mkmsk r1, 32
	.loc	2 208 0                 # /home/evgeny/git/104/UI-01_sw1_hw1/lib_i2c/src/i2c_master.xc:208:0
	eq r3, r0, r1
	ldc r0, 48
	.loc	2 209 0                 # /home/evgeny/git/104/UI-01_sw1_hw1/lib_i2c/src/i2c_master.xc:209:0
.Ltmp34:
	add r0, r10, r0
	.loc	2 209 0                 # /home/evgeny/git/104/UI-01_sw1_hw1/lib_i2c/src/i2c_master.xc:209:0
	stw r0, sp[2]                   # 4-byte Folded Spill
	ldw r0, r0[0]
.Ltmp35:
	#DEBUG_VALUE: fall_time <- R0
	.loc	2 209 0                 # /home/evgeny/git/104/UI-01_sw1_hw1/lib_i2c/src/i2c_master.xc:209:0
	stw r0, sp[11]
	.loc	2 210 0                 # /home/evgeny/git/104/UI-01_sw1_hw1/lib_i2c/src/i2c_master.xc:210:0
	ldw r0, r10[8]
.Ltmp36:
	.loc	2 210 0                 # /home/evgeny/git/104/UI-01_sw1_hw1/lib_i2c/src/i2c_master.xc:210:0
	ldw r1, r10[9]
	.loc	2 210 0                 # /home/evgeny/git/104/UI-01_sw1_hw1/lib_i2c/src/i2c_master.xc:210:0
	ldw r2, r10[10]
	.loc	2 210 0                 # /home/evgeny/git/104/UI-01_sw1_hw1/lib_i2c/src/i2c_master.xc:210:0
	stw r3, sp[1]
	ldaw r8, sp[11]
.Ltmp37:
	#DEBUG_VALUE: fall_time <- [R8+0]
	mov r3, r8
.Lxta.call_labels1:
	bl start_bit
	.loc	2 211 0                 # /home/evgeny/git/104/UI-01_sw1_hw1/lib_i2c/src/i2c_master.xc:211:0
.Ltmp38:
	ldw r0, r10[8]
	.loc	2 211 0                 # /home/evgeny/git/104/UI-01_sw1_hw1/lib_i2c/src/i2c_master.xc:211:0
	ldw r1, r10[9]
	.loc	2 211 0                 # /home/evgeny/git/104/UI-01_sw1_hw1/lib_i2c/src/i2c_master.xc:211:0
	shl r2, r9, 1
	mkmsk r3, 1
	.loc	2 211 0                 # /home/evgeny/git/104/UI-01_sw1_hw1/lib_i2c/src/i2c_master.xc:211:0
	or r2, r2, r3
	.loc	2 211 0                 # /home/evgeny/git/104/UI-01_sw1_hw1/lib_i2c/src/i2c_master.xc:211:0
	ldw r3, r10[10]
	.loc	2 211 0                 # /home/evgeny/git/104/UI-01_sw1_hw1/lib_i2c/src/i2c_master.xc:211:0
	stw r8, sp[1]
.Lxta.call_labels2:
	bl tx8
.Ltmp39:
	#DEBUG_VALUE: ack <- R0
	.loc	2 213 7                 # /home/evgeny/git/104/UI-01_sw1_hw1/lib_i2c/src/i2c_master.xc:213:7
	eq r0, r0, 0
.Ltmp40:
	#DEBUG_VALUE: j <- 0
	.loc	2 213 7                 # /home/evgeny/git/104/UI-01_sw1_hw1/lib_i2c/src/i2c_master.xc:213:7
	stw r0, sp[5]                   # 4-byte Folded Spill
	ldw r0, sp[8]                   # 4-byte Folded Reload
	bf r0, .LBB2_17
.Ltmp41:
# BB#4:                                 # %ifdone19
	#DEBUG_VALUE: _i.i2c_master_if.i2c_master._c0.read:device <- undef
	#DEBUG_VALUE: _i.i2c_master_if.i2c_master._c0.read:buf <- [SP+28]
	#DEBUG_VALUE: _i.i2c_master_if.i2c_master._c0.read:m <- [SP+32]
	.loc	2 213 7                 # /home/evgeny/git/104/UI-01_sw1_hw1/lib_i2c/src/i2c_master.xc:213:7
	ldw r0, sp[5]                   # 4-byte Folded Reload
	eq r0, r0, 0
	bt r0, .LBB2_17
.Ltmp42:
# BB#5:                                 # %LoopBody103.preheader
	#DEBUG_VALUE: _i.i2c_master_if.i2c_master._c0.read:device <- undef
	#DEBUG_VALUE: _i.i2c_master_if.i2c_master._c0.read:buf <- [SP+28]
	#DEBUG_VALUE: _i.i2c_master_if.i2c_master._c0.read:m <- [SP+32]
	.loc	2 90 0                  # /home/evgeny/git/104/UI-01_sw1_hw1/lib_i2c/src/i2c_master.xc:90:0
	get r11, id
	.loc	2 90 0                  # /home/evgeny/git/104/UI-01_sw1_hw1/lib_i2c/src/i2c_master.xc:90:0
	ldaw r0, dp[__timers]
	.loc	2 90 0                  # /home/evgeny/git/104/UI-01_sw1_hw1/lib_i2c/src/i2c_master.xc:90:0
	ldw r4, r0[r11]
.Ltmp43:
	.loc	2 225 11                # /home/evgeny/git/104/UI-01_sw1_hw1/lib_i2c/src/i2c_master.xc:225:11
	ldw r0, sp[8]                   # 4-byte Folded Reload
	sub r0, r0, 1
.Ltmp44:
	.loc	2 90 0                  # /home/evgeny/git/104/UI-01_sw1_hw1/lib_i2c/src/i2c_master.xc:90:0
	stw r0, sp[6]                   # 4-byte Folded Spill
	ldw r0, sp[11]
	mov r6, r7
.Ltmp45:
.LBB2_6:                                # %LoopBody103
                                        # =>This Loop Header: Depth=1
                                        #     Child Loop BB2_7 Depth 2
.Lxtalabel0:
	#DEBUG_VALUE: _i.i2c_master_if.i2c_master._c0.read:device <- undef
	#DEBUG_VALUE: _i.i2c_master_if.i2c_master._c0.read:buf <- [SP+28]
	#DEBUG_VALUE: _i.i2c_master_if.i2c_master._c0.read:m <- [SP+32]
	#DEBUG_VALUE: data <- 0
	#DEBUG_VALUE: i <- 8
	stw r6, sp[9]                   # 4-byte Folded Spill
	ldw r5, cp[.LCPI2_0]
	mov r6, r7
.Ltmp46:
.LBB2_7:                                # %LoopBody112
                                        #   Parent Loop BB2_6 Depth=1
                                        # =>  This Inner Loop Header: Depth=2
.Lxtalabel1:
	#DEBUG_VALUE: _i.i2c_master_if.i2c_master._c0.read:device <- undef
	#DEBUG_VALUE: _i.i2c_master_if.i2c_master._c0.read:buf <- [SP+28]
	#DEBUG_VALUE: _i.i2c_master_if.i2c_master._c0.read:m <- [SP+32]
	#DEBUG_VALUE: data <- 0
	#DEBUG_VALUE: i <- 8
	mov r10, r7
	ldw r1, sp[10]                  # 4-byte Folded Reload
	.loc	2 218 0                 # /home/evgeny/git/104/UI-01_sw1_hw1/lib_i2c/src/i2c_master.xc:218:0
	ldw r9, r1[8]
.Ltmp47:
	#DEBUG_VALUE: high_pulse_sample:p_scl <- R9
	.loc	2 218 0                 # /home/evgeny/git/104/UI-01_sw1_hw1/lib_i2c/src/i2c_master.xc:218:0
	ldw r8, r1[9]
.Ltmp48:
	#DEBUG_VALUE: high_pulse_sample:p_sda <- R8
	.loc	2 218 0                 # /home/evgeny/git/104/UI-01_sw1_hw1/lib_i2c/src/i2c_master.xc:218:0
	ldw r1, r1[10]
.Ltmp49:
	#DEBUG_VALUE: high_pulse_sample:kbits_per_second <- R1
	#DEBUG_VALUE: compute_low_period_ticks:kbits_per_second <- R1
	ldw r2, cp[.LCPI2_1]
	.loc	2 85 0                  # /home/evgeny/git/104/UI-01_sw1_hw1/lib_i2c/src/i2c_master.xc:85:0
.Ltmp50:
	divu r7, r2, r1
.Ltmp51:
	#DEBUG_VALUE: bit_time <- R7
	#DEBUG_VALUE: sample_value <- 0
	.loc	2 89 0                  # /home/evgeny/git/104/UI-01_sw1_hw1/lib_i2c/src/i2c_master.xc:89:0
	setc res[r8], 1
	.loc	2 89 0                  # /home/evgeny/git/104/UI-01_sw1_hw1/lib_i2c/src/i2c_master.xc:89:0
.Ltmp52:
.Lxta.endpoint_labels0:
	in r2, res[r8]
.Ltmp53:
	#DEBUG_VALUE: ticks <- 0
	#DEBUG_VALUE: _ <- R2
	ldc r2, 101
.Ltmp54:
	.loc	2 20 3                  # /home/evgeny/git/104/UI-01_sw1_hw1/lib_i2c/src/i2c_master.xc:20:3
	lsu r3, r1, r2
	ldc r2, 473
	bt r3, .LBB2_9
.Ltmp55:
# BB#8:                                 # %iffalse.i.i
                                        #   in Loop: Header=BB2_7 Depth=2
.Lxtalabel2:
	#DEBUG_VALUE: _i.i2c_master_if.i2c_master._c0.read:device <- undef
	#DEBUG_VALUE: _i.i2c_master_if.i2c_master._c0.read:buf <- [SP+28]
	#DEBUG_VALUE: _i.i2c_master_if.i2c_master._c0.read:m <- [SP+32]
	#DEBUG_VALUE: data <- 0
	#DEBUG_VALUE: i <- 8
	#DEBUG_VALUE: high_pulse_sample:p_scl <- R9
	#DEBUG_VALUE: high_pulse_sample:p_sda <- R8
	#DEBUG_VALUE: compute_low_period_ticks:kbits_per_second <- R1
	#DEBUG_VALUE: high_pulse_sample:kbits_per_second <- R1
	#DEBUG_VALUE: sample_value <- 0
	#DEBUG_VALUE: bit_time <- R7
	#DEBUG_VALUE: ticks <- 0
	ldc r2, 401
	.loc	2 23 10                 # /home/evgeny/git/104/UI-01_sw1_hw1/lib_i2c/src/i2c_master.xc:23:10
	lsu r1, r1, r2
.Ltmp56:
	ldc r2, 133
	.loc	2 27 0                  # /home/evgeny/git/104/UI-01_sw1_hw1/lib_i2c/src/i2c_master.xc:27:0
	ecallf r1
.Ltmp57:
.LBB2_9:                                # %high_pulse_sample.exit
                                        #   in Loop: Header=BB2_7 Depth=2
.Lxtalabel3:
	#DEBUG_VALUE: _i.i2c_master_if.i2c_master._c0.read:device <- undef
	#DEBUG_VALUE: _i.i2c_master_if.i2c_master._c0.read:buf <- [SP+28]
	#DEBUG_VALUE: _i.i2c_master_if.i2c_master._c0.read:m <- [SP+32]
	#DEBUG_VALUE: data <- 0
	#DEBUG_VALUE: i <- 8
	#DEBUG_VALUE: high_pulse_sample:p_scl <- R9
	#DEBUG_VALUE: high_pulse_sample:p_sda <- R8
	#DEBUG_VALUE: sample_value <- 0
	#DEBUG_VALUE: bit_time <- R7
	#DEBUG_VALUE: jitter_ticks <- 3
	.loc	2 90 0                  # /home/evgeny/git/104/UI-01_sw1_hw1/lib_i2c/src/i2c_master.xc:90:0
	add r0, r2, r0
	.loc	2 90 0                  # /home/evgeny/git/104/UI-01_sw1_hw1/lib_i2c/src/i2c_master.xc:90:0
	setd res[r4], r0
	.loc	2 90 0                  # /home/evgeny/git/104/UI-01_sw1_hw1/lib_i2c/src/i2c_master.xc:90:0
	setc res[r4], 9
	.loc	2 90 0                  # /home/evgeny/git/104/UI-01_sw1_hw1/lib_i2c/src/i2c_master.xc:90:0
.Ltmp58:
.Lxta.endpoint_labels1:
	in r0, res[r4]
	.loc	2 91 0                  # /home/evgeny/git/104/UI-01_sw1_hw1/lib_i2c/src/i2c_master.xc:91:0
	lda16 r0, r7[r7]
	.loc	2 91 0                  # /home/evgeny/git/104/UI-01_sw1_hw1/lib_i2c/src/i2c_master.xc:91:0
	shr r2, r0, 2
.Ltmp59:
	#DEBUG_VALUE: high_pulse_sample:fall_time <- undef
	.loc	2 91 0                  # /home/evgeny/git/104/UI-01_sw1_hw1/lib_i2c/src/i2c_master.xc:91:0
	mov r0, r9
	ldaw r1, sp[11]
.Lxta.call_labels3:
	bl release_clock_and_wait
	.loc	2 92 0                  # /home/evgeny/git/104/UI-01_sw1_hw1/lib_i2c/src/i2c_master.xc:92:0
	setc res[r8], 1
	.loc	2 92 0                  # /home/evgeny/git/104/UI-01_sw1_hw1/lib_i2c/src/i2c_master.xc:92:0
.Lxta.endpoint_labels2:
	in r1, res[r8]
.Ltmp60:
	#DEBUG_VALUE: sample_value <- R1
	.loc	2 93 0                  # /home/evgeny/git/104/UI-01_sw1_hw1/lib_i2c/src/i2c_master.xc:93:0
	ldw r0, sp[11]
	.loc	2 93 0                  # /home/evgeny/git/104/UI-01_sw1_hw1/lib_i2c/src/i2c_master.xc:93:0
	add r0, r0, r7
	.loc	2 93 0                  # /home/evgeny/git/104/UI-01_sw1_hw1/lib_i2c/src/i2c_master.xc:93:0
	stw r0, sp[11]
	.loc	2 94 0                  # /home/evgeny/git/104/UI-01_sw1_hw1/lib_i2c/src/i2c_master.xc:94:0
	setd res[r4], r0
	.loc	2 94 0                  # /home/evgeny/git/104/UI-01_sw1_hw1/lib_i2c/src/i2c_master.xc:94:0
	setc res[r4], 9
	.loc	2 94 0                  # /home/evgeny/git/104/UI-01_sw1_hw1/lib_i2c/src/i2c_master.xc:94:0
.Ltmp61:
.Lxta.endpoint_labels3:
	in r2, res[r4]
	mov r7, r10
.Ltmp62:
	.loc	2 95 13                 # /home/evgeny/git/104/UI-01_sw1_hw1/lib_i2c/src/i2c_master.xc:95:13
.Lxta.endpoint_labels4:
	out res[r9], r7
	.loc	2 97 3                  # /home/evgeny/git/104/UI-01_sw1_hw1/lib_i2c/src/i2c_master.xc:97:3
	zext r1, 1
.Ltmp63:
	#DEBUG_VALUE: temp <- R1
	.loc	2 219 0                 # /home/evgeny/git/104/UI-01_sw1_hw1/lib_i2c/src/i2c_master.xc:219:0
	shl r2, r6, 1
	ldc r3, 510
	.loc	2 219 0                 # /home/evgeny/git/104/UI-01_sw1_hw1/lib_i2c/src/i2c_master.xc:219:0
	and r2, r2, r3
	.loc	2 219 0                 # /home/evgeny/git/104/UI-01_sw1_hw1/lib_i2c/src/i2c_master.xc:219:0
	or r6, r1, r2
.Ltmp64:
	.loc	2 217 0                 # /home/evgeny/git/104/UI-01_sw1_hw1/lib_i2c/src/i2c_master.xc:217:0
	add r5, r5, 1
.xtaloop 8
	# LOOPMARKER 1
.Lxta.loop_labels0:
	# LOOPMARKER 0
	bt r5, .LBB2_7
.Ltmp65:
# BB#10:                                # %afterboundcheck
                                        #   in Loop: Header=BB2_6 Depth=1
.Lxtalabel4:
	#DEBUG_VALUE: _i.i2c_master_if.i2c_master._c0.read:device <- undef
	#DEBUG_VALUE: _i.i2c_master_if.i2c_master._c0.read:buf <- [SP+28]
	#DEBUG_VALUE: _i.i2c_master_if.i2c_master._c0.read:m <- [SP+32]
	#DEBUG_VALUE: data <- 0
	.loc	2 221 0                 # /home/evgeny/git/104/UI-01_sw1_hw1/lib_i2c/src/i2c_master.xc:221:0
	ldw r1, sp[7]                   # 4-byte Folded Reload
	ldw r2, sp[9]                   # 4-byte Folded Reload
	st8 r6, r1[r2]
	mov r6, r2
	ldw r10, sp[10]                 # 4-byte Folded Reload
	.loc	2 223 0                 # /home/evgeny/git/104/UI-01_sw1_hw1/lib_i2c/src/i2c_master.xc:223:0
	ldw r1, r10[11]
	.loc	2 223 0                 # /home/evgeny/git/104/UI-01_sw1_hw1/lib_i2c/src/i2c_master.xc:223:0
	shr r1, r1, 2
	.loc	2 223 0                 # /home/evgeny/git/104/UI-01_sw1_hw1/lib_i2c/src/i2c_master.xc:223:0
	add r1, r1, r0
	.loc	2 223 0                 # /home/evgeny/git/104/UI-01_sw1_hw1/lib_i2c/src/i2c_master.xc:223:0
	setd res[r4], r1
	.loc	2 223 0                 # /home/evgeny/git/104/UI-01_sw1_hw1/lib_i2c/src/i2c_master.xc:223:0
	setc res[r4], 9
	.loc	2 223 0                 # /home/evgeny/git/104/UI-01_sw1_hw1/lib_i2c/src/i2c_master.xc:223:0
.Ltmp66:
.Lxta.endpoint_labels5:
	in r1, res[r4]
	.loc	2 226 0                 # /home/evgeny/git/104/UI-01_sw1_hw1/lib_i2c/src/i2c_master.xc:226:0
	ldw r1, r10[9]
	.loc	2 225 11                # /home/evgeny/git/104/UI-01_sw1_hw1/lib_i2c/src/i2c_master.xc:225:11
	ldw r2, sp[6]                   # 4-byte Folded Reload
	eq r2, r6, r2
	bf r2, .LBB2_25
.Ltmp67:
# BB#11:                                # %iftrue137
                                        #   in Loop: Header=BB2_6 Depth=1
.Lxtalabel5:
	#DEBUG_VALUE: _i.i2c_master_if.i2c_master._c0.read:device <- undef
	#DEBUG_VALUE: _i.i2c_master_if.i2c_master._c0.read:buf <- [SP+28]
	#DEBUG_VALUE: _i.i2c_master_if.i2c_master._c0.read:m <- [SP+32]
	#DEBUG_VALUE: data <- 0
	.loc	2 226 0                 # /home/evgeny/git/104/UI-01_sw1_hw1/lib_i2c/src/i2c_master.xc:226:0
	setc res[r1], 1
	.loc	2 226 0                 # /home/evgeny/git/104/UI-01_sw1_hw1/lib_i2c/src/i2c_master.xc:226:0
.Ltmp68:
.Lxta.endpoint_labels6:
	in r1, res[r1]
	bu .LBB2_12
.Ltmp69:
.LBB2_25:                               # %iffalse145
                                        #   in Loop: Header=BB2_6 Depth=1
.Lxtalabel6:
	#DEBUG_VALUE: _i.i2c_master_if.i2c_master._c0.read:device <- undef
	#DEBUG_VALUE: _i.i2c_master_if.i2c_master._c0.read:buf <- [SP+28]
	#DEBUG_VALUE: _i.i2c_master_if.i2c_master._c0.read:m <- [SP+32]
	#DEBUG_VALUE: data <- 0
	.loc	2 228 23                # /home/evgeny/git/104/UI-01_sw1_hw1/lib_i2c/src/i2c_master.xc:228:23
.Lxta.endpoint_labels7:
	out res[r1], r7
.Ltmp70:
.LBB2_12:                               # %ifdone138
                                        #   in Loop: Header=BB2_6 Depth=1
.Lxtalabel7:
	#DEBUG_VALUE: _i.i2c_master_if.i2c_master._c0.read:device <- undef
	#DEBUG_VALUE: _i.i2c_master_if.i2c_master._c0.read:buf <- [SP+28]
	#DEBUG_VALUE: _i.i2c_master_if.i2c_master._c0.read:m <- [SP+32]
	#DEBUG_VALUE: data <- 0
	.loc	2 231 0                 # /home/evgeny/git/104/UI-01_sw1_hw1/lib_i2c/src/i2c_master.xc:231:0
	ldw r2, r10[10]
.Ltmp71:
	#DEBUG_VALUE: ticks <- 0
	#DEBUG_VALUE: compute_low_period_ticks:kbits_per_second <- R2
	#DEBUG_VALUE: high_pulse:kbits_per_second <- R2
	#DEBUG_VALUE: compute_low_period_ticks:kbits_per_second <- R2
	ldc r1, 101
	.loc	2 20 3                  # /home/evgeny/git/104/UI-01_sw1_hw1/lib_i2c/src/i2c_master.xc:20:3
.Ltmp72:
	lsu r1, r2, r1
	ldc r3, 473
	bt r1, .LBB2_14
.Ltmp73:
# BB#13:                                # %iffalse.i
                                        #   in Loop: Header=BB2_6 Depth=1
.Lxtalabel8:
	#DEBUG_VALUE: _i.i2c_master_if.i2c_master._c0.read:device <- undef
	#DEBUG_VALUE: _i.i2c_master_if.i2c_master._c0.read:buf <- [SP+28]
	#DEBUG_VALUE: _i.i2c_master_if.i2c_master._c0.read:m <- [SP+32]
	#DEBUG_VALUE: data <- 0
	#DEBUG_VALUE: compute_low_period_ticks:kbits_per_second <- R2
	#DEBUG_VALUE: ticks <- 0
	ldc r3, 401
	.loc	2 23 10                 # /home/evgeny/git/104/UI-01_sw1_hw1/lib_i2c/src/i2c_master.xc:23:10
	lsu r11, r2, r3
	ldc r3, 133
	.loc	2 27 0                  # /home/evgeny/git/104/UI-01_sw1_hw1/lib_i2c/src/i2c_master.xc:27:0
	ecallf r11
.Ltmp74:
.LBB2_14:                               # %compute_low_period_ticks.exit
                                        #   in Loop: Header=BB2_6 Depth=1
.Lxtalabel9:
	#DEBUG_VALUE: _i.i2c_master_if.i2c_master._c0.read:device <- undef
	#DEBUG_VALUE: _i.i2c_master_if.i2c_master._c0.read:buf <- [SP+28]
	#DEBUG_VALUE: _i.i2c_master_if.i2c_master._c0.read:m <- [SP+32]
	#DEBUG_VALUE: data <- 0
	#DEBUG_VALUE: compute_low_period_ticks:kbits_per_second <- R2
	#DEBUG_VALUE: high_pulse:kbits_per_second <- R2
	#DEBUG_VALUE: jitter_ticks <- 3
	.loc	2 231 0                 # /home/evgeny/git/104/UI-01_sw1_hw1/lib_i2c/src/i2c_master.xc:231:0
	add r3, r3, r0
	.loc	2 231 0                 # /home/evgeny/git/104/UI-01_sw1_hw1/lib_i2c/src/i2c_master.xc:231:0
	setd res[r4], r3
	.loc	2 231 0                 # /home/evgeny/git/104/UI-01_sw1_hw1/lib_i2c/src/i2c_master.xc:231:0
	setc res[r4], 9
	.loc	2 231 0                 # /home/evgeny/git/104/UI-01_sw1_hw1/lib_i2c/src/i2c_master.xc:231:0
.Ltmp75:
.Lxta.endpoint_labels8:
	in r3, res[r4]
	.loc	2 232 0                 # /home/evgeny/git/104/UI-01_sw1_hw1/lib_i2c/src/i2c_master.xc:232:0
	ldw r9, r10[8]
.Ltmp76:
	#DEBUG_VALUE: high_pulse:p_scl <- R9
	ldw r3, cp[.LCPI2_1]
	.loc	2 109 0                 # /home/evgeny/git/104/UI-01_sw1_hw1/lib_i2c/src/i2c_master.xc:109:0
.Ltmp77:
	divu r5, r3, r2
.Ltmp78:
	#DEBUG_VALUE: ticks <- 0
	#DEBUG_VALUE: bit_time <- R5
	ldc r2, 473
.Ltmp79:
	bt r1, .LBB2_16
.Ltmp80:
# BB#15:                                # %compute_low_period_ticks.exit
                                        #   in Loop: Header=BB2_6 Depth=1
.Lxtalabel10:
	#DEBUG_VALUE: _i.i2c_master_if.i2c_master._c0.read:device <- undef
	#DEBUG_VALUE: _i.i2c_master_if.i2c_master._c0.read:buf <- [SP+28]
	#DEBUG_VALUE: _i.i2c_master_if.i2c_master._c0.read:m <- [SP+32]
	#DEBUG_VALUE: data <- 0
	#DEBUG_VALUE: high_pulse:p_scl <- R9
	#DEBUG_VALUE: bit_time <- R5
	#DEBUG_VALUE: ticks <- 0
	ldc r2, 133
.Ltmp81:
.LBB2_16:                               # %compute_low_period_ticks.exit
                                        #   in Loop: Header=BB2_6 Depth=1
.Lxtalabel11:
	#DEBUG_VALUE: _i.i2c_master_if.i2c_master._c0.read:device <- undef
	#DEBUG_VALUE: _i.i2c_master_if.i2c_master._c0.read:buf <- [SP+28]
	#DEBUG_VALUE: _i.i2c_master_if.i2c_master._c0.read:m <- [SP+32]
	#DEBUG_VALUE: data <- 0
	#DEBUG_VALUE: high_pulse:p_scl <- R9
	#DEBUG_VALUE: bit_time <- R5
	#DEBUG_VALUE: jitter_ticks <- 3
	.loc	2 112 0                 # /home/evgeny/git/104/UI-01_sw1_hw1/lib_i2c/src/i2c_master.xc:112:0
	add r0, r2, r0
	.loc	2 112 0                 # /home/evgeny/git/104/UI-01_sw1_hw1/lib_i2c/src/i2c_master.xc:112:0
	setd res[r4], r0
	.loc	2 112 0                 # /home/evgeny/git/104/UI-01_sw1_hw1/lib_i2c/src/i2c_master.xc:112:0
	setc res[r4], 9
	.loc	2 112 0                 # /home/evgeny/git/104/UI-01_sw1_hw1/lib_i2c/src/i2c_master.xc:112:0
.Ltmp82:
.Lxta.endpoint_labels9:
	in r0, res[r4]
	.loc	2 113 0                 # /home/evgeny/git/104/UI-01_sw1_hw1/lib_i2c/src/i2c_master.xc:113:0
	lda16 r0, r5[r5]
	.loc	2 113 0                 # /home/evgeny/git/104/UI-01_sw1_hw1/lib_i2c/src/i2c_master.xc:113:0
	shr r2, r0, 2
.Ltmp83:
	#DEBUG_VALUE: high_pulse:fall_time <- undef
	.loc	2 113 0                 # /home/evgeny/git/104/UI-01_sw1_hw1/lib_i2c/src/i2c_master.xc:113:0
	mov r0, r9
	ldaw r1, sp[11]
.Lxta.call_labels4:
	bl release_clock_and_wait
	.loc	2 114 0                 # /home/evgeny/git/104/UI-01_sw1_hw1/lib_i2c/src/i2c_master.xc:114:0
	ldw r0, sp[11]
	.loc	2 114 0                 # /home/evgeny/git/104/UI-01_sw1_hw1/lib_i2c/src/i2c_master.xc:114:0
	add r0, r0, r5
	.loc	2 114 0                 # /home/evgeny/git/104/UI-01_sw1_hw1/lib_i2c/src/i2c_master.xc:114:0
	stw r0, sp[11]
	.loc	2 115 0                 # /home/evgeny/git/104/UI-01_sw1_hw1/lib_i2c/src/i2c_master.xc:115:0
	setd res[r4], r0
	.loc	2 115 0                 # /home/evgeny/git/104/UI-01_sw1_hw1/lib_i2c/src/i2c_master.xc:115:0
	setc res[r4], 9
	.loc	2 115 0                 # /home/evgeny/git/104/UI-01_sw1_hw1/lib_i2c/src/i2c_master.xc:115:0
.Ltmp84:
.Lxta.endpoint_labels10:
	in r1, res[r4]
	.loc	2 116 13                # /home/evgeny/git/104/UI-01_sw1_hw1/lib_i2c/src/i2c_master.xc:116:13
.Lxta.endpoint_labels11:
	out res[r9], r7
.Ltmp85:
	.loc	2 233 0                 # /home/evgeny/git/104/UI-01_sw1_hw1/lib_i2c/src/i2c_master.xc:233:0
	ldw r1, r10[9]
	.loc	2 233 0                 # /home/evgeny/git/104/UI-01_sw1_hw1/lib_i2c/src/i2c_master.xc:233:0
	setc res[r1], 1
	.loc	2 233 0                 # /home/evgeny/git/104/UI-01_sw1_hw1/lib_i2c/src/i2c_master.xc:233:0
.Ltmp86:
.Lxta.endpoint_labels12:
	in r1, res[r1]
.Ltmp87:
	.loc	2 214 0                 # /home/evgeny/git/104/UI-01_sw1_hw1/lib_i2c/src/i2c_master.xc:214:0
	add r6, r6, 1
.Ltmp88:
	#DEBUG_VALUE: j <- R6
	.loc	2 214 0                 # /home/evgeny/git/104/UI-01_sw1_hw1/lib_i2c/src/i2c_master.xc:214:0
	ldw r1, sp[8]                   # 4-byte Folded Reload
	lsu r1, r6, r1
.Lxta.loop_labels1:
	# LOOPMARKER 2
	bt r1, .LBB2_6
.Ltmp89:
.LBB2_17:                               # %ifdone93
.Lxtalabel12:
	#DEBUG_VALUE: _i.i2c_master_if.i2c_master._c0.read:device <- undef
	ldw r0, sp[21]
	#DEBUG_VALUE: _i.i2c_master_if.i2c_master._c0.read:send_stop_bit <- R0
	ldw r1, sp[4]                   # 4-byte Folded Reload
	bf r0, .LBB2_19
.Ltmp90:
# BB#18:                                # %iftrue171
.Lxtalabel13:
	#DEBUG_VALUE: _i.i2c_master_if.i2c_master._c0.read:device <- undef
	.loc	2 237 0                 # /home/evgeny/git/104/UI-01_sw1_hw1/lib_i2c/src/i2c_master.xc:237:0
	ldw r0, r10[8]
	.loc	2 237 0                 # /home/evgeny/git/104/UI-01_sw1_hw1/lib_i2c/src/i2c_master.xc:237:0
	ldw r1, r10[9]
	.loc	2 237 0                 # /home/evgeny/git/104/UI-01_sw1_hw1/lib_i2c/src/i2c_master.xc:237:0
	ldw r2, r10[10]
	ldaw r3, sp[11]
.Ltmp91:
	#DEBUG_VALUE: fall_time <- [R3+0]
	.loc	2 237 0                 # /home/evgeny/git/104/UI-01_sw1_hw1/lib_i2c/src/i2c_master.xc:237:0
.Lxta.call_labels5:
	bl stop_bit
.Ltmp92:
	mkmsk r1, 32
.LBB2_19:                               # %ifdone172
.Lxtalabel14:
	#DEBUG_VALUE: _i.i2c_master_if.i2c_master._c0.read:device <- undef
	.loc	2 241 0                 # /home/evgeny/git/104/UI-01_sw1_hw1/lib_i2c/src/i2c_master.xc:241:0
	ldw r0, sp[3]                   # 4-byte Folded Reload
	stw r1, r0[0]
	.loc	2 247 0                 # /home/evgeny/git/104/UI-01_sw1_hw1/lib_i2c/src/i2c_master.xc:247:0
	ldw r0, sp[11]
	.loc	2 247 0                 # /home/evgeny/git/104/UI-01_sw1_hw1/lib_i2c/src/i2c_master.xc:247:0
	ldw r1, sp[2]                   # 4-byte Folded Reload
	stw r0, r1[0]
	mkmsk r0, 1
	stw r0, r10[0]
	ldw r0, sp[5]                   # 4-byte Folded Reload
	ldw r10, sp[18]                 # 4-byte Folded Reload
	ldd r9, r8, sp[8]               # 4-byte Folded Reload
	ldd r7, r6, sp[7]               # 4-byte Folded Reload
	ldd r5, r4, sp[6]               # 4-byte Folded Reload
	retsp 20
	# RETURN_REG_HOLDER
.Ltmp93:
	.cc_bottom _i.i2c_master_if.i2c_master._c0.read.function
	.set	_i.i2c_master_if.i2c_master._c0.read.nstackwords,((start_bit.nstackwords $M tx8.nstackwords $M stop_bit.nstackwords $M release_clock_and_wait.nstackwords $M _i.i2c_master_if._client_call_y.max.nstackwords $M ($D __interface_yield_once.nstackwords ? __interface_yield_once.nstackwords $: _i.i2c_master_if._client_call_y.max.nstackwords)) + 20)
	.globl	_i.i2c_master_if.i2c_master._c0.read.nstackwords
	.set	_i.i2c_master_if.i2c_master._c0.read.maxcores,($D __interface_yield_once.maxcores ? __interface_yield_once.maxcores $: _i.i2c_master_if._client_call_y.max.maxcores) $M release_clock_and_wait.maxcores $M start_bit.maxcores $M stop_bit.maxcores $M tx8.maxcores $M 1
	.globl	_i.i2c_master_if.i2c_master._c0.read.maxcores
	.set	_i.i2c_master_if.i2c_master._c0.read.maxtimers,($D __interface_yield_once.maxtimers ? __interface_yield_once.maxtimers $: _i.i2c_master_if._client_call_y.max.maxtimers) $M release_clock_and_wait.maxtimers $M start_bit.maxtimers $M stop_bit.maxtimers $M tx8.maxtimers $M 0
	.globl	_i.i2c_master_if.i2c_master._c0.read.maxtimers
	.set	_i.i2c_master_if.i2c_master._c0.read.maxchanends,($D __interface_yield_once.maxchanends ? __interface_yield_once.maxchanends $: _i.i2c_master_if._client_call_y.max.maxchanends) $M release_clock_and_wait.maxchanends $M start_bit.maxchanends $M stop_bit.maxchanends $M tx8.maxchanends $M 0
	.globl	_i.i2c_master_if.i2c_master._c0.read.maxchanends
.Ltmp94:
	.size	_i.i2c_master_if.i2c_master._c0.read, .Ltmp94-_i.i2c_master_if.i2c_master._c0.read
.Lfunc_end2:
	.cfi_endproc

	.globl	_i.i2c_master_if.i2c_master._c0.write
	.align	4
	.type	_i.i2c_master_if.i2c_master._c0.write,@function
	.cc_top _i.i2c_master_if.i2c_master._c0.write.function,_i.i2c_master_if.i2c_master._c0.write
_i.i2c_master_if.i2c_master._c0.write:  # @_i.i2c_master_if.i2c_master._c0.write
.Lfunc_begin3:
	.loc	2 250 0                 # /home/evgeny/git/104/UI-01_sw1_hw1/lib_i2c/src/i2c_master.xc:250:0
	.cfi_startproc
	.issue_mode single
# BB#0:                                 # %allocas
	ENTSP_lu6 14
.Ltmp95:
	.cfi_def_cfa_offset 56
.Ltmp96:
	.cfi_offset 15, 0
	std r5, r4, sp[3]               # 4-byte Folded Spill
.Ltmp97:
	.cfi_offset 4, -32
.Ltmp98:
	.cfi_offset 5, -28
	std r7, r6, sp[4]               # 4-byte Folded Spill
.Ltmp99:
	.cfi_offset 6, -24
.Ltmp100:
	.cfi_offset 7, -20
	std r9, r8, sp[5]               # 4-byte Folded Spill
.Ltmp101:
	.cfi_offset 8, -16
.Ltmp102:
	.cfi_offset 9, -12
	stw r10, sp[12]                 # 4-byte Folded Spill
.Ltmp103:
	.cfi_offset 10, -8
	#DEBUG_VALUE: _i.i2c_master_if.i2c_master._c0.write:p <- R0
	#DEBUG_VALUE: _i.i2c_master_if.i2c_master._c0.write:device <- R1
	#DEBUG_VALUE: _i.i2c_master_if.i2c_master._c0.write:buf <- R2
	#DEBUG_VALUE: _i.i2c_master_if.i2c_master._c0.write:n <- R3
	mov r5, r3
.Ltmp104:
	#DEBUG_VALUE: _i.i2c_master_if.i2c_master._c0.write:n <- R5
	mov r6, r2
.Ltmp105:
	#DEBUG_VALUE: _i.i2c_master_if.i2c_master._c0.write:buf <- R6
	mov r7, r1
.Ltmp106:
	#DEBUG_VALUE: _i.i2c_master_if.i2c_master._c0.write:device <- undef
	#DEBUG_VALUE: _i.i2c_master_if.i2c_master._c0.write:device <- R7
	ldw r9, r0[0]
	ldw r4, r0[1]
.Ltmp107:
.LBB3_1:                                # %allocas
                                        # =>This Inner Loop Header: Depth=1
	ldw r0, r9[0]
	bf r0, .LBB3_1
# BB#2:                                 # %ifdone
.Ltmp108:
	#DEBUG_VALUE: _i.i2c_master_if.i2c_master._c0.write:device <- undef
	#DEBUG_VALUE: _i.i2c_master_if.i2c_master._c0.write:buf <- R6
	#DEBUG_VALUE: _i.i2c_master_if.i2c_master._c0.write:n <- R5
	ldw r0, r9[7]
	eq r0, r0, 1
	ldc r1, 52
	.loc	2 256 0 prologue_end    # /home/evgeny/git/104/UI-01_sw1_hw1/lib_i2c/src/i2c_master.xc:256:0
.Ltmp109:
	add r10, r9, r1
	bt r0, .LBB3_3
.Ltmp110:
# BB#9:                                 # %lhsfalse
	#DEBUG_VALUE: _i.i2c_master_if.i2c_master._c0.write:device <- undef
	#DEBUG_VALUE: _i.i2c_master_if.i2c_master._c0.write:buf <- R6
	#DEBUG_VALUE: _i.i2c_master_if.i2c_master._c0.write:n <- R5
	ldw r0, r10[0]
	mkmsk r8, 32
	bu .LBB3_13
.Ltmp111:
.LBB3_12:                               # %lhsfalse51
                                        #   in Loop: Header=BB3_13 Depth=1
	#DEBUG_VALUE: _i.i2c_master_if.i2c_master._c0.write:device <- undef
	#DEBUG_VALUE: _i.i2c_master_if.i2c_master._c0.write:buf <- R6
	#DEBUG_VALUE: _i.i2c_master_if.i2c_master._c0.write:n <- R5
	ldw r0, r10[0]
.Ltmp112:
.LBB3_13:                               # %lhsfalse51
                                        # =>This Inner Loop Header: Depth=1
	eq r1, r0, r8
	bt r1, .LBB3_3
# BB#10:                                # %lhsfalse
                                        #   in Loop: Header=BB3_13 Depth=1
	#DEBUG_VALUE: _i.i2c_master_if.i2c_master._c0.write:device <- undef
.Ltmp113:
	#DEBUG_VALUE: _i.i2c_master_if.i2c_master._c0.write:buf <- R6
	#DEBUG_VALUE: _i.i2c_master_if.i2c_master._c0.write:n <- R5
	eq r0, r4, r0
	bt r0, .LBB3_3
.Ltmp114:
# BB#11:                                # %LoopBody42
                                        #   in Loop: Header=BB3_13 Depth=1
	#DEBUG_VALUE: _i.i2c_master_if.i2c_master._c0.write:device <- undef
	#DEBUG_VALUE: _i.i2c_master_if.i2c_master._c0.write:buf <- R6
	#DEBUG_VALUE: _i.i2c_master_if.i2c_master._c0.write:n <- R5
	mov r0, r4
	bl __interface_yield_once
	ldw r0, r9[7]
	eq r0, r0, 1
	bf r0, .LBB3_12
.Ltmp115:
.LBB3_3:                                # %ifdone19
	#DEBUG_VALUE: _i.i2c_master_if.i2c_master._c0.write:device <- undef
	#DEBUG_VALUE: _i.i2c_master_if.i2c_master._c0.write:buf <- R6
	#DEBUG_VALUE: _i.i2c_master_if.i2c_master._c0.write:n <- R5
	#DEBUG_VALUE: _i.i2c_master_if.i2c_master._c0.write:send_stop_bit <- undef
	mov r1, r10
	stw r1, sp[4]                   # 4-byte Folded Spill
	ldc r10, 0
	stw r10, r9[0]
	ldc r0, 48
	.loc	2 255 0                 # /home/evgeny/git/104/UI-01_sw1_hw1/lib_i2c/src/i2c_master.xc:255:0
	add r0, r9, r0
	.loc	2 255 0                 # /home/evgeny/git/104/UI-01_sw1_hw1/lib_i2c/src/i2c_master.xc:255:0
	stw r0, sp[3]                   # 4-byte Folded Spill
	ldw r0, r0[0]
.Ltmp116:
	#DEBUG_VALUE: fall_time <- R0
	.loc	2 255 0                 # /home/evgeny/git/104/UI-01_sw1_hw1/lib_i2c/src/i2c_master.xc:255:0
	stw r0, sp[5]
	.loc	2 256 0                 # /home/evgeny/git/104/UI-01_sw1_hw1/lib_i2c/src/i2c_master.xc:256:0
.Ltmp117:
	ldw r0, r1[0]
.Ltmp118:
	mkmsk r1, 32
	.loc	2 256 0                 # /home/evgeny/git/104/UI-01_sw1_hw1/lib_i2c/src/i2c_master.xc:256:0
	eq r3, r0, r1
	.loc	2 257 0                 # /home/evgeny/git/104/UI-01_sw1_hw1/lib_i2c/src/i2c_master.xc:257:0
	ldw r0, r9[8]
	.loc	2 257 0                 # /home/evgeny/git/104/UI-01_sw1_hw1/lib_i2c/src/i2c_master.xc:257:0
	ldw r1, r9[9]
	.loc	2 257 0                 # /home/evgeny/git/104/UI-01_sw1_hw1/lib_i2c/src/i2c_master.xc:257:0
	ldw r2, r9[10]
	.loc	2 257 0                 # /home/evgeny/git/104/UI-01_sw1_hw1/lib_i2c/src/i2c_master.xc:257:0
	stw r3, sp[1]
	ldaw r8, sp[5]
.Ltmp119:
	#DEBUG_VALUE: fall_time <- [R8+0]
	mov r3, r8
.Lxta.call_labels6:
	bl start_bit
	.loc	2 258 0                 # /home/evgeny/git/104/UI-01_sw1_hw1/lib_i2c/src/i2c_master.xc:258:0
.Ltmp120:
	ldw r0, r9[8]
	.loc	2 258 0                 # /home/evgeny/git/104/UI-01_sw1_hw1/lib_i2c/src/i2c_master.xc:258:0
	ldw r1, r9[9]
	.loc	2 258 0                 # /home/evgeny/git/104/UI-01_sw1_hw1/lib_i2c/src/i2c_master.xc:258:0
	shl r2, r7, 1
	.loc	2 258 0                 # /home/evgeny/git/104/UI-01_sw1_hw1/lib_i2c/src/i2c_master.xc:258:0
	ldw r3, r9[10]
	.loc	2 258 0                 # /home/evgeny/git/104/UI-01_sw1_hw1/lib_i2c/src/i2c_master.xc:258:0
	stw r8, sp[1]
.Lxta.call_labels7:
	bl tx8
	mov r7, r0
.Ltmp121:
	#DEBUG_VALUE: j <- 0
	#DEBUG_VALUE: ack <- R7
	bf r5, .LBB3_6
.Ltmp122:
.LBB3_4:                                # %LoopBody97
                                        # =>This Inner Loop Header: Depth=1
.Lxtalabel15:
	#DEBUG_VALUE: _i.i2c_master_if.i2c_master._c0.write:device <- undef
	#DEBUG_VALUE: _i.i2c_master_if.i2c_master._c0.write:buf <- R6
	#DEBUG_VALUE: _i.i2c_master_if.i2c_master._c0.write:n <- R5
	#DEBUG_VALUE: _i.i2c_master_if.i2c_master._c0.write:send_stop_bit <- undef
	bt r7, .LBB3_6
.Ltmp123:
# BB#5:                                 # %afterboundcheck
                                        #   in Loop: Header=BB3_4 Depth=1
.Lxtalabel16:
	#DEBUG_VALUE: _i.i2c_master_if.i2c_master._c0.write:device <- undef
	#DEBUG_VALUE: _i.i2c_master_if.i2c_master._c0.write:buf <- R6
	#DEBUG_VALUE: _i.i2c_master_if.i2c_master._c0.write:n <- R5
	#DEBUG_VALUE: _i.i2c_master_if.i2c_master._c0.write:send_stop_bit <- undef
	.loc	2 264 0                 # /home/evgeny/git/104/UI-01_sw1_hw1/lib_i2c/src/i2c_master.xc:264:0
	ldw r1, r9[9]
	.loc	2 264 0                 # /home/evgeny/git/104/UI-01_sw1_hw1/lib_i2c/src/i2c_master.xc:264:0
	ldw r0, r9[8]
	.loc	2 264 0                 # /home/evgeny/git/104/UI-01_sw1_hw1/lib_i2c/src/i2c_master.xc:264:0
	ld8u r2, r6[r10]
	.loc	2 264 0                 # /home/evgeny/git/104/UI-01_sw1_hw1/lib_i2c/src/i2c_master.xc:264:0
	ldw r3, r9[10]
.Ltmp124:
	#DEBUG_VALUE: fall_time <- [R8+0]
	.loc	2 264 0                 # /home/evgeny/git/104/UI-01_sw1_hw1/lib_i2c/src/i2c_master.xc:264:0
	stw r8, sp[1]
.Lxta.call_labels8:
	bl tx8
	mov r7, r0
.Ltmp125:
	#DEBUG_VALUE: ack <- R7
	.loc	2 260 0                 # /home/evgeny/git/104/UI-01_sw1_hw1/lib_i2c/src/i2c_master.xc:260:0
	add r10, r10, 1
.Ltmp126:
	#DEBUG_VALUE: j <- R10
	.loc	2 260 0                 # /home/evgeny/git/104/UI-01_sw1_hw1/lib_i2c/src/i2c_master.xc:260:0
	lsu r0, r10, r5
.Lxta.loop_labels2:
	# LOOPMARKER 0
	bt r0, .LBB3_4
.Ltmp127:
.LBB3_6:                                # %ifdone92
.Lxtalabel17:
	#DEBUG_VALUE: _i.i2c_master_if.i2c_master._c0.write:device <- undef
	#DEBUG_VALUE: _i.i2c_master_if.i2c_master._c0.write:send_stop_bit <- undef
	#DEBUG_VALUE: j <- 0
	ldw r5, sp[15]
	#DEBUG_VALUE: _i.i2c_master_if.i2c_master._c0.write:num_bytes_sent <- R5
	ldw r0, sp[16]
	bf r0, .LBB3_8
.Ltmp128:
# BB#7:                                 # %iftrue119
.Lxtalabel18:
	#DEBUG_VALUE: _i.i2c_master_if.i2c_master._c0.write:device <- undef
	#DEBUG_VALUE: j <- 0
	#DEBUG_VALUE: _i.i2c_master_if.i2c_master._c0.write:num_bytes_sent <- R5
	.loc	2 267 0                 # /home/evgeny/git/104/UI-01_sw1_hw1/lib_i2c/src/i2c_master.xc:267:0
	ldw r0, r9[8]
	.loc	2 267 0                 # /home/evgeny/git/104/UI-01_sw1_hw1/lib_i2c/src/i2c_master.xc:267:0
	ldw r1, r9[9]
	.loc	2 267 0                 # /home/evgeny/git/104/UI-01_sw1_hw1/lib_i2c/src/i2c_master.xc:267:0
	ldw r2, r9[10]
	ldaw r3, sp[5]
.Ltmp129:
	#DEBUG_VALUE: fall_time <- [R3+0]
	.loc	2 267 0                 # /home/evgeny/git/104/UI-01_sw1_hw1/lib_i2c/src/i2c_master.xc:267:0
.Lxta.call_labels9:
	bl stop_bit
.Ltmp130:
	mkmsk r4, 32
.Ltmp131:
.LBB3_8:                                # %ifdone120
.Lxtalabel19:
	#DEBUG_VALUE: _i.i2c_master_if.i2c_master._c0.write:device <- undef
	#DEBUG_VALUE: j <- 0
	#DEBUG_VALUE: _i.i2c_master_if.i2c_master._c0.write:num_bytes_sent <- R5
	.loc	2 270 0                 # /home/evgeny/git/104/UI-01_sw1_hw1/lib_i2c/src/i2c_master.xc:270:0
	ldw r0, sp[4]                   # 4-byte Folded Reload
	stw r4, r0[0]
	.loc	2 272 0                 # /home/evgeny/git/104/UI-01_sw1_hw1/lib_i2c/src/i2c_master.xc:272:0
	stw r10, r5[0]
	.loc	2 273 0                 # /home/evgeny/git/104/UI-01_sw1_hw1/lib_i2c/src/i2c_master.xc:273:0
	eq r0, r7, 0
	.loc	2 276 0                 # /home/evgeny/git/104/UI-01_sw1_hw1/lib_i2c/src/i2c_master.xc:276:0
	ldw r1, sp[5]
	.loc	2 276 0                 # /home/evgeny/git/104/UI-01_sw1_hw1/lib_i2c/src/i2c_master.xc:276:0
	ldw r2, sp[3]                   # 4-byte Folded Reload
	stw r1, r2[0]
	mkmsk r1, 1
	stw r1, r9[0]
	ldw r10, sp[12]                 # 4-byte Folded Reload
	ldd r9, r8, sp[5]               # 4-byte Folded Reload
	ldd r7, r6, sp[4]               # 4-byte Folded Reload
	ldd r5, r4, sp[3]               # 4-byte Folded Reload
.Ltmp132:
	retsp 14
	# RETURN_REG_HOLDER
.Ltmp133:
	.cc_bottom _i.i2c_master_if.i2c_master._c0.write.function
	.set	_i.i2c_master_if.i2c_master._c0.write.nstackwords,((start_bit.nstackwords $M stop_bit.nstackwords $M tx8.nstackwords $M _i.i2c_master_if._client_call_y.max.nstackwords $M ($D __interface_yield_once.nstackwords ? __interface_yield_once.nstackwords $: _i.i2c_master_if._client_call_y.max.nstackwords)) + 14)
	.globl	_i.i2c_master_if.i2c_master._c0.write.nstackwords
	.set	_i.i2c_master_if.i2c_master._c0.write.maxcores,($D __interface_yield_once.maxcores ? __interface_yield_once.maxcores $: _i.i2c_master_if._client_call_y.max.maxcores) $M start_bit.maxcores $M stop_bit.maxcores $M tx8.maxcores $M 1
	.globl	_i.i2c_master_if.i2c_master._c0.write.maxcores
	.set	_i.i2c_master_if.i2c_master._c0.write.maxtimers,($D __interface_yield_once.maxtimers ? __interface_yield_once.maxtimers $: _i.i2c_master_if._client_call_y.max.maxtimers) $M start_bit.maxtimers $M stop_bit.maxtimers $M tx8.maxtimers $M 0
	.globl	_i.i2c_master_if.i2c_master._c0.write.maxtimers
	.set	_i.i2c_master_if.i2c_master._c0.write.maxchanends,($D __interface_yield_once.maxchanends ? __interface_yield_once.maxchanends $: _i.i2c_master_if._client_call_y.max.maxchanends) $M start_bit.maxchanends $M stop_bit.maxchanends $M tx8.maxchanends $M 0
	.globl	_i.i2c_master_if.i2c_master._c0.write.maxchanends
.Ltmp134:
	.size	_i.i2c_master_if.i2c_master._c0.write, .Ltmp134-_i.i2c_master_if.i2c_master._c0.write
.Lfunc_end3:
	.cfi_endproc

	.globl	_i.i2c_master_if.i2c_master.0.shutdown
	.align	4
	.type	_i.i2c_master_if.i2c_master.0.shutdown,@function
	.cc_top _i.i2c_master_if.i2c_master.0.shutdown.function,_i.i2c_master_if.i2c_master.0.shutdown
_i.i2c_master_if.i2c_master.0.shutdown: # @_i.i2c_master_if.i2c_master.0.shutdown
	.cfi_startproc
	.issue_mode single
# BB#0:                                 # %allocas
	ENTSP_lu6 4
.Ltmp135:
	.cfi_def_cfa_offset 16
.Ltmp136:
	.cfi_offset 15, 0
	std r5, r4, sp[1]               # 4-byte Folded Spill
.Ltmp137:
	.cfi_offset 4, -8
.Ltmp138:
	.cfi_offset 5, -4
	#DEBUG_VALUE: _i.i2c_master_if.i2c_master.0.shutdown:p <- R0
	ldw r5, r0[0]
.LBB4_1:                                # %LoopTest
                                        # =>This Inner Loop Header: Depth=1
	ldw r0, r5[0]
	bf r0, .LBB4_1
# BB#2:                                 # %ifdone
	add r4, r5, 8
	mov r0, r4
	bl __lock_fair_acquire
	ldc r0, 0
	stw r0, r5[0]
	mov r0, r4
	bl __lock_fair_release
	ldw r0, r5[4]
	add r0, r0, 1
	stw r0, r5[4]
	ldd r5, r4, sp[1]               # 4-byte Folded Reload
	retsp 4
	# RETURN_REG_HOLDER
	.cc_bottom _i.i2c_master_if.i2c_master.0.shutdown.function
	.set	_i.i2c_master_if.i2c_master.0.shutdown.nstackwords,((__lock_fair_acquire.nstackwords $M __lock_fair_release.nstackwords) + 4)
	.globl	_i.i2c_master_if.i2c_master.0.shutdown.nstackwords
	.set	_i.i2c_master_if.i2c_master.0.shutdown.maxcores,__lock_fair_acquire.maxcores $M __lock_fair_release.maxcores $M 1
	.globl	_i.i2c_master_if.i2c_master.0.shutdown.maxcores
	.set	_i.i2c_master_if.i2c_master.0.shutdown.maxtimers,__lock_fair_acquire.maxtimers $M __lock_fair_release.maxtimers $M 0
	.globl	_i.i2c_master_if.i2c_master.0.shutdown.maxtimers
	.set	_i.i2c_master_if.i2c_master.0.shutdown.maxchanends,__lock_fair_acquire.maxchanends $M __lock_fair_release.maxchanends $M 0
	.globl	_i.i2c_master_if.i2c_master.0.shutdown.maxchanends
.Ltmp139:
	.size	_i.i2c_master_if.i2c_master.0.shutdown, .Ltmp139-_i.i2c_master_if.i2c_master.0.shutdown
	.cfi_endproc

	.globl	_i.i2c_master_if.i2c_master.0.send_stop_bit
	.align	4
	.type	_i.i2c_master_if.i2c_master.0.send_stop_bit,@function
	.cc_top _i.i2c_master_if.i2c_master.0.send_stop_bit.function,_i.i2c_master_if.i2c_master.0.send_stop_bit
_i.i2c_master_if.i2c_master.0.send_stop_bit: # @_i.i2c_master_if.i2c_master.0.send_stop_bit
.Lfunc_begin5:
	.loc	2 279 0                 # /home/evgeny/git/104/UI-01_sw1_hw1/lib_i2c/src/i2c_master.xc:279:0
	.cfi_startproc
	.issue_mode single
# BB#0:                                 # %allocas
	ENTSP_lu6 4
.Ltmp140:
	.cfi_def_cfa_offset 16
.Ltmp141:
	.cfi_offset 15, 0
	std r5, r4, sp[1]               # 4-byte Folded Spill
.Ltmp142:
	.cfi_offset 4, -8
.Ltmp143:
	.cfi_offset 5, -4
	#DEBUG_VALUE: _i.i2c_master_if.i2c_master.0.send_stop_bit:p <- R0
	ldw r5, r0[0]
.Ltmp144:
.LBB5_1:                                # %LoopTest
                                        # =>This Inner Loop Header: Depth=1
	ldw r0, r5[0]
	bf r0, .LBB5_1
# BB#2:                                 # %ifdone
	add r4, r5, 8
	mov r0, r4
	bl __lock_fair_acquire
	.loc	2 282 0 prologue_end    # /home/evgeny/git/104/UI-01_sw1_hw1/lib_i2c/src/i2c_master.xc:282:0
.Ltmp145:
	gettime r0
.Ltmp146:
	#DEBUG_VALUE: fall_time <- R0
	.loc	2 282 0                 # /home/evgeny/git/104/UI-01_sw1_hw1/lib_i2c/src/i2c_master.xc:282:0
	stw r0, sp[1]
	.loc	2 283 0                 # /home/evgeny/git/104/UI-01_sw1_hw1/lib_i2c/src/i2c_master.xc:283:0
.Ltmp147:
	ldw r0, r5[8]
.Ltmp148:
	.loc	2 283 0                 # /home/evgeny/git/104/UI-01_sw1_hw1/lib_i2c/src/i2c_master.xc:283:0
	ldw r1, r5[9]
	.loc	2 283 0                 # /home/evgeny/git/104/UI-01_sw1_hw1/lib_i2c/src/i2c_master.xc:283:0
	ldw r2, r5[10]
	ldaw r3, sp[1]
.Ltmp149:
	#DEBUG_VALUE: fall_time <- [R3+0]
	.loc	2 283 0                 # /home/evgeny/git/104/UI-01_sw1_hw1/lib_i2c/src/i2c_master.xc:283:0
.Lxta.call_labels10:
	bl stop_bit
.Ltmp150:
	ldc r0, 52
	.loc	2 284 0                 # /home/evgeny/git/104/UI-01_sw1_hw1/lib_i2c/src/i2c_master.xc:284:0
	add r0, r5, r0
	mkmsk r1, 32
	.loc	2 284 0                 # /home/evgeny/git/104/UI-01_sw1_hw1/lib_i2c/src/i2c_master.xc:284:0
	stw r1, r0[0]
	clre
	mov r0, r4
	bl __lock_fair_release
	ldw r0, r5[4]
	add r0, r0, 1
	stw r0, r5[4]
	ldd r5, r4, sp[1]               # 4-byte Folded Reload
	retsp 4
	# RETURN_REG_HOLDER
.Ltmp151:
	.cc_bottom _i.i2c_master_if.i2c_master.0.send_stop_bit.function
	.set	_i.i2c_master_if.i2c_master.0.send_stop_bit.nstackwords,((__lock_fair_acquire.nstackwords $M stop_bit.nstackwords $M __lock_fair_release.nstackwords) + 4)
	.globl	_i.i2c_master_if.i2c_master.0.send_stop_bit.nstackwords
	.set	_i.i2c_master_if.i2c_master.0.send_stop_bit.maxcores,__lock_fair_acquire.maxcores $M __lock_fair_release.maxcores $M stop_bit.maxcores $M 1
	.globl	_i.i2c_master_if.i2c_master.0.send_stop_bit.maxcores
	.set	_i.i2c_master_if.i2c_master.0.send_stop_bit.maxtimers,__lock_fair_acquire.maxtimers $M __lock_fair_release.maxtimers $M stop_bit.maxtimers $M 0
	.globl	_i.i2c_master_if.i2c_master.0.send_stop_bit.maxtimers
	.set	_i.i2c_master_if.i2c_master.0.send_stop_bit.maxchanends,__lock_fair_acquire.maxchanends $M __lock_fair_release.maxchanends $M stop_bit.maxchanends $M 0
	.globl	_i.i2c_master_if.i2c_master.0.send_stop_bit.maxchanends
.Ltmp152:
	.size	_i.i2c_master_if.i2c_master.0.send_stop_bit, .Ltmp152-_i.i2c_master_if.i2c_master.0.send_stop_bit
.Lfunc_end5:
	.cfi_endproc

	.section	.cp.rodata.cst4,"aMc",@progbits,4
	.cc_top .LCPI6_0.data,.LCPI6_0
	.align	4
	.type	.LCPI6_0,@object
	.size	.LCPI6_0, 4
.LCPI6_0:
	.long	4294967288              # 0xfffffff8
	.cc_bottom .LCPI6_0.data
	.cc_top .LCPI6_1.data,.LCPI6_1
	.align	4
	.type	.LCPI6_1,@object
	.size	.LCPI6_1, 4
.LCPI6_1:
	.long	100000                  # 0x186a0
	.cc_bottom .LCPI6_1.data
	.text
	.globl	_i.i2c_master_if.i2c_master.0.read
	.align	4
	.type	_i.i2c_master_if.i2c_master.0.read,@function
	.cc_top _i.i2c_master_if.i2c_master.0.read.function,_i.i2c_master_if.i2c_master.0.read
_i.i2c_master_if.i2c_master.0.read:     # @_i.i2c_master_if.i2c_master.0.read
.Lfunc_begin6:
	.loc	2 203 0                 # /home/evgeny/git/104/UI-01_sw1_hw1/lib_i2c/src/i2c_master.xc:203:0
	.cfi_startproc
	.issue_mode single
# BB#0:                                 # %allocas
	ENTSP_lu6 22
.Ltmp153:
	.cfi_def_cfa_offset 88
.Ltmp154:
	.cfi_offset 15, 0
	std r5, r4, sp[7]               # 4-byte Folded Spill
.Ltmp155:
	.cfi_offset 4, -32
.Ltmp156:
	.cfi_offset 5, -28
	std r7, r6, sp[8]               # 4-byte Folded Spill
.Ltmp157:
	.cfi_offset 6, -24
.Ltmp158:
	.cfi_offset 7, -20
	std r9, r8, sp[9]               # 4-byte Folded Spill
.Ltmp159:
	.cfi_offset 8, -16
.Ltmp160:
	.cfi_offset 9, -12
	stw r10, sp[20]                 # 4-byte Folded Spill
.Ltmp161:
	.cfi_offset 10, -8
	#DEBUG_VALUE: _i.i2c_master_if.i2c_master.0.read:p <- R0
	#DEBUG_VALUE: _i.i2c_master_if.i2c_master.0.read:device <- R1
	#DEBUG_VALUE: _i.i2c_master_if.i2c_master.0.read:buf <- R2
	#DEBUG_VALUE: _i.i2c_master_if.i2c_master.0.read:m <- R3
	stw r3, sp[10]                  # 4-byte Folded Spill
.Ltmp162:
	#DEBUG_VALUE: _i.i2c_master_if.i2c_master.0.read:m <- [SP+40]
	stw r2, sp[9]                   # 4-byte Folded Spill
.Ltmp163:
	#DEBUG_VALUE: _i.i2c_master_if.i2c_master.0.read:buf <- [SP+36]
	stw r1, sp[11]                  # 4-byte Folded Spill
.Ltmp164:
	#DEBUG_VALUE: _i.i2c_master_if.i2c_master.0.read:device <- undef
	#DEBUG_VALUE: _i.i2c_master_if.i2c_master.0.read:device <- [SP+44]
	ldw r10, r0[0]
	stw r10, sp[12]                 # 4-byte Folded Spill
	ldw r6, r0[1]
.Ltmp165:
.LBB6_1:                                # %allocas
                                        # =>This Inner Loop Header: Depth=1
	ldw r0, r10[0]
	bf r0, .LBB6_1
# BB#2:                                 # %ifdone
.Ltmp166:
	#DEBUG_VALUE: _i.i2c_master_if.i2c_master.0.read:device <- undef
	#DEBUG_VALUE: _i.i2c_master_if.i2c_master.0.read:buf <- [SP+36]
	#DEBUG_VALUE: _i.i2c_master_if.i2c_master.0.read:m <- [SP+40]
	add r5, r10, 8
	mov r0, r5
	bl __lock_fair_acquire
	ldw r0, r10[7]
	eq r0, r0, 1
	ldc r1, 52
	.loc	2 208 0 prologue_end    # /home/evgeny/git/104/UI-01_sw1_hw1/lib_i2c/src/i2c_master.xc:208:0
.Ltmp167:
	add r7, r10, r1
	bt r0, .LBB6_3
.Ltmp168:
# BB#20:                                # %lhsfalse
	#DEBUG_VALUE: _i.i2c_master_if.i2c_master.0.read:device <- undef
	#DEBUG_VALUE: _i.i2c_master_if.i2c_master.0.read:buf <- [SP+36]
	#DEBUG_VALUE: _i.i2c_master_if.i2c_master.0.read:m <- [SP+40]
	ldw r0, r7[0]
	mkmsk r4, 32
	eq r1, r0, r4
	bt r1, .LBB6_3
.Ltmp169:
# BB#21:                                # %lhsfalse
	#DEBUG_VALUE: _i.i2c_master_if.i2c_master.0.read:device <- undef
	#DEBUG_VALUE: _i.i2c_master_if.i2c_master.0.read:buf <- [SP+36]
	#DEBUG_VALUE: _i.i2c_master_if.i2c_master.0.read:m <- [SP+40]
	eq r0, r6, r0
	bt r0, .LBB6_3
.Ltmp170:
# BB#22:                                # %lhsfalse53.thread
	#DEBUG_VALUE: _i.i2c_master_if.i2c_master.0.read:device <- undef
	#DEBUG_VALUE: _i.i2c_master_if.i2c_master.0.read:buf <- [SP+36]
	#DEBUG_VALUE: _i.i2c_master_if.i2c_master.0.read:m <- [SP+40]
	ldaw r8, r10[4]
.Ltmp171:
.LBB6_23:                               # %LoopBody77
                                        # =>This Inner Loop Header: Depth=1
	#DEBUG_VALUE: _i.i2c_master_if.i2c_master.0.read:device <- undef
	#DEBUG_VALUE: _i.i2c_master_if.i2c_master.0.read:buf <- [SP+36]
	#DEBUG_VALUE: _i.i2c_master_if.i2c_master.0.read:m <- [SP+40]
	ldw r9, r10[4]
	mov r0, r5
	bl __lock_fair_release
	mov r0, r8
	mov r1, r9
	bl __wait_until_gt
	mov r0, r5
	bl __lock_fair_acquire
	ldw r0, r10[7]
	eq r0, r0, 1
	bt r0, .LBB6_3
.Ltmp172:
# BB#24:                                # %lhsfalse94
                                        #   in Loop: Header=BB6_23 Depth=1
	#DEBUG_VALUE: _i.i2c_master_if.i2c_master.0.read:device <- undef
	#DEBUG_VALUE: _i.i2c_master_if.i2c_master.0.read:buf <- [SP+36]
	#DEBUG_VALUE: _i.i2c_master_if.i2c_master.0.read:m <- [SP+40]
	ldw r0, r7[0]
	eq r1, r0, r4
	bt r1, .LBB6_3
.Ltmp173:
# BB#25:                                # %lhsfalse94
                                        #   in Loop: Header=BB6_23 Depth=1
	#DEBUG_VALUE: _i.i2c_master_if.i2c_master.0.read:device <- undef
	#DEBUG_VALUE: _i.i2c_master_if.i2c_master.0.read:buf <- [SP+36]
	#DEBUG_VALUE: _i.i2c_master_if.i2c_master.0.read:m <- [SP+40]
	eq r0, r6, r0
	bf r0, .LBB6_23
.Ltmp174:
.LBB6_3:                                # %ifdone21
	#DEBUG_VALUE: _i.i2c_master_if.i2c_master.0.read:device <- undef
	#DEBUG_VALUE: _i.i2c_master_if.i2c_master.0.read:buf <- [SP+36]
	#DEBUG_VALUE: _i.i2c_master_if.i2c_master.0.read:m <- [SP+40]
	stw r6, sp[5]                   # 4-byte Folded Spill
	stw r5, sp[6]                   # 4-byte Folded Spill
	.loc	2 208 0                 # /home/evgeny/git/104/UI-01_sw1_hw1/lib_i2c/src/i2c_master.xc:208:0
	ldw r0, r7[0]
	stw r7, sp[4]                   # 4-byte Folded Spill
	mkmsk r1, 32
	.loc	2 208 0                 # /home/evgeny/git/104/UI-01_sw1_hw1/lib_i2c/src/i2c_master.xc:208:0
	eq r3, r0, r1
	ldc r0, 48
	.loc	2 209 0                 # /home/evgeny/git/104/UI-01_sw1_hw1/lib_i2c/src/i2c_master.xc:209:0
.Ltmp175:
	add r0, r10, r0
	.loc	2 209 0                 # /home/evgeny/git/104/UI-01_sw1_hw1/lib_i2c/src/i2c_master.xc:209:0
	stw r0, sp[3]                   # 4-byte Folded Spill
	ldw r0, r0[0]
.Ltmp176:
	#DEBUG_VALUE: fall_time <- R0
	.loc	2 209 0                 # /home/evgeny/git/104/UI-01_sw1_hw1/lib_i2c/src/i2c_master.xc:209:0
	stw r0, sp[13]
	.loc	2 210 0                 # /home/evgeny/git/104/UI-01_sw1_hw1/lib_i2c/src/i2c_master.xc:210:0
	ldw r0, r10[8]
.Ltmp177:
	.loc	2 210 0                 # /home/evgeny/git/104/UI-01_sw1_hw1/lib_i2c/src/i2c_master.xc:210:0
	ldw r1, r10[9]
	.loc	2 210 0                 # /home/evgeny/git/104/UI-01_sw1_hw1/lib_i2c/src/i2c_master.xc:210:0
	ldw r2, r10[10]
	.loc	2 210 0                 # /home/evgeny/git/104/UI-01_sw1_hw1/lib_i2c/src/i2c_master.xc:210:0
	stw r3, sp[1]
	ldaw r8, sp[13]
.Ltmp178:
	#DEBUG_VALUE: fall_time <- [R8+0]
	mov r3, r8
.Lxta.call_labels11:
	bl start_bit
	.loc	2 211 0                 # /home/evgeny/git/104/UI-01_sw1_hw1/lib_i2c/src/i2c_master.xc:211:0
.Ltmp179:
	ldw r0, r10[8]
	.loc	2 211 0                 # /home/evgeny/git/104/UI-01_sw1_hw1/lib_i2c/src/i2c_master.xc:211:0
	ldw r1, r10[9]
	.loc	2 211 0                 # /home/evgeny/git/104/UI-01_sw1_hw1/lib_i2c/src/i2c_master.xc:211:0
	ldw r2, sp[11]                  # 4-byte Folded Reload
	shl r2, r2, 1
	mkmsk r3, 1
	.loc	2 211 0                 # /home/evgeny/git/104/UI-01_sw1_hw1/lib_i2c/src/i2c_master.xc:211:0
	or r2, r2, r3
	.loc	2 211 0                 # /home/evgeny/git/104/UI-01_sw1_hw1/lib_i2c/src/i2c_master.xc:211:0
	ldw r3, r10[10]
	.loc	2 211 0                 # /home/evgeny/git/104/UI-01_sw1_hw1/lib_i2c/src/i2c_master.xc:211:0
	stw r8, sp[1]
.Lxta.call_labels12:
	bl tx8
.Ltmp180:
	#DEBUG_VALUE: ack <- R0
	.loc	2 213 7                 # /home/evgeny/git/104/UI-01_sw1_hw1/lib_i2c/src/i2c_master.xc:213:7
	eq r0, r0, 0
.Ltmp181:
	#DEBUG_VALUE: j <- 0
	.loc	2 213 7                 # /home/evgeny/git/104/UI-01_sw1_hw1/lib_i2c/src/i2c_master.xc:213:7
	stw r0, sp[7]                   # 4-byte Folded Spill
	ldw r0, sp[10]                  # 4-byte Folded Reload
	bf r0, .LBB6_17
.Ltmp182:
# BB#4:                                 # %ifdone21
	#DEBUG_VALUE: _i.i2c_master_if.i2c_master.0.read:device <- undef
	#DEBUG_VALUE: _i.i2c_master_if.i2c_master.0.read:buf <- [SP+36]
	#DEBUG_VALUE: _i.i2c_master_if.i2c_master.0.read:m <- [SP+40]
	.loc	2 213 7                 # /home/evgeny/git/104/UI-01_sw1_hw1/lib_i2c/src/i2c_master.xc:213:7
	ldw r0, sp[7]                   # 4-byte Folded Reload
	eq r0, r0, 0
	bt r0, .LBB6_17
.Ltmp183:
# BB#5:                                 # %LoopBody144.preheader
	#DEBUG_VALUE: _i.i2c_master_if.i2c_master.0.read:device <- undef
	#DEBUG_VALUE: _i.i2c_master_if.i2c_master.0.read:buf <- [SP+36]
	#DEBUG_VALUE: _i.i2c_master_if.i2c_master.0.read:m <- [SP+40]
	.loc	2 90 0                  # /home/evgeny/git/104/UI-01_sw1_hw1/lib_i2c/src/i2c_master.xc:90:0
	get r11, id
	.loc	2 90 0                  # /home/evgeny/git/104/UI-01_sw1_hw1/lib_i2c/src/i2c_master.xc:90:0
	ldaw r0, dp[__timers]
	.loc	2 90 0                  # /home/evgeny/git/104/UI-01_sw1_hw1/lib_i2c/src/i2c_master.xc:90:0
	ldw r7, r0[r11]
.Ltmp184:
	.loc	2 225 11                # /home/evgeny/git/104/UI-01_sw1_hw1/lib_i2c/src/i2c_master.xc:225:11
	ldw r0, sp[10]                  # 4-byte Folded Reload
	sub r0, r0, 1
	stw r0, sp[8]                   # 4-byte Folded Spill
	ldc r5, 0
.Ltmp185:
	.loc	2 90 0                  # /home/evgeny/git/104/UI-01_sw1_hw1/lib_i2c/src/i2c_master.xc:90:0
	ldw r0, sp[13]
	mov r6, r5
.Ltmp186:
.LBB6_6:                                # %LoopBody144
                                        # =>This Loop Header: Depth=1
                                        #     Child Loop BB6_7 Depth 2
.Lxtalabel20:
	#DEBUG_VALUE: _i.i2c_master_if.i2c_master.0.read:device <- undef
	#DEBUG_VALUE: _i.i2c_master_if.i2c_master.0.read:buf <- [SP+36]
	#DEBUG_VALUE: _i.i2c_master_if.i2c_master.0.read:m <- [SP+40]
	#DEBUG_VALUE: data <- 0
	#DEBUG_VALUE: i <- 8
	stw r6, sp[11]                  # 4-byte Folded Spill
	ldw r4, cp[.LCPI6_0]
	mov r6, r5
.Ltmp187:
.LBB6_7:                                # %LoopBody153
                                        #   Parent Loop BB6_6 Depth=1
                                        # =>  This Inner Loop Header: Depth=2
.Lxtalabel21:
	#DEBUG_VALUE: _i.i2c_master_if.i2c_master.0.read:device <- undef
	#DEBUG_VALUE: _i.i2c_master_if.i2c_master.0.read:buf <- [SP+36]
	#DEBUG_VALUE: _i.i2c_master_if.i2c_master.0.read:m <- [SP+40]
	#DEBUG_VALUE: data <- 0
	#DEBUG_VALUE: i <- 8
	mov r10, r5
	ldw r1, sp[12]                  # 4-byte Folded Reload
	.loc	2 218 0                 # /home/evgeny/git/104/UI-01_sw1_hw1/lib_i2c/src/i2c_master.xc:218:0
	ldw r9, r1[8]
.Ltmp188:
	#DEBUG_VALUE: high_pulse_sample:p_scl <- R9
	.loc	2 218 0                 # /home/evgeny/git/104/UI-01_sw1_hw1/lib_i2c/src/i2c_master.xc:218:0
	ldw r8, r1[9]
.Ltmp189:
	#DEBUG_VALUE: high_pulse_sample:p_sda <- R8
	.loc	2 218 0                 # /home/evgeny/git/104/UI-01_sw1_hw1/lib_i2c/src/i2c_master.xc:218:0
	ldw r1, r1[10]
.Ltmp190:
	#DEBUG_VALUE: high_pulse_sample:kbits_per_second <- R1
	#DEBUG_VALUE: compute_low_period_ticks:kbits_per_second <- R1
	ldw r2, cp[.LCPI6_1]
	.loc	2 85 0                  # /home/evgeny/git/104/UI-01_sw1_hw1/lib_i2c/src/i2c_master.xc:85:0
.Ltmp191:
	divu r5, r2, r1
.Ltmp192:
	#DEBUG_VALUE: bit_time <- R5
	#DEBUG_VALUE: sample_value <- 0
	.loc	2 89 0                  # /home/evgeny/git/104/UI-01_sw1_hw1/lib_i2c/src/i2c_master.xc:89:0
	setc res[r8], 1
	.loc	2 89 0                  # /home/evgeny/git/104/UI-01_sw1_hw1/lib_i2c/src/i2c_master.xc:89:0
.Ltmp193:
.Lxta.endpoint_labels13:
	in r2, res[r8]
.Ltmp194:
	#DEBUG_VALUE: ticks <- 0
	#DEBUG_VALUE: _ <- R2
	ldc r2, 101
.Ltmp195:
	.loc	2 20 3                  # /home/evgeny/git/104/UI-01_sw1_hw1/lib_i2c/src/i2c_master.xc:20:3
	lsu r3, r1, r2
	ldc r2, 473
	bt r3, .LBB6_9
.Ltmp196:
# BB#8:                                 # %iffalse.i.i
                                        #   in Loop: Header=BB6_7 Depth=2
.Lxtalabel22:
	#DEBUG_VALUE: _i.i2c_master_if.i2c_master.0.read:device <- undef
	#DEBUG_VALUE: _i.i2c_master_if.i2c_master.0.read:buf <- [SP+36]
	#DEBUG_VALUE: _i.i2c_master_if.i2c_master.0.read:m <- [SP+40]
	#DEBUG_VALUE: data <- 0
	#DEBUG_VALUE: i <- 8
	#DEBUG_VALUE: high_pulse_sample:p_scl <- R9
	#DEBUG_VALUE: high_pulse_sample:p_sda <- R8
	#DEBUG_VALUE: compute_low_period_ticks:kbits_per_second <- R1
	#DEBUG_VALUE: high_pulse_sample:kbits_per_second <- R1
	#DEBUG_VALUE: sample_value <- 0
	#DEBUG_VALUE: bit_time <- R5
	#DEBUG_VALUE: ticks <- 0
	ldc r2, 401
	.loc	2 23 10                 # /home/evgeny/git/104/UI-01_sw1_hw1/lib_i2c/src/i2c_master.xc:23:10
	lsu r1, r1, r2
.Ltmp197:
	ldc r2, 133
	.loc	2 27 0                  # /home/evgeny/git/104/UI-01_sw1_hw1/lib_i2c/src/i2c_master.xc:27:0
	ecallf r1
.Ltmp198:
.LBB6_9:                                # %high_pulse_sample.exit
                                        #   in Loop: Header=BB6_7 Depth=2
.Lxtalabel23:
	#DEBUG_VALUE: _i.i2c_master_if.i2c_master.0.read:device <- undef
	#DEBUG_VALUE: _i.i2c_master_if.i2c_master.0.read:buf <- [SP+36]
	#DEBUG_VALUE: _i.i2c_master_if.i2c_master.0.read:m <- [SP+40]
	#DEBUG_VALUE: data <- 0
	#DEBUG_VALUE: i <- 8
	#DEBUG_VALUE: high_pulse_sample:p_scl <- R9
	#DEBUG_VALUE: high_pulse_sample:p_sda <- R8
	#DEBUG_VALUE: sample_value <- 0
	#DEBUG_VALUE: bit_time <- R5
	#DEBUG_VALUE: jitter_ticks <- 3
	.loc	2 90 0                  # /home/evgeny/git/104/UI-01_sw1_hw1/lib_i2c/src/i2c_master.xc:90:0
	add r0, r2, r0
	.loc	2 90 0                  # /home/evgeny/git/104/UI-01_sw1_hw1/lib_i2c/src/i2c_master.xc:90:0
	setd res[r7], r0
	.loc	2 90 0                  # /home/evgeny/git/104/UI-01_sw1_hw1/lib_i2c/src/i2c_master.xc:90:0
	setc res[r7], 9
	.loc	2 90 0                  # /home/evgeny/git/104/UI-01_sw1_hw1/lib_i2c/src/i2c_master.xc:90:0
.Ltmp199:
.Lxta.endpoint_labels14:
	in r0, res[r7]
	.loc	2 91 0                  # /home/evgeny/git/104/UI-01_sw1_hw1/lib_i2c/src/i2c_master.xc:91:0
	lda16 r0, r5[r5]
	.loc	2 91 0                  # /home/evgeny/git/104/UI-01_sw1_hw1/lib_i2c/src/i2c_master.xc:91:0
	shr r2, r0, 2
.Ltmp200:
	#DEBUG_VALUE: high_pulse_sample:fall_time <- undef
	.loc	2 91 0                  # /home/evgeny/git/104/UI-01_sw1_hw1/lib_i2c/src/i2c_master.xc:91:0
	mov r0, r9
	ldaw r1, sp[13]
.Lxta.call_labels13:
	bl release_clock_and_wait
	.loc	2 92 0                  # /home/evgeny/git/104/UI-01_sw1_hw1/lib_i2c/src/i2c_master.xc:92:0
	setc res[r8], 1
	.loc	2 92 0                  # /home/evgeny/git/104/UI-01_sw1_hw1/lib_i2c/src/i2c_master.xc:92:0
.Lxta.endpoint_labels15:
	in r1, res[r8]
.Ltmp201:
	#DEBUG_VALUE: sample_value <- R1
	.loc	2 93 0                  # /home/evgeny/git/104/UI-01_sw1_hw1/lib_i2c/src/i2c_master.xc:93:0
	ldw r0, sp[13]
	.loc	2 93 0                  # /home/evgeny/git/104/UI-01_sw1_hw1/lib_i2c/src/i2c_master.xc:93:0
	add r0, r0, r5
	.loc	2 93 0                  # /home/evgeny/git/104/UI-01_sw1_hw1/lib_i2c/src/i2c_master.xc:93:0
	stw r0, sp[13]
	.loc	2 94 0                  # /home/evgeny/git/104/UI-01_sw1_hw1/lib_i2c/src/i2c_master.xc:94:0
	setd res[r7], r0
	.loc	2 94 0                  # /home/evgeny/git/104/UI-01_sw1_hw1/lib_i2c/src/i2c_master.xc:94:0
	setc res[r7], 9
	.loc	2 94 0                  # /home/evgeny/git/104/UI-01_sw1_hw1/lib_i2c/src/i2c_master.xc:94:0
.Ltmp202:
.Lxta.endpoint_labels16:
	in r2, res[r7]
	mov r5, r10
.Ltmp203:
	.loc	2 95 13                 # /home/evgeny/git/104/UI-01_sw1_hw1/lib_i2c/src/i2c_master.xc:95:13
.Lxta.endpoint_labels17:
	out res[r9], r5
	.loc	2 97 3                  # /home/evgeny/git/104/UI-01_sw1_hw1/lib_i2c/src/i2c_master.xc:97:3
	zext r1, 1
.Ltmp204:
	#DEBUG_VALUE: temp <- R1
	.loc	2 219 0                 # /home/evgeny/git/104/UI-01_sw1_hw1/lib_i2c/src/i2c_master.xc:219:0
	shl r2, r6, 1
	ldc r3, 510
	.loc	2 219 0                 # /home/evgeny/git/104/UI-01_sw1_hw1/lib_i2c/src/i2c_master.xc:219:0
	and r2, r2, r3
	.loc	2 219 0                 # /home/evgeny/git/104/UI-01_sw1_hw1/lib_i2c/src/i2c_master.xc:219:0
	or r6, r1, r2
.Ltmp205:
	.loc	2 217 0                 # /home/evgeny/git/104/UI-01_sw1_hw1/lib_i2c/src/i2c_master.xc:217:0
	add r4, r4, 1
.xtaloop 8
	# LOOPMARKER 1
.Lxta.loop_labels3:
	# LOOPMARKER 0
	bt r4, .LBB6_7
.Ltmp206:
# BB#10:                                # %afterboundcheck
                                        #   in Loop: Header=BB6_6 Depth=1
.Lxtalabel24:
	#DEBUG_VALUE: _i.i2c_master_if.i2c_master.0.read:device <- undef
	#DEBUG_VALUE: _i.i2c_master_if.i2c_master.0.read:buf <- [SP+36]
	#DEBUG_VALUE: _i.i2c_master_if.i2c_master.0.read:m <- [SP+40]
	#DEBUG_VALUE: data <- 0
	.loc	2 221 0                 # /home/evgeny/git/104/UI-01_sw1_hw1/lib_i2c/src/i2c_master.xc:221:0
	ldw r1, sp[9]                   # 4-byte Folded Reload
	ldw r2, sp[11]                  # 4-byte Folded Reload
	st8 r6, r1[r2]
	mov r6, r2
	ldw r10, sp[12]                 # 4-byte Folded Reload
	.loc	2 223 0                 # /home/evgeny/git/104/UI-01_sw1_hw1/lib_i2c/src/i2c_master.xc:223:0
	ldw r1, r10[11]
	.loc	2 223 0                 # /home/evgeny/git/104/UI-01_sw1_hw1/lib_i2c/src/i2c_master.xc:223:0
	shr r1, r1, 2
	.loc	2 223 0                 # /home/evgeny/git/104/UI-01_sw1_hw1/lib_i2c/src/i2c_master.xc:223:0
	add r1, r1, r0
	.loc	2 223 0                 # /home/evgeny/git/104/UI-01_sw1_hw1/lib_i2c/src/i2c_master.xc:223:0
	setd res[r7], r1
	.loc	2 223 0                 # /home/evgeny/git/104/UI-01_sw1_hw1/lib_i2c/src/i2c_master.xc:223:0
	setc res[r7], 9
	.loc	2 223 0                 # /home/evgeny/git/104/UI-01_sw1_hw1/lib_i2c/src/i2c_master.xc:223:0
.Ltmp207:
.Lxta.endpoint_labels18:
	in r1, res[r7]
	.loc	2 226 0                 # /home/evgeny/git/104/UI-01_sw1_hw1/lib_i2c/src/i2c_master.xc:226:0
	ldw r1, r10[9]
	.loc	2 225 11                # /home/evgeny/git/104/UI-01_sw1_hw1/lib_i2c/src/i2c_master.xc:225:11
	ldw r2, sp[8]                   # 4-byte Folded Reload
	eq r2, r6, r2
	bf r2, .LBB6_26
.Ltmp208:
# BB#11:                                # %iftrue178
                                        #   in Loop: Header=BB6_6 Depth=1
.Lxtalabel25:
	#DEBUG_VALUE: _i.i2c_master_if.i2c_master.0.read:device <- undef
	#DEBUG_VALUE: _i.i2c_master_if.i2c_master.0.read:buf <- [SP+36]
	#DEBUG_VALUE: _i.i2c_master_if.i2c_master.0.read:m <- [SP+40]
	#DEBUG_VALUE: data <- 0
	.loc	2 226 0                 # /home/evgeny/git/104/UI-01_sw1_hw1/lib_i2c/src/i2c_master.xc:226:0
	setc res[r1], 1
	.loc	2 226 0                 # /home/evgeny/git/104/UI-01_sw1_hw1/lib_i2c/src/i2c_master.xc:226:0
.Ltmp209:
.Lxta.endpoint_labels19:
	in r1, res[r1]
	bu .LBB6_12
.Ltmp210:
.LBB6_26:                               # %iffalse186
                                        #   in Loop: Header=BB6_6 Depth=1
.Lxtalabel26:
	#DEBUG_VALUE: _i.i2c_master_if.i2c_master.0.read:device <- undef
	#DEBUG_VALUE: _i.i2c_master_if.i2c_master.0.read:buf <- [SP+36]
	#DEBUG_VALUE: _i.i2c_master_if.i2c_master.0.read:m <- [SP+40]
	#DEBUG_VALUE: data <- 0
	.loc	2 228 23                # /home/evgeny/git/104/UI-01_sw1_hw1/lib_i2c/src/i2c_master.xc:228:23
.Lxta.endpoint_labels20:
	out res[r1], r5
.Ltmp211:
.LBB6_12:                               # %ifdone179
                                        #   in Loop: Header=BB6_6 Depth=1
.Lxtalabel27:
	#DEBUG_VALUE: _i.i2c_master_if.i2c_master.0.read:device <- undef
	#DEBUG_VALUE: _i.i2c_master_if.i2c_master.0.read:buf <- [SP+36]
	#DEBUG_VALUE: _i.i2c_master_if.i2c_master.0.read:m <- [SP+40]
	#DEBUG_VALUE: data <- 0
	.loc	2 231 0                 # /home/evgeny/git/104/UI-01_sw1_hw1/lib_i2c/src/i2c_master.xc:231:0
	ldw r2, r10[10]
.Ltmp212:
	#DEBUG_VALUE: ticks <- 0
	#DEBUG_VALUE: compute_low_period_ticks:kbits_per_second <- R2
	#DEBUG_VALUE: high_pulse:kbits_per_second <- R2
	#DEBUG_VALUE: compute_low_period_ticks:kbits_per_second <- R2
	ldc r1, 101
	.loc	2 20 3                  # /home/evgeny/git/104/UI-01_sw1_hw1/lib_i2c/src/i2c_master.xc:20:3
.Ltmp213:
	lsu r1, r2, r1
	ldc r3, 473
	bt r1, .LBB6_14
.Ltmp214:
# BB#13:                                # %iffalse.i
                                        #   in Loop: Header=BB6_6 Depth=1
.Lxtalabel28:
	#DEBUG_VALUE: _i.i2c_master_if.i2c_master.0.read:device <- undef
	#DEBUG_VALUE: _i.i2c_master_if.i2c_master.0.read:buf <- [SP+36]
	#DEBUG_VALUE: _i.i2c_master_if.i2c_master.0.read:m <- [SP+40]
	#DEBUG_VALUE: data <- 0
	#DEBUG_VALUE: compute_low_period_ticks:kbits_per_second <- R2
	#DEBUG_VALUE: ticks <- 0
	ldc r3, 401
	.loc	2 23 10                 # /home/evgeny/git/104/UI-01_sw1_hw1/lib_i2c/src/i2c_master.xc:23:10
	lsu r11, r2, r3
	ldc r3, 133
	.loc	2 27 0                  # /home/evgeny/git/104/UI-01_sw1_hw1/lib_i2c/src/i2c_master.xc:27:0
	ecallf r11
.Ltmp215:
.LBB6_14:                               # %compute_low_period_ticks.exit
                                        #   in Loop: Header=BB6_6 Depth=1
.Lxtalabel29:
	#DEBUG_VALUE: _i.i2c_master_if.i2c_master.0.read:device <- undef
	#DEBUG_VALUE: _i.i2c_master_if.i2c_master.0.read:buf <- [SP+36]
	#DEBUG_VALUE: _i.i2c_master_if.i2c_master.0.read:m <- [SP+40]
	#DEBUG_VALUE: data <- 0
	#DEBUG_VALUE: compute_low_period_ticks:kbits_per_second <- R2
	#DEBUG_VALUE: high_pulse:kbits_per_second <- R2
	#DEBUG_VALUE: jitter_ticks <- 3
	.loc	2 231 0                 # /home/evgeny/git/104/UI-01_sw1_hw1/lib_i2c/src/i2c_master.xc:231:0
	add r3, r3, r0
	.loc	2 231 0                 # /home/evgeny/git/104/UI-01_sw1_hw1/lib_i2c/src/i2c_master.xc:231:0
	setd res[r7], r3
	.loc	2 231 0                 # /home/evgeny/git/104/UI-01_sw1_hw1/lib_i2c/src/i2c_master.xc:231:0
	setc res[r7], 9
	.loc	2 231 0                 # /home/evgeny/git/104/UI-01_sw1_hw1/lib_i2c/src/i2c_master.xc:231:0
.Ltmp216:
.Lxta.endpoint_labels21:
	in r3, res[r7]
	.loc	2 232 0                 # /home/evgeny/git/104/UI-01_sw1_hw1/lib_i2c/src/i2c_master.xc:232:0
	ldw r9, r10[8]
.Ltmp217:
	#DEBUG_VALUE: high_pulse:p_scl <- R9
	ldw r3, cp[.LCPI6_1]
	.loc	2 109 0                 # /home/evgeny/git/104/UI-01_sw1_hw1/lib_i2c/src/i2c_master.xc:109:0
.Ltmp218:
	divu r4, r3, r2
.Ltmp219:
	#DEBUG_VALUE: ticks <- 0
	#DEBUG_VALUE: bit_time <- R4
	ldc r2, 473
.Ltmp220:
	bt r1, .LBB6_16
.Ltmp221:
# BB#15:                                # %compute_low_period_ticks.exit
                                        #   in Loop: Header=BB6_6 Depth=1
.Lxtalabel30:
	#DEBUG_VALUE: _i.i2c_master_if.i2c_master.0.read:device <- undef
	#DEBUG_VALUE: _i.i2c_master_if.i2c_master.0.read:buf <- [SP+36]
	#DEBUG_VALUE: _i.i2c_master_if.i2c_master.0.read:m <- [SP+40]
	#DEBUG_VALUE: data <- 0
	#DEBUG_VALUE: high_pulse:p_scl <- R9
	#DEBUG_VALUE: bit_time <- R4
	#DEBUG_VALUE: ticks <- 0
	ldc r2, 133
.Ltmp222:
.LBB6_16:                               # %compute_low_period_ticks.exit
                                        #   in Loop: Header=BB6_6 Depth=1
.Lxtalabel31:
	#DEBUG_VALUE: _i.i2c_master_if.i2c_master.0.read:device <- undef
	#DEBUG_VALUE: _i.i2c_master_if.i2c_master.0.read:buf <- [SP+36]
	#DEBUG_VALUE: _i.i2c_master_if.i2c_master.0.read:m <- [SP+40]
	#DEBUG_VALUE: data <- 0
	#DEBUG_VALUE: high_pulse:p_scl <- R9
	#DEBUG_VALUE: bit_time <- R4
	#DEBUG_VALUE: jitter_ticks <- 3
	.loc	2 112 0                 # /home/evgeny/git/104/UI-01_sw1_hw1/lib_i2c/src/i2c_master.xc:112:0
	add r0, r2, r0
	.loc	2 112 0                 # /home/evgeny/git/104/UI-01_sw1_hw1/lib_i2c/src/i2c_master.xc:112:0
	setd res[r7], r0
	.loc	2 112 0                 # /home/evgeny/git/104/UI-01_sw1_hw1/lib_i2c/src/i2c_master.xc:112:0
	setc res[r7], 9
	.loc	2 112 0                 # /home/evgeny/git/104/UI-01_sw1_hw1/lib_i2c/src/i2c_master.xc:112:0
.Ltmp223:
.Lxta.endpoint_labels22:
	in r0, res[r7]
	.loc	2 113 0                 # /home/evgeny/git/104/UI-01_sw1_hw1/lib_i2c/src/i2c_master.xc:113:0
	lda16 r0, r4[r4]
	.loc	2 113 0                 # /home/evgeny/git/104/UI-01_sw1_hw1/lib_i2c/src/i2c_master.xc:113:0
	shr r2, r0, 2
.Ltmp224:
	#DEBUG_VALUE: high_pulse:fall_time <- undef
	.loc	2 113 0                 # /home/evgeny/git/104/UI-01_sw1_hw1/lib_i2c/src/i2c_master.xc:113:0
	mov r0, r9
	ldaw r1, sp[13]
.Lxta.call_labels14:
	bl release_clock_and_wait
	.loc	2 114 0                 # /home/evgeny/git/104/UI-01_sw1_hw1/lib_i2c/src/i2c_master.xc:114:0
	ldw r0, sp[13]
	.loc	2 114 0                 # /home/evgeny/git/104/UI-01_sw1_hw1/lib_i2c/src/i2c_master.xc:114:0
	add r0, r0, r4
	.loc	2 114 0                 # /home/evgeny/git/104/UI-01_sw1_hw1/lib_i2c/src/i2c_master.xc:114:0
	stw r0, sp[13]
	.loc	2 115 0                 # /home/evgeny/git/104/UI-01_sw1_hw1/lib_i2c/src/i2c_master.xc:115:0
	setd res[r7], r0
	.loc	2 115 0                 # /home/evgeny/git/104/UI-01_sw1_hw1/lib_i2c/src/i2c_master.xc:115:0
	setc res[r7], 9
	.loc	2 115 0                 # /home/evgeny/git/104/UI-01_sw1_hw1/lib_i2c/src/i2c_master.xc:115:0
.Ltmp225:
.Lxta.endpoint_labels23:
	in r1, res[r7]
	.loc	2 116 13                # /home/evgeny/git/104/UI-01_sw1_hw1/lib_i2c/src/i2c_master.xc:116:13
.Lxta.endpoint_labels24:
	out res[r9], r5
.Ltmp226:
	.loc	2 233 0                 # /home/evgeny/git/104/UI-01_sw1_hw1/lib_i2c/src/i2c_master.xc:233:0
	ldw r1, r10[9]
	.loc	2 233 0                 # /home/evgeny/git/104/UI-01_sw1_hw1/lib_i2c/src/i2c_master.xc:233:0
	setc res[r1], 1
	.loc	2 233 0                 # /home/evgeny/git/104/UI-01_sw1_hw1/lib_i2c/src/i2c_master.xc:233:0
.Ltmp227:
.Lxta.endpoint_labels25:
	in r1, res[r1]
.Ltmp228:
	.loc	2 214 0                 # /home/evgeny/git/104/UI-01_sw1_hw1/lib_i2c/src/i2c_master.xc:214:0
	add r6, r6, 1
.Ltmp229:
	#DEBUG_VALUE: j <- R6
	.loc	2 214 0                 # /home/evgeny/git/104/UI-01_sw1_hw1/lib_i2c/src/i2c_master.xc:214:0
	ldw r1, sp[10]                  # 4-byte Folded Reload
	lsu r1, r6, r1
.Lxta.loop_labels4:
	# LOOPMARKER 2
	bt r1, .LBB6_6
.Ltmp230:
.LBB6_17:                               # %ifdone134
.Lxtalabel32:
	#DEBUG_VALUE: _i.i2c_master_if.i2c_master.0.read:device <- undef
	ldw r0, sp[23]
	#DEBUG_VALUE: _i.i2c_master_if.i2c_master.0.read:send_stop_bit <- R0
	ldw r1, sp[5]                   # 4-byte Folded Reload
	bf r0, .LBB6_19
.Ltmp231:
# BB#18:                                # %iftrue212
.Lxtalabel33:
	#DEBUG_VALUE: _i.i2c_master_if.i2c_master.0.read:device <- undef
	.loc	2 237 0                 # /home/evgeny/git/104/UI-01_sw1_hw1/lib_i2c/src/i2c_master.xc:237:0
	ldw r0, r10[8]
	.loc	2 237 0                 # /home/evgeny/git/104/UI-01_sw1_hw1/lib_i2c/src/i2c_master.xc:237:0
	ldw r1, r10[9]
	.loc	2 237 0                 # /home/evgeny/git/104/UI-01_sw1_hw1/lib_i2c/src/i2c_master.xc:237:0
	ldw r2, r10[10]
	ldaw r3, sp[13]
.Ltmp232:
	#DEBUG_VALUE: fall_time <- [R3+0]
	.loc	2 237 0                 # /home/evgeny/git/104/UI-01_sw1_hw1/lib_i2c/src/i2c_master.xc:237:0
.Lxta.call_labels15:
	bl stop_bit
.Ltmp233:
	mkmsk r1, 32
.LBB6_19:                               # %ifdone213
.Lxtalabel34:
	#DEBUG_VALUE: _i.i2c_master_if.i2c_master.0.read:device <- undef
	.loc	2 241 0                 # /home/evgeny/git/104/UI-01_sw1_hw1/lib_i2c/src/i2c_master.xc:241:0
	ldw r0, sp[4]                   # 4-byte Folded Reload
	stw r1, r0[0]
	.loc	2 247 0                 # /home/evgeny/git/104/UI-01_sw1_hw1/lib_i2c/src/i2c_master.xc:247:0
	ldw r0, sp[13]
	.loc	2 247 0                 # /home/evgeny/git/104/UI-01_sw1_hw1/lib_i2c/src/i2c_master.xc:247:0
	ldw r1, sp[3]                   # 4-byte Folded Reload
	stw r0, r1[0]
	clre
	ldw r0, sp[6]                   # 4-byte Folded Reload
	bl __lock_fair_release
	ldw r0, r10[4]
	add r0, r0, 1
	stw r0, r10[4]
	ldw r0, sp[7]                   # 4-byte Folded Reload
	ldw r10, sp[20]                 # 4-byte Folded Reload
	ldd r9, r8, sp[9]               # 4-byte Folded Reload
	ldd r7, r6, sp[8]               # 4-byte Folded Reload
	ldd r5, r4, sp[7]               # 4-byte Folded Reload
	retsp 22
	# RETURN_REG_HOLDER
.Ltmp234:
	.cc_bottom _i.i2c_master_if.i2c_master.0.read.function
	.set	_i.i2c_master_if.i2c_master.0.read.nstackwords,((start_bit.nstackwords $M tx8.nstackwords $M stop_bit.nstackwords $M release_clock_and_wait.nstackwords $M __lock_fair_release.nstackwords $M __wait_until_gt.nstackwords $M __lock_fair_acquire.nstackwords) + 22)
	.globl	_i.i2c_master_if.i2c_master.0.read.nstackwords
	.set	_i.i2c_master_if.i2c_master.0.read.maxcores,__lock_fair_acquire.maxcores $M __lock_fair_release.maxcores $M __wait_until_gt.maxcores $M release_clock_and_wait.maxcores $M start_bit.maxcores $M stop_bit.maxcores $M tx8.maxcores $M 1
	.globl	_i.i2c_master_if.i2c_master.0.read.maxcores
	.set	_i.i2c_master_if.i2c_master.0.read.maxtimers,__lock_fair_acquire.maxtimers $M __lock_fair_release.maxtimers $M __wait_until_gt.maxtimers $M release_clock_and_wait.maxtimers $M start_bit.maxtimers $M stop_bit.maxtimers $M tx8.maxtimers $M 0
	.globl	_i.i2c_master_if.i2c_master.0.read.maxtimers
	.set	_i.i2c_master_if.i2c_master.0.read.maxchanends,__lock_fair_acquire.maxchanends $M __lock_fair_release.maxchanends $M __wait_until_gt.maxchanends $M release_clock_and_wait.maxchanends $M start_bit.maxchanends $M stop_bit.maxchanends $M tx8.maxchanends $M 0
	.globl	_i.i2c_master_if.i2c_master.0.read.maxchanends
.Ltmp235:
	.size	_i.i2c_master_if.i2c_master.0.read, .Ltmp235-_i.i2c_master_if.i2c_master.0.read
.Lfunc_end6:
	.cfi_endproc

	.globl	_i.i2c_master_if.i2c_master.0.write
	.align	4
	.type	_i.i2c_master_if.i2c_master.0.write,@function
	.cc_top _i.i2c_master_if.i2c_master.0.write.function,_i.i2c_master_if.i2c_master.0.write
_i.i2c_master_if.i2c_master.0.write:    # @_i.i2c_master_if.i2c_master.0.write
.Lfunc_begin7:
	.loc	2 250 0                 # /home/evgeny/git/104/UI-01_sw1_hw1/lib_i2c/src/i2c_master.xc:250:0
	.cfi_startproc
	.issue_mode single
# BB#0:                                 # %allocas
	ENTSP_lu6 16
.Ltmp236:
	.cfi_def_cfa_offset 64
.Ltmp237:
	.cfi_offset 15, 0
	std r5, r4, sp[4]               # 4-byte Folded Spill
.Ltmp238:
	.cfi_offset 4, -32
.Ltmp239:
	.cfi_offset 5, -28
	std r7, r6, sp[5]               # 4-byte Folded Spill
.Ltmp240:
	.cfi_offset 6, -24
.Ltmp241:
	.cfi_offset 7, -20
	std r9, r8, sp[6]               # 4-byte Folded Spill
.Ltmp242:
	.cfi_offset 8, -16
.Ltmp243:
	.cfi_offset 9, -12
	stw r10, sp[14]                 # 4-byte Folded Spill
.Ltmp244:
	.cfi_offset 10, -8
	#DEBUG_VALUE: _i.i2c_master_if.i2c_master.0.write:p <- R0
	#DEBUG_VALUE: _i.i2c_master_if.i2c_master.0.write:device <- R1
	#DEBUG_VALUE: _i.i2c_master_if.i2c_master.0.write:buf <- R2
	#DEBUG_VALUE: _i.i2c_master_if.i2c_master.0.write:n <- R3
	mov r5, r3
.Ltmp245:
	#DEBUG_VALUE: _i.i2c_master_if.i2c_master.0.write:n <- R5
	mov r6, r2
.Ltmp246:
	#DEBUG_VALUE: _i.i2c_master_if.i2c_master.0.write:buf <- R6
	stw r1, sp[3]                   # 4-byte Folded Spill
.Ltmp247:
	#DEBUG_VALUE: _i.i2c_master_if.i2c_master.0.write:device <- undef
	#DEBUG_VALUE: _i.i2c_master_if.i2c_master.0.write:device <- [SP+12]
	ldw r10, r0[0]
	ldw r0, r0[1]
.Ltmp248:
	stw r0, sp[5]                   # 4-byte Folded Spill
.Ltmp249:
.LBB7_1:                                # %allocas
                                        # =>This Inner Loop Header: Depth=1
	ldw r0, r10[0]
	bf r0, .LBB7_1
# BB#2:                                 # %ifdone
.Ltmp250:
	#DEBUG_VALUE: _i.i2c_master_if.i2c_master.0.write:device <- undef
	#DEBUG_VALUE: _i.i2c_master_if.i2c_master.0.write:buf <- R6
	#DEBUG_VALUE: _i.i2c_master_if.i2c_master.0.write:n <- R5
	add r4, r10, 8
	mov r0, r4
	bl __lock_fair_acquire
	ldw r0, r10[7]
	eq r0, r0, 1
	ldc r1, 52
	.loc	2 256 0 prologue_end    # /home/evgeny/git/104/UI-01_sw1_hw1/lib_i2c/src/i2c_master.xc:256:0
.Ltmp251:
	add r1, r10, r1
	stw r1, sp[6]                   # 4-byte Folded Spill
	bt r0, .LBB7_3
.Ltmp252:
# BB#9:                                 # %lhsfalse
	#DEBUG_VALUE: _i.i2c_master_if.i2c_master.0.write:device <- undef
	#DEBUG_VALUE: _i.i2c_master_if.i2c_master.0.write:buf <- R6
	#DEBUG_VALUE: _i.i2c_master_if.i2c_master.0.write:n <- R5
	ldw r0, sp[6]                   # 4-byte Folded Reload
	ldw r0, r0[0]
	mkmsk r7, 32
	eq r1, r0, r7
	bt r1, .LBB7_3
.Ltmp253:
# BB#10:                                # %lhsfalse
	#DEBUG_VALUE: _i.i2c_master_if.i2c_master.0.write:device <- undef
	#DEBUG_VALUE: _i.i2c_master_if.i2c_master.0.write:buf <- R6
	#DEBUG_VALUE: _i.i2c_master_if.i2c_master.0.write:n <- R5
	ldw r1, sp[5]                   # 4-byte Folded Reload
	eq r0, r1, r0
	bt r0, .LBB7_3
.Ltmp254:
# BB#11:                                # %lhsfalse53.thread
	#DEBUG_VALUE: _i.i2c_master_if.i2c_master.0.write:device <- undef
	#DEBUG_VALUE: _i.i2c_master_if.i2c_master.0.write:buf <- R6
	#DEBUG_VALUE: _i.i2c_master_if.i2c_master.0.write:n <- R5
	ldaw r8, r10[4]
.Ltmp255:
.LBB7_12:                               # %LoopBody77
                                        # =>This Inner Loop Header: Depth=1
	#DEBUG_VALUE: _i.i2c_master_if.i2c_master.0.write:device <- undef
	#DEBUG_VALUE: _i.i2c_master_if.i2c_master.0.write:buf <- R6
	#DEBUG_VALUE: _i.i2c_master_if.i2c_master.0.write:n <- R5
	ldw r9, r10[4]
	mov r0, r4
	bl __lock_fair_release
	mov r0, r8
	mov r1, r9
	bl __wait_until_gt
	mov r0, r4
	bl __lock_fair_acquire
	ldw r0, r10[7]
	eq r0, r0, 1
	bt r0, .LBB7_3
.Ltmp256:
# BB#13:                                # %lhsfalse94
                                        #   in Loop: Header=BB7_12 Depth=1
	#DEBUG_VALUE: _i.i2c_master_if.i2c_master.0.write:device <- undef
	#DEBUG_VALUE: _i.i2c_master_if.i2c_master.0.write:buf <- R6
	#DEBUG_VALUE: _i.i2c_master_if.i2c_master.0.write:n <- R5
	ldw r0, sp[6]                   # 4-byte Folded Reload
	ldw r0, r0[0]
	eq r1, r0, r7
	bt r1, .LBB7_3
.Ltmp257:
# BB#14:                                # %lhsfalse94
                                        #   in Loop: Header=BB7_12 Depth=1
	#DEBUG_VALUE: _i.i2c_master_if.i2c_master.0.write:device <- undef
	#DEBUG_VALUE: _i.i2c_master_if.i2c_master.0.write:buf <- R6
	#DEBUG_VALUE: _i.i2c_master_if.i2c_master.0.write:n <- R5
	ldw r1, sp[5]                   # 4-byte Folded Reload
	eq r0, r1, r0
	bf r0, .LBB7_12
.Ltmp258:
.LBB7_3:                                # %ifdone21
	#DEBUG_VALUE: _i.i2c_master_if.i2c_master.0.write:device <- undef
	#DEBUG_VALUE: _i.i2c_master_if.i2c_master.0.write:buf <- R6
	#DEBUG_VALUE: _i.i2c_master_if.i2c_master.0.write:n <- R5
	#DEBUG_VALUE: _i.i2c_master_if.i2c_master.0.write:send_stop_bit <- undef
	ldc r0, 48
	.loc	2 255 0                 # /home/evgeny/git/104/UI-01_sw1_hw1/lib_i2c/src/i2c_master.xc:255:0
	add r0, r10, r0
	.loc	2 255 0                 # /home/evgeny/git/104/UI-01_sw1_hw1/lib_i2c/src/i2c_master.xc:255:0
	stw r0, sp[4]                   # 4-byte Folded Spill
	ldw r0, r0[0]
.Ltmp259:
	#DEBUG_VALUE: fall_time <- R0
	.loc	2 255 0                 # /home/evgeny/git/104/UI-01_sw1_hw1/lib_i2c/src/i2c_master.xc:255:0
	stw r0, sp[7]
	.loc	2 256 0                 # /home/evgeny/git/104/UI-01_sw1_hw1/lib_i2c/src/i2c_master.xc:256:0
.Ltmp260:
	ldw r0, sp[6]                   # 4-byte Folded Reload
.Ltmp261:
	ldw r0, r0[0]
	mkmsk r1, 32
	.loc	2 256 0                 # /home/evgeny/git/104/UI-01_sw1_hw1/lib_i2c/src/i2c_master.xc:256:0
	eq r3, r0, r1
	.loc	2 257 0                 # /home/evgeny/git/104/UI-01_sw1_hw1/lib_i2c/src/i2c_master.xc:257:0
	ldw r0, r10[8]
	.loc	2 257 0                 # /home/evgeny/git/104/UI-01_sw1_hw1/lib_i2c/src/i2c_master.xc:257:0
	ldw r1, r10[9]
	.loc	2 257 0                 # /home/evgeny/git/104/UI-01_sw1_hw1/lib_i2c/src/i2c_master.xc:257:0
	ldw r2, r10[10]
	.loc	2 257 0                 # /home/evgeny/git/104/UI-01_sw1_hw1/lib_i2c/src/i2c_master.xc:257:0
	stw r3, sp[1]
	ldaw r8, sp[7]
.Ltmp262:
	#DEBUG_VALUE: fall_time <- [R8+0]
	mov r3, r8
.Lxta.call_labels16:
	bl start_bit
	.loc	2 258 0                 # /home/evgeny/git/104/UI-01_sw1_hw1/lib_i2c/src/i2c_master.xc:258:0
.Ltmp263:
	ldw r0, r10[8]
	.loc	2 258 0                 # /home/evgeny/git/104/UI-01_sw1_hw1/lib_i2c/src/i2c_master.xc:258:0
	ldw r1, r10[9]
	.loc	2 258 0                 # /home/evgeny/git/104/UI-01_sw1_hw1/lib_i2c/src/i2c_master.xc:258:0
	ldw r2, sp[3]                   # 4-byte Folded Reload
	shl r2, r2, 1
	.loc	2 258 0                 # /home/evgeny/git/104/UI-01_sw1_hw1/lib_i2c/src/i2c_master.xc:258:0
	ldw r3, r10[10]
	.loc	2 258 0                 # /home/evgeny/git/104/UI-01_sw1_hw1/lib_i2c/src/i2c_master.xc:258:0
	stw r8, sp[1]
.Lxta.call_labels17:
	bl tx8
	mov r7, r0
.Ltmp264:
	#DEBUG_VALUE: j <- 0
	#DEBUG_VALUE: ack <- R7
	ldc r9, 0
	bf r5, .LBB7_6
.Ltmp265:
.LBB7_4:                                # %LoopBody138
                                        # =>This Inner Loop Header: Depth=1
.Lxtalabel35:
	#DEBUG_VALUE: _i.i2c_master_if.i2c_master.0.write:device <- undef
	#DEBUG_VALUE: _i.i2c_master_if.i2c_master.0.write:buf <- R6
	#DEBUG_VALUE: _i.i2c_master_if.i2c_master.0.write:n <- R5
	#DEBUG_VALUE: _i.i2c_master_if.i2c_master.0.write:send_stop_bit <- undef
	bt r7, .LBB7_6
.Ltmp266:
# BB#5:                                 # %afterboundcheck
                                        #   in Loop: Header=BB7_4 Depth=1
.Lxtalabel36:
	#DEBUG_VALUE: _i.i2c_master_if.i2c_master.0.write:device <- undef
	#DEBUG_VALUE: _i.i2c_master_if.i2c_master.0.write:buf <- R6
	#DEBUG_VALUE: _i.i2c_master_if.i2c_master.0.write:n <- R5
	#DEBUG_VALUE: _i.i2c_master_if.i2c_master.0.write:send_stop_bit <- undef
	.loc	2 264 0                 # /home/evgeny/git/104/UI-01_sw1_hw1/lib_i2c/src/i2c_master.xc:264:0
	ldw r1, r10[9]
	.loc	2 264 0                 # /home/evgeny/git/104/UI-01_sw1_hw1/lib_i2c/src/i2c_master.xc:264:0
	ldw r0, r10[8]
	.loc	2 264 0                 # /home/evgeny/git/104/UI-01_sw1_hw1/lib_i2c/src/i2c_master.xc:264:0
	ld8u r2, r6[r9]
	.loc	2 264 0                 # /home/evgeny/git/104/UI-01_sw1_hw1/lib_i2c/src/i2c_master.xc:264:0
	ldw r3, r10[10]
.Ltmp267:
	#DEBUG_VALUE: fall_time <- [R8+0]
	.loc	2 264 0                 # /home/evgeny/git/104/UI-01_sw1_hw1/lib_i2c/src/i2c_master.xc:264:0
	stw r8, sp[1]
.Lxta.call_labels18:
	bl tx8
	mov r7, r0
.Ltmp268:
	#DEBUG_VALUE: ack <- R7
	.loc	2 260 0                 # /home/evgeny/git/104/UI-01_sw1_hw1/lib_i2c/src/i2c_master.xc:260:0
	add r9, r9, 1
.Ltmp269:
	#DEBUG_VALUE: j <- R9
	.loc	2 260 0                 # /home/evgeny/git/104/UI-01_sw1_hw1/lib_i2c/src/i2c_master.xc:260:0
	lsu r0, r9, r5
.Lxta.loop_labels5:
	# LOOPMARKER 0
	bt r0, .LBB7_4
.Ltmp270:
.LBB7_6:                                # %ifdone133
.Lxtalabel37:
	#DEBUG_VALUE: _i.i2c_master_if.i2c_master.0.write:device <- undef
	#DEBUG_VALUE: _i.i2c_master_if.i2c_master.0.write:send_stop_bit <- undef
	#DEBUG_VALUE: j <- 0
	ldw r5, sp[17]
	#DEBUG_VALUE: _i.i2c_master_if.i2c_master.0.write:num_bytes_sent <- R5
	ldw r0, sp[18]
	bf r0, .LBB7_8
.Ltmp271:
# BB#7:                                 # %iftrue160
.Lxtalabel38:
	#DEBUG_VALUE: _i.i2c_master_if.i2c_master.0.write:device <- undef
	#DEBUG_VALUE: j <- 0
	#DEBUG_VALUE: _i.i2c_master_if.i2c_master.0.write:num_bytes_sent <- R5
	.loc	2 267 0                 # /home/evgeny/git/104/UI-01_sw1_hw1/lib_i2c/src/i2c_master.xc:267:0
	ldw r0, r10[8]
	.loc	2 267 0                 # /home/evgeny/git/104/UI-01_sw1_hw1/lib_i2c/src/i2c_master.xc:267:0
	ldw r1, r10[9]
	.loc	2 267 0                 # /home/evgeny/git/104/UI-01_sw1_hw1/lib_i2c/src/i2c_master.xc:267:0
	ldw r2, r10[10]
	ldaw r3, sp[7]
.Ltmp272:
	#DEBUG_VALUE: fall_time <- [R3+0]
	.loc	2 267 0                 # /home/evgeny/git/104/UI-01_sw1_hw1/lib_i2c/src/i2c_master.xc:267:0
.Lxta.call_labels19:
	bl stop_bit
.Ltmp273:
	mkmsk r0, 32
	stw r0, sp[5]                   # 4-byte Folded Spill
.Ltmp274:
.LBB7_8:                                # %ifdone161
.Lxtalabel39:
	#DEBUG_VALUE: _i.i2c_master_if.i2c_master.0.write:device <- undef
	#DEBUG_VALUE: j <- 0
	#DEBUG_VALUE: _i.i2c_master_if.i2c_master.0.write:num_bytes_sent <- R5
	.loc	2 270 0                 # /home/evgeny/git/104/UI-01_sw1_hw1/lib_i2c/src/i2c_master.xc:270:0
	ldw r0, sp[5]                   # 4-byte Folded Reload
	ldw r1, sp[6]                   # 4-byte Folded Reload
	stw r0, r1[0]
	.loc	2 272 0                 # /home/evgeny/git/104/UI-01_sw1_hw1/lib_i2c/src/i2c_master.xc:272:0
	stw r9, r5[0]
	.loc	2 273 0                 # /home/evgeny/git/104/UI-01_sw1_hw1/lib_i2c/src/i2c_master.xc:273:0
	eq r5, r7, 0
.Ltmp275:
	.loc	2 276 0                 # /home/evgeny/git/104/UI-01_sw1_hw1/lib_i2c/src/i2c_master.xc:276:0
	ldw r0, sp[7]
	.loc	2 276 0                 # /home/evgeny/git/104/UI-01_sw1_hw1/lib_i2c/src/i2c_master.xc:276:0
	ldw r1, sp[4]                   # 4-byte Folded Reload
	stw r0, r1[0]
	clre
	mov r0, r4
	bl __lock_fair_release
	ldw r0, r10[4]
	add r0, r0, 1
	stw r0, r10[4]
	mov r0, r5
	ldw r10, sp[14]                 # 4-byte Folded Reload
	ldd r9, r8, sp[6]               # 4-byte Folded Reload
	ldd r7, r6, sp[5]               # 4-byte Folded Reload
	ldd r5, r4, sp[4]               # 4-byte Folded Reload
	retsp 16
	# RETURN_REG_HOLDER
.Ltmp276:
	.cc_bottom _i.i2c_master_if.i2c_master.0.write.function
	.set	_i.i2c_master_if.i2c_master.0.write.nstackwords,((start_bit.nstackwords $M stop_bit.nstackwords $M tx8.nstackwords $M __lock_fair_release.nstackwords $M __wait_until_gt.nstackwords $M __lock_fair_acquire.nstackwords) + 16)
	.globl	_i.i2c_master_if.i2c_master.0.write.nstackwords
	.set	_i.i2c_master_if.i2c_master.0.write.maxcores,__lock_fair_acquire.maxcores $M __lock_fair_release.maxcores $M __wait_until_gt.maxcores $M start_bit.maxcores $M stop_bit.maxcores $M tx8.maxcores $M 1
	.globl	_i.i2c_master_if.i2c_master.0.write.maxcores
	.set	_i.i2c_master_if.i2c_master.0.write.maxtimers,__lock_fair_acquire.maxtimers $M __lock_fair_release.maxtimers $M __wait_until_gt.maxtimers $M start_bit.maxtimers $M stop_bit.maxtimers $M tx8.maxtimers $M 0
	.globl	_i.i2c_master_if.i2c_master.0.write.maxtimers
	.set	_i.i2c_master_if.i2c_master.0.write.maxchanends,__lock_fair_acquire.maxchanends $M __lock_fair_release.maxchanends $M __wait_until_gt.maxchanends $M start_bit.maxchanends $M stop_bit.maxchanends $M tx8.maxchanends $M 0
	.globl	_i.i2c_master_if.i2c_master.0.write.maxchanends
.Ltmp277:
	.size	_i.i2c_master_if.i2c_master.0.write, .Ltmp277-_i.i2c_master_if.i2c_master.0.write
.Lfunc_end7:
	.cfi_endproc

	.globl	_i.i2c_master_if._Si2c_master_0._c0.shutdown
	.align	4
	.type	_i.i2c_master_if._Si2c_master_0._c0.shutdown,@function
	.cc_top _i.i2c_master_if._Si2c_master_0._c0.shutdown.function,_i.i2c_master_if._Si2c_master_0._c0.shutdown
_i.i2c_master_if._Si2c_master_0._c0.shutdown: # @_i.i2c_master_if._Si2c_master_0._c0.shutdown
	.cfi_startproc
	.issue_mode single
# BB#0:                                 # %allocas
	ENTSP_lu6 0
	#DEBUG_VALUE: _i.i2c_master_if._Si2c_master_0._c0.shutdown:p <- R0
	ldw r0, r0[0]
.LBB8_1:                                # %LoopTest
                                        # =>This Inner Loop Header: Depth=1
	ldw r1, r0[0]
	bf r1, .LBB8_1
# BB#2:                                 # %ifdone
	ldc r1, 0
	stw r1, r0[0]
	retsp 0
	# RETURN_REG_HOLDER
	.cc_bottom _i.i2c_master_if._Si2c_master_0._c0.shutdown.function
	.set	_i.i2c_master_if._Si2c_master_0._c0.shutdown.nstackwords,0
	.globl	_i.i2c_master_if._Si2c_master_0._c0.shutdown.nstackwords
	.set	_i.i2c_master_if._Si2c_master_0._c0.shutdown.maxcores,1
	.globl	_i.i2c_master_if._Si2c_master_0._c0.shutdown.maxcores
	.set	_i.i2c_master_if._Si2c_master_0._c0.shutdown.maxtimers,0
	.globl	_i.i2c_master_if._Si2c_master_0._c0.shutdown.maxtimers
	.set	_i.i2c_master_if._Si2c_master_0._c0.shutdown.maxchanends,0
	.globl	_i.i2c_master_if._Si2c_master_0._c0.shutdown.maxchanends
.Ltmp278:
	.size	_i.i2c_master_if._Si2c_master_0._c0.shutdown, .Ltmp278-_i.i2c_master_if._Si2c_master_0._c0.shutdown
	.cfi_endproc

	.globl	_i.i2c_master_if._Si2c_master_0._c0.send_stop_bit
	.align	4
	.type	_i.i2c_master_if._Si2c_master_0._c0.send_stop_bit,@function
	.cc_top _i.i2c_master_if._Si2c_master_0._c0.send_stop_bit.function,_i.i2c_master_if._Si2c_master_0._c0.send_stop_bit
_i.i2c_master_if._Si2c_master_0._c0.send_stop_bit: # @_i.i2c_master_if._Si2c_master_0._c0.send_stop_bit
.Lfunc_begin9:
	.loc	2 279 0                 # /home/evgeny/git/104/UI-01_sw1_hw1/lib_i2c/src/i2c_master.xc:279:0
	.cfi_startproc
	.issue_mode single
# BB#0:                                 # %allocas
	ENTSP_lu6 4
.Ltmp279:
	.cfi_def_cfa_offset 16
.Ltmp280:
	.cfi_offset 15, 0
	stw r4, sp[2]                   # 4-byte Folded Spill
.Ltmp281:
	.cfi_offset 4, -8
	#DEBUG_VALUE: _i.i2c_master_if._Si2c_master_0._c0.send_stop_bit:p <- R0
	ldw r4, r0[0]
.Ltmp282:
.LBB9_1:                                # %LoopTest
                                        # =>This Inner Loop Header: Depth=1
	ldw r0, r4[0]
	bf r0, .LBB9_1
# BB#2:                                 # %ifdone
	ldc r0, 0
	stw r0, r4[0]
	.loc	2 282 0 prologue_end    # /home/evgeny/git/104/UI-01_sw1_hw1/lib_i2c/src/i2c_master.xc:282:0
.Ltmp283:
	gettime r0
.Ltmp284:
	#DEBUG_VALUE: fall_time <- R0
	.loc	2 282 0                 # /home/evgeny/git/104/UI-01_sw1_hw1/lib_i2c/src/i2c_master.xc:282:0
	stw r0, sp[1]
	.loc	2 283 0                 # /home/evgeny/git/104/UI-01_sw1_hw1/lib_i2c/src/i2c_master.xc:283:0
.Ltmp285:
	ldw r0, r4[6]
.Ltmp286:
	.loc	2 283 0                 # /home/evgeny/git/104/UI-01_sw1_hw1/lib_i2c/src/i2c_master.xc:283:0
	ldw r1, r4[7]
	.loc	2 283 0                 # /home/evgeny/git/104/UI-01_sw1_hw1/lib_i2c/src/i2c_master.xc:283:0
	ldw r2, r4[8]
	ldaw r3, sp[1]
.Ltmp287:
	#DEBUG_VALUE: fall_time <- [R3+0]
	.loc	2 283 0                 # /home/evgeny/git/104/UI-01_sw1_hw1/lib_i2c/src/i2c_master.xc:283:0
.Lxta.call_labels20:
	bl stop_bit
.Ltmp288:
	mkmsk r0, 32
	.loc	2 284 0                 # /home/evgeny/git/104/UI-01_sw1_hw1/lib_i2c/src/i2c_master.xc:284:0
	stw r0, r4[11]
	mkmsk r0, 1
	stw r0, r4[0]
	ldw r4, sp[2]                   # 4-byte Folded Reload
	retsp 4
	# RETURN_REG_HOLDER
.Ltmp289:
	.cc_bottom _i.i2c_master_if._Si2c_master_0._c0.send_stop_bit.function
	.set	_i.i2c_master_if._Si2c_master_0._c0.send_stop_bit.nstackwords,(stop_bit.nstackwords + 4)
	.globl	_i.i2c_master_if._Si2c_master_0._c0.send_stop_bit.nstackwords
	.set	_i.i2c_master_if._Si2c_master_0._c0.send_stop_bit.maxcores,stop_bit.maxcores $M 1
	.globl	_i.i2c_master_if._Si2c_master_0._c0.send_stop_bit.maxcores
	.set	_i.i2c_master_if._Si2c_master_0._c0.send_stop_bit.maxtimers,stop_bit.maxtimers $M 0
	.globl	_i.i2c_master_if._Si2c_master_0._c0.send_stop_bit.maxtimers
	.set	_i.i2c_master_if._Si2c_master_0._c0.send_stop_bit.maxchanends,stop_bit.maxchanends $M 0
	.globl	_i.i2c_master_if._Si2c_master_0._c0.send_stop_bit.maxchanends
.Ltmp290:
	.size	_i.i2c_master_if._Si2c_master_0._c0.send_stop_bit, .Ltmp290-_i.i2c_master_if._Si2c_master_0._c0.send_stop_bit
.Lfunc_end9:
	.cfi_endproc

	.section	.cp.rodata.cst4,"aMc",@progbits,4
	.cc_top .LCPI10_0.data,.LCPI10_0
	.align	4
	.type	.LCPI10_0,@object
	.size	.LCPI10_0, 4
.LCPI10_0:
	.long	4294967288              # 0xfffffff8
	.cc_bottom .LCPI10_0.data
	.cc_top .LCPI10_1.data,.LCPI10_1
	.align	4
	.type	.LCPI10_1,@object
	.size	.LCPI10_1, 4
.LCPI10_1:
	.long	100000                  # 0x186a0
	.cc_bottom .LCPI10_1.data
	.text
	.globl	_i.i2c_master_if._Si2c_master_0._c0.read
	.align	4
	.type	_i.i2c_master_if._Si2c_master_0._c0.read,@function
	.cc_top _i.i2c_master_if._Si2c_master_0._c0.read.function,_i.i2c_master_if._Si2c_master_0._c0.read
_i.i2c_master_if._Si2c_master_0._c0.read: # @_i.i2c_master_if._Si2c_master_0._c0.read
.Lfunc_begin10:
	.loc	2 203 0                 # /home/evgeny/git/104/UI-01_sw1_hw1/lib_i2c/src/i2c_master.xc:203:0
	.cfi_startproc
	.issue_mode single
# BB#0:                                 # %allocas
	ENTSP_lu6 18
.Ltmp291:
	.cfi_def_cfa_offset 72
.Ltmp292:
	.cfi_offset 15, 0
	std r5, r4, sp[5]               # 4-byte Folded Spill
.Ltmp293:
	.cfi_offset 4, -32
.Ltmp294:
	.cfi_offset 5, -28
	std r7, r6, sp[6]               # 4-byte Folded Spill
.Ltmp295:
	.cfi_offset 6, -24
.Ltmp296:
	.cfi_offset 7, -20
	std r9, r8, sp[7]               # 4-byte Folded Spill
.Ltmp297:
	.cfi_offset 8, -16
.Ltmp298:
	.cfi_offset 9, -12
	stw r10, sp[16]                 # 4-byte Folded Spill
.Ltmp299:
	.cfi_offset 10, -8
	#DEBUG_VALUE: _i.i2c_master_if._Si2c_master_0._c0.read:p <- R0
	#DEBUG_VALUE: _i.i2c_master_if._Si2c_master_0._c0.read:device <- R1
	#DEBUG_VALUE: _i.i2c_master_if._Si2c_master_0._c0.read:buf <- R2
	#DEBUG_VALUE: _i.i2c_master_if._Si2c_master_0._c0.read:m <- R3
	stw r3, sp[6]                   # 4-byte Folded Spill
.Ltmp300:
	#DEBUG_VALUE: _i.i2c_master_if._Si2c_master_0._c0.read:m <- [SP+24]
	stw r2, sp[5]                   # 4-byte Folded Spill
.Ltmp301:
	#DEBUG_VALUE: _i.i2c_master_if._Si2c_master_0._c0.read:buf <- [SP+20]
	mov r6, r1
.Ltmp302:
	#DEBUG_VALUE: _i.i2c_master_if._Si2c_master_0._c0.read:device <- undef
	#DEBUG_VALUE: _i.i2c_master_if._Si2c_master_0._c0.read:device <- R6
	ldw r5, r0[0]
	stw r5, sp[8]                   # 4-byte Folded Spill
	ldw r0, r0[1]
.Ltmp303:
	stw r0, sp[2]                   # 4-byte Folded Spill
.Ltmp304:
.LBB10_1:                               # %LoopTest
                                        # =>This Inner Loop Header: Depth=1
	#DEBUG_VALUE: _i.i2c_master_if._Si2c_master_0._c0.read:device <- undef
	#DEBUG_VALUE: _i.i2c_master_if._Si2c_master_0._c0.read:buf <- [SP+20]
	#DEBUG_VALUE: _i.i2c_master_if._Si2c_master_0._c0.read:m <- [SP+24]
	ldw r0, r5[0]
	bf r0, .LBB10_1
.Ltmp305:
# BB#2:                                 # %expdone
	#DEBUG_VALUE: _i.i2c_master_if._Si2c_master_0._c0.read:device <- undef
	#DEBUG_VALUE: _i.i2c_master_if._Si2c_master_0._c0.read:buf <- [SP+20]
	#DEBUG_VALUE: _i.i2c_master_if._Si2c_master_0._c0.read:m <- [SP+24]
	ldc r10, 0
	stw r10, r5[0]
	.loc	2 208 0 prologue_end    # /home/evgeny/git/104/UI-01_sw1_hw1/lib_i2c/src/i2c_master.xc:208:0
.Ltmp306:
	ldw r0, r5[11]
	mkmsk r1, 32
	.loc	2 208 0                 # /home/evgeny/git/104/UI-01_sw1_hw1/lib_i2c/src/i2c_master.xc:208:0
	eq r3, r0, r1
	.loc	2 209 0                 # /home/evgeny/git/104/UI-01_sw1_hw1/lib_i2c/src/i2c_master.xc:209:0
.Ltmp307:
	ldw r0, r5[10]
.Ltmp308:
	#DEBUG_VALUE: fall_time <- R0
	.loc	2 209 0                 # /home/evgeny/git/104/UI-01_sw1_hw1/lib_i2c/src/i2c_master.xc:209:0
	stw r0, sp[9]
	.loc	2 210 0                 # /home/evgeny/git/104/UI-01_sw1_hw1/lib_i2c/src/i2c_master.xc:210:0
	ldw r0, r5[6]
.Ltmp309:
	.loc	2 210 0                 # /home/evgeny/git/104/UI-01_sw1_hw1/lib_i2c/src/i2c_master.xc:210:0
	ldw r1, r5[7]
	.loc	2 210 0                 # /home/evgeny/git/104/UI-01_sw1_hw1/lib_i2c/src/i2c_master.xc:210:0
	ldw r2, r5[8]
	.loc	2 210 0                 # /home/evgeny/git/104/UI-01_sw1_hw1/lib_i2c/src/i2c_master.xc:210:0
	stw r3, sp[1]
	ldaw r7, sp[9]
.Ltmp310:
	#DEBUG_VALUE: fall_time <- [R7+0]
	mov r3, r7
.Lxta.call_labels21:
	bl start_bit
	.loc	2 211 0                 # /home/evgeny/git/104/UI-01_sw1_hw1/lib_i2c/src/i2c_master.xc:211:0
.Ltmp311:
	ldw r0, r5[6]
	.loc	2 211 0                 # /home/evgeny/git/104/UI-01_sw1_hw1/lib_i2c/src/i2c_master.xc:211:0
	ldw r1, r5[7]
	.loc	2 211 0                 # /home/evgeny/git/104/UI-01_sw1_hw1/lib_i2c/src/i2c_master.xc:211:0
	shl r2, r6, 1
	mkmsk r3, 1
	.loc	2 211 0                 # /home/evgeny/git/104/UI-01_sw1_hw1/lib_i2c/src/i2c_master.xc:211:0
	or r2, r2, r3
	.loc	2 211 0                 # /home/evgeny/git/104/UI-01_sw1_hw1/lib_i2c/src/i2c_master.xc:211:0
	ldw r3, r5[8]
	.loc	2 211 0                 # /home/evgeny/git/104/UI-01_sw1_hw1/lib_i2c/src/i2c_master.xc:211:0
	stw r7, sp[1]
.Lxta.call_labels22:
	bl tx8
.Ltmp312:
	#DEBUG_VALUE: ack <- R0
	.loc	2 213 7                 # /home/evgeny/git/104/UI-01_sw1_hw1/lib_i2c/src/i2c_master.xc:213:7
	eq r0, r0, 0
.Ltmp313:
	#DEBUG_VALUE: j <- 0
	.loc	2 213 7                 # /home/evgeny/git/104/UI-01_sw1_hw1/lib_i2c/src/i2c_master.xc:213:7
	stw r0, sp[3]                   # 4-byte Folded Spill
	ldw r0, sp[6]                   # 4-byte Folded Reload
	bf r0, .LBB10_16
.Ltmp314:
# BB#3:                                 # %expdone
	#DEBUG_VALUE: _i.i2c_master_if._Si2c_master_0._c0.read:device <- undef
	#DEBUG_VALUE: _i.i2c_master_if._Si2c_master_0._c0.read:buf <- [SP+20]
	#DEBUG_VALUE: _i.i2c_master_if._Si2c_master_0._c0.read:m <- [SP+24]
	.loc	2 213 7                 # /home/evgeny/git/104/UI-01_sw1_hw1/lib_i2c/src/i2c_master.xc:213:7
	ldw r0, sp[3]                   # 4-byte Folded Reload
	eq r0, r0, 0
	bt r0, .LBB10_16
.Ltmp315:
# BB#4:                                 # %LoopBody101.preheader
	#DEBUG_VALUE: _i.i2c_master_if._Si2c_master_0._c0.read:device <- undef
	#DEBUG_VALUE: _i.i2c_master_if._Si2c_master_0._c0.read:buf <- [SP+20]
	#DEBUG_VALUE: _i.i2c_master_if._Si2c_master_0._c0.read:m <- [SP+24]
	.loc	2 90 0                  # /home/evgeny/git/104/UI-01_sw1_hw1/lib_i2c/src/i2c_master.xc:90:0
	get r11, id
	.loc	2 90 0                  # /home/evgeny/git/104/UI-01_sw1_hw1/lib_i2c/src/i2c_master.xc:90:0
	ldaw r0, dp[__timers]
	.loc	2 90 0                  # /home/evgeny/git/104/UI-01_sw1_hw1/lib_i2c/src/i2c_master.xc:90:0
	ldw r6, r0[r11]
.Ltmp316:
	.loc	2 225 11                # /home/evgeny/git/104/UI-01_sw1_hw1/lib_i2c/src/i2c_master.xc:225:11
	ldw r0, sp[6]                   # 4-byte Folded Reload
	sub r0, r0, 1
.Ltmp317:
	.loc	2 90 0                  # /home/evgeny/git/104/UI-01_sw1_hw1/lib_i2c/src/i2c_master.xc:90:0
	stw r0, sp[4]                   # 4-byte Folded Spill
	ldw r0, sp[9]
	mov r7, r10
.Ltmp318:
.LBB10_5:                               # %LoopBody101
                                        # =>This Loop Header: Depth=1
                                        #     Child Loop BB10_6 Depth 2
.Lxtalabel40:
	#DEBUG_VALUE: _i.i2c_master_if._Si2c_master_0._c0.read:device <- undef
	#DEBUG_VALUE: _i.i2c_master_if._Si2c_master_0._c0.read:buf <- [SP+20]
	#DEBUG_VALUE: _i.i2c_master_if._Si2c_master_0._c0.read:m <- [SP+24]
	#DEBUG_VALUE: data <- 0
	#DEBUG_VALUE: i <- 8
	stw r7, sp[7]                   # 4-byte Folded Spill
	ldw r4, cp[.LCPI10_0]
	mov r5, r10
.Ltmp319:
.LBB10_6:                               # %LoopBody110
                                        #   Parent Loop BB10_5 Depth=1
                                        # =>  This Inner Loop Header: Depth=2
.Lxtalabel41:
	#DEBUG_VALUE: _i.i2c_master_if._Si2c_master_0._c0.read:device <- undef
	#DEBUG_VALUE: _i.i2c_master_if._Si2c_master_0._c0.read:buf <- [SP+20]
	#DEBUG_VALUE: _i.i2c_master_if._Si2c_master_0._c0.read:m <- [SP+24]
	#DEBUG_VALUE: data <- 0
	#DEBUG_VALUE: i <- 8
	mov r9, r10
	ldw r1, sp[8]                   # 4-byte Folded Reload
	.loc	2 218 0                 # /home/evgeny/git/104/UI-01_sw1_hw1/lib_i2c/src/i2c_master.xc:218:0
	ldw r8, r1[6]
.Ltmp320:
	#DEBUG_VALUE: high_pulse_sample:p_scl <- R8
	.loc	2 218 0                 # /home/evgeny/git/104/UI-01_sw1_hw1/lib_i2c/src/i2c_master.xc:218:0
	ldw r7, r1[7]
.Ltmp321:
	#DEBUG_VALUE: high_pulse_sample:p_sda <- R7
	.loc	2 218 0                 # /home/evgeny/git/104/UI-01_sw1_hw1/lib_i2c/src/i2c_master.xc:218:0
	ldw r1, r1[8]
.Ltmp322:
	#DEBUG_VALUE: high_pulse_sample:kbits_per_second <- R1
	#DEBUG_VALUE: compute_low_period_ticks:kbits_per_second <- R1
	ldw r2, cp[.LCPI10_1]
	.loc	2 85 0                  # /home/evgeny/git/104/UI-01_sw1_hw1/lib_i2c/src/i2c_master.xc:85:0
.Ltmp323:
	divu r10, r2, r1
.Ltmp324:
	#DEBUG_VALUE: bit_time <- R10
	#DEBUG_VALUE: sample_value <- 0
	.loc	2 89 0                  # /home/evgeny/git/104/UI-01_sw1_hw1/lib_i2c/src/i2c_master.xc:89:0
	setc res[r7], 1
	.loc	2 89 0                  # /home/evgeny/git/104/UI-01_sw1_hw1/lib_i2c/src/i2c_master.xc:89:0
.Ltmp325:
.Lxta.endpoint_labels26:
	in r2, res[r7]
.Ltmp326:
	#DEBUG_VALUE: ticks <- 0
	#DEBUG_VALUE: _ <- R2
	ldc r2, 101
.Ltmp327:
	.loc	2 20 3                  # /home/evgeny/git/104/UI-01_sw1_hw1/lib_i2c/src/i2c_master.xc:20:3
	lsu r3, r1, r2
	ldc r2, 473
	bt r3, .LBB10_8
.Ltmp328:
# BB#7:                                 # %iffalse.i.i
                                        #   in Loop: Header=BB10_6 Depth=2
.Lxtalabel42:
	#DEBUG_VALUE: _i.i2c_master_if._Si2c_master_0._c0.read:device <- undef
	#DEBUG_VALUE: _i.i2c_master_if._Si2c_master_0._c0.read:buf <- [SP+20]
	#DEBUG_VALUE: _i.i2c_master_if._Si2c_master_0._c0.read:m <- [SP+24]
	#DEBUG_VALUE: data <- 0
	#DEBUG_VALUE: i <- 8
	#DEBUG_VALUE: high_pulse_sample:p_scl <- R8
	#DEBUG_VALUE: high_pulse_sample:p_sda <- R7
	#DEBUG_VALUE: compute_low_period_ticks:kbits_per_second <- R1
	#DEBUG_VALUE: high_pulse_sample:kbits_per_second <- R1
	#DEBUG_VALUE: sample_value <- 0
	#DEBUG_VALUE: bit_time <- R10
	#DEBUG_VALUE: ticks <- 0
	ldc r2, 401
	.loc	2 23 10                 # /home/evgeny/git/104/UI-01_sw1_hw1/lib_i2c/src/i2c_master.xc:23:10
	lsu r1, r1, r2
.Ltmp329:
	ldc r2, 133
	.loc	2 27 0                  # /home/evgeny/git/104/UI-01_sw1_hw1/lib_i2c/src/i2c_master.xc:27:0
	ecallf r1
.Ltmp330:
.LBB10_8:                               # %high_pulse_sample.exit
                                        #   in Loop: Header=BB10_6 Depth=2
.Lxtalabel43:
	#DEBUG_VALUE: _i.i2c_master_if._Si2c_master_0._c0.read:device <- undef
	#DEBUG_VALUE: _i.i2c_master_if._Si2c_master_0._c0.read:buf <- [SP+20]
	#DEBUG_VALUE: _i.i2c_master_if._Si2c_master_0._c0.read:m <- [SP+24]
	#DEBUG_VALUE: data <- 0
	#DEBUG_VALUE: i <- 8
	#DEBUG_VALUE: high_pulse_sample:p_scl <- R8
	#DEBUG_VALUE: high_pulse_sample:p_sda <- R7
	#DEBUG_VALUE: sample_value <- 0
	#DEBUG_VALUE: bit_time <- R10
	#DEBUG_VALUE: jitter_ticks <- 3
	.loc	2 90 0                  # /home/evgeny/git/104/UI-01_sw1_hw1/lib_i2c/src/i2c_master.xc:90:0
	add r0, r2, r0
	.loc	2 90 0                  # /home/evgeny/git/104/UI-01_sw1_hw1/lib_i2c/src/i2c_master.xc:90:0
	setd res[r6], r0
	.loc	2 90 0                  # /home/evgeny/git/104/UI-01_sw1_hw1/lib_i2c/src/i2c_master.xc:90:0
	setc res[r6], 9
	.loc	2 90 0                  # /home/evgeny/git/104/UI-01_sw1_hw1/lib_i2c/src/i2c_master.xc:90:0
.Ltmp331:
.Lxta.endpoint_labels27:
	in r0, res[r6]
	.loc	2 91 0                  # /home/evgeny/git/104/UI-01_sw1_hw1/lib_i2c/src/i2c_master.xc:91:0
	lda16 r0, r10[r10]
	.loc	2 91 0                  # /home/evgeny/git/104/UI-01_sw1_hw1/lib_i2c/src/i2c_master.xc:91:0
	shr r2, r0, 2
.Ltmp332:
	#DEBUG_VALUE: high_pulse_sample:fall_time <- undef
	.loc	2 91 0                  # /home/evgeny/git/104/UI-01_sw1_hw1/lib_i2c/src/i2c_master.xc:91:0
	mov r0, r8
	ldaw r1, sp[9]
.Lxta.call_labels23:
	bl release_clock_and_wait
	.loc	2 92 0                  # /home/evgeny/git/104/UI-01_sw1_hw1/lib_i2c/src/i2c_master.xc:92:0
	setc res[r7], 1
	.loc	2 92 0                  # /home/evgeny/git/104/UI-01_sw1_hw1/lib_i2c/src/i2c_master.xc:92:0
.Lxta.endpoint_labels28:
	in r1, res[r7]
.Ltmp333:
	#DEBUG_VALUE: sample_value <- R1
	.loc	2 93 0                  # /home/evgeny/git/104/UI-01_sw1_hw1/lib_i2c/src/i2c_master.xc:93:0
	ldw r0, sp[9]
	.loc	2 93 0                  # /home/evgeny/git/104/UI-01_sw1_hw1/lib_i2c/src/i2c_master.xc:93:0
	add r0, r0, r10
	.loc	2 93 0                  # /home/evgeny/git/104/UI-01_sw1_hw1/lib_i2c/src/i2c_master.xc:93:0
	stw r0, sp[9]
	.loc	2 94 0                  # /home/evgeny/git/104/UI-01_sw1_hw1/lib_i2c/src/i2c_master.xc:94:0
	setd res[r6], r0
	.loc	2 94 0                  # /home/evgeny/git/104/UI-01_sw1_hw1/lib_i2c/src/i2c_master.xc:94:0
	setc res[r6], 9
	.loc	2 94 0                  # /home/evgeny/git/104/UI-01_sw1_hw1/lib_i2c/src/i2c_master.xc:94:0
.Ltmp334:
.Lxta.endpoint_labels29:
	in r2, res[r6]
	mov r10, r9
.Ltmp335:
	.loc	2 95 13                 # /home/evgeny/git/104/UI-01_sw1_hw1/lib_i2c/src/i2c_master.xc:95:13
.Lxta.endpoint_labels30:
	out res[r8], r10
	.loc	2 97 3                  # /home/evgeny/git/104/UI-01_sw1_hw1/lib_i2c/src/i2c_master.xc:97:3
	zext r1, 1
.Ltmp336:
	#DEBUG_VALUE: temp <- R1
	.loc	2 219 0                 # /home/evgeny/git/104/UI-01_sw1_hw1/lib_i2c/src/i2c_master.xc:219:0
	shl r2, r5, 1
	ldc r3, 510
	.loc	2 219 0                 # /home/evgeny/git/104/UI-01_sw1_hw1/lib_i2c/src/i2c_master.xc:219:0
	and r2, r2, r3
	.loc	2 219 0                 # /home/evgeny/git/104/UI-01_sw1_hw1/lib_i2c/src/i2c_master.xc:219:0
	or r5, r1, r2
.Ltmp337:
	.loc	2 217 0                 # /home/evgeny/git/104/UI-01_sw1_hw1/lib_i2c/src/i2c_master.xc:217:0
	add r4, r4, 1
.xtaloop 8
	# LOOPMARKER 1
.Lxta.loop_labels6:
	# LOOPMARKER 0
	bt r4, .LBB10_6
.Ltmp338:
# BB#9:                                 # %afterboundcheck
                                        #   in Loop: Header=BB10_5 Depth=1
.Lxtalabel44:
	#DEBUG_VALUE: _i.i2c_master_if._Si2c_master_0._c0.read:device <- undef
	#DEBUG_VALUE: _i.i2c_master_if._Si2c_master_0._c0.read:buf <- [SP+20]
	#DEBUG_VALUE: _i.i2c_master_if._Si2c_master_0._c0.read:m <- [SP+24]
	#DEBUG_VALUE: data <- 0
	.loc	2 221 0                 # /home/evgeny/git/104/UI-01_sw1_hw1/lib_i2c/src/i2c_master.xc:221:0
	ldw r1, sp[5]                   # 4-byte Folded Reload
	ldw r7, sp[7]                   # 4-byte Folded Reload
	st8 r5, r1[r7]
	ldw r5, sp[8]                   # 4-byte Folded Reload
	.loc	2 223 0                 # /home/evgeny/git/104/UI-01_sw1_hw1/lib_i2c/src/i2c_master.xc:223:0
	ldw r1, r5[9]
	.loc	2 223 0                 # /home/evgeny/git/104/UI-01_sw1_hw1/lib_i2c/src/i2c_master.xc:223:0
	shr r1, r1, 2
	.loc	2 223 0                 # /home/evgeny/git/104/UI-01_sw1_hw1/lib_i2c/src/i2c_master.xc:223:0
	add r1, r1, r0
	.loc	2 223 0                 # /home/evgeny/git/104/UI-01_sw1_hw1/lib_i2c/src/i2c_master.xc:223:0
	setd res[r6], r1
	.loc	2 223 0                 # /home/evgeny/git/104/UI-01_sw1_hw1/lib_i2c/src/i2c_master.xc:223:0
	setc res[r6], 9
	.loc	2 223 0                 # /home/evgeny/git/104/UI-01_sw1_hw1/lib_i2c/src/i2c_master.xc:223:0
.Ltmp339:
.Lxta.endpoint_labels31:
	in r1, res[r6]
	.loc	2 226 0                 # /home/evgeny/git/104/UI-01_sw1_hw1/lib_i2c/src/i2c_master.xc:226:0
	ldw r1, r5[7]
	.loc	2 225 11                # /home/evgeny/git/104/UI-01_sw1_hw1/lib_i2c/src/i2c_master.xc:225:11
	ldw r2, sp[4]                   # 4-byte Folded Reload
	eq r2, r7, r2
	bf r2, .LBB10_19
.Ltmp340:
# BB#10:                                # %iftrue135
                                        #   in Loop: Header=BB10_5 Depth=1
.Lxtalabel45:
	#DEBUG_VALUE: _i.i2c_master_if._Si2c_master_0._c0.read:device <- undef
	#DEBUG_VALUE: _i.i2c_master_if._Si2c_master_0._c0.read:buf <- [SP+20]
	#DEBUG_VALUE: _i.i2c_master_if._Si2c_master_0._c0.read:m <- [SP+24]
	#DEBUG_VALUE: data <- 0
	.loc	2 226 0                 # /home/evgeny/git/104/UI-01_sw1_hw1/lib_i2c/src/i2c_master.xc:226:0
	setc res[r1], 1
	.loc	2 226 0                 # /home/evgeny/git/104/UI-01_sw1_hw1/lib_i2c/src/i2c_master.xc:226:0
.Ltmp341:
.Lxta.endpoint_labels32:
	in r1, res[r1]
	bu .LBB10_11
.Ltmp342:
.LBB10_19:                              # %iffalse143
                                        #   in Loop: Header=BB10_5 Depth=1
.Lxtalabel46:
	#DEBUG_VALUE: _i.i2c_master_if._Si2c_master_0._c0.read:device <- undef
	#DEBUG_VALUE: _i.i2c_master_if._Si2c_master_0._c0.read:buf <- [SP+20]
	#DEBUG_VALUE: _i.i2c_master_if._Si2c_master_0._c0.read:m <- [SP+24]
	#DEBUG_VALUE: data <- 0
	.loc	2 228 23                # /home/evgeny/git/104/UI-01_sw1_hw1/lib_i2c/src/i2c_master.xc:228:23
.Lxta.endpoint_labels33:
	out res[r1], r10
.Ltmp343:
.LBB10_11:                              # %ifdone136
                                        #   in Loop: Header=BB10_5 Depth=1
.Lxtalabel47:
	#DEBUG_VALUE: _i.i2c_master_if._Si2c_master_0._c0.read:device <- undef
	#DEBUG_VALUE: _i.i2c_master_if._Si2c_master_0._c0.read:buf <- [SP+20]
	#DEBUG_VALUE: _i.i2c_master_if._Si2c_master_0._c0.read:m <- [SP+24]
	#DEBUG_VALUE: data <- 0
	.loc	2 231 0                 # /home/evgeny/git/104/UI-01_sw1_hw1/lib_i2c/src/i2c_master.xc:231:0
	ldw r2, r5[8]
.Ltmp344:
	#DEBUG_VALUE: ticks <- 0
	#DEBUG_VALUE: compute_low_period_ticks:kbits_per_second <- R2
	#DEBUG_VALUE: high_pulse:kbits_per_second <- R2
	#DEBUG_VALUE: compute_low_period_ticks:kbits_per_second <- R2
	ldc r1, 101
	.loc	2 20 3                  # /home/evgeny/git/104/UI-01_sw1_hw1/lib_i2c/src/i2c_master.xc:20:3
.Ltmp345:
	lsu r1, r2, r1
	ldc r3, 473
	bt r1, .LBB10_13
.Ltmp346:
# BB#12:                                # %iffalse.i
                                        #   in Loop: Header=BB10_5 Depth=1
.Lxtalabel48:
	#DEBUG_VALUE: _i.i2c_master_if._Si2c_master_0._c0.read:device <- undef
	#DEBUG_VALUE: _i.i2c_master_if._Si2c_master_0._c0.read:buf <- [SP+20]
	#DEBUG_VALUE: _i.i2c_master_if._Si2c_master_0._c0.read:m <- [SP+24]
	#DEBUG_VALUE: data <- 0
	#DEBUG_VALUE: compute_low_period_ticks:kbits_per_second <- R2
	#DEBUG_VALUE: ticks <- 0
	ldc r3, 401
	.loc	2 23 10                 # /home/evgeny/git/104/UI-01_sw1_hw1/lib_i2c/src/i2c_master.xc:23:10
	lsu r11, r2, r3
	ldc r3, 133
	.loc	2 27 0                  # /home/evgeny/git/104/UI-01_sw1_hw1/lib_i2c/src/i2c_master.xc:27:0
	ecallf r11
.Ltmp347:
.LBB10_13:                              # %compute_low_period_ticks.exit
                                        #   in Loop: Header=BB10_5 Depth=1
.Lxtalabel49:
	#DEBUG_VALUE: _i.i2c_master_if._Si2c_master_0._c0.read:device <- undef
	#DEBUG_VALUE: _i.i2c_master_if._Si2c_master_0._c0.read:buf <- [SP+20]
	#DEBUG_VALUE: _i.i2c_master_if._Si2c_master_0._c0.read:m <- [SP+24]
	#DEBUG_VALUE: data <- 0
	#DEBUG_VALUE: compute_low_period_ticks:kbits_per_second <- R2
	#DEBUG_VALUE: high_pulse:kbits_per_second <- R2
	#DEBUG_VALUE: jitter_ticks <- 3
	.loc	2 231 0                 # /home/evgeny/git/104/UI-01_sw1_hw1/lib_i2c/src/i2c_master.xc:231:0
	add r3, r3, r0
	.loc	2 231 0                 # /home/evgeny/git/104/UI-01_sw1_hw1/lib_i2c/src/i2c_master.xc:231:0
	setd res[r6], r3
	.loc	2 231 0                 # /home/evgeny/git/104/UI-01_sw1_hw1/lib_i2c/src/i2c_master.xc:231:0
	setc res[r6], 9
	.loc	2 231 0                 # /home/evgeny/git/104/UI-01_sw1_hw1/lib_i2c/src/i2c_master.xc:231:0
.Ltmp348:
.Lxta.endpoint_labels34:
	in r3, res[r6]
	.loc	2 232 0                 # /home/evgeny/git/104/UI-01_sw1_hw1/lib_i2c/src/i2c_master.xc:232:0
	ldw r8, r5[6]
.Ltmp349:
	#DEBUG_VALUE: high_pulse:p_scl <- R8
	ldw r3, cp[.LCPI10_1]
	.loc	2 109 0                 # /home/evgeny/git/104/UI-01_sw1_hw1/lib_i2c/src/i2c_master.xc:109:0
.Ltmp350:
	divu r4, r3, r2
.Ltmp351:
	#DEBUG_VALUE: ticks <- 0
	#DEBUG_VALUE: bit_time <- R4
	ldc r2, 473
.Ltmp352:
	bt r1, .LBB10_15
.Ltmp353:
# BB#14:                                # %compute_low_period_ticks.exit
                                        #   in Loop: Header=BB10_5 Depth=1
.Lxtalabel50:
	#DEBUG_VALUE: _i.i2c_master_if._Si2c_master_0._c0.read:device <- undef
	#DEBUG_VALUE: _i.i2c_master_if._Si2c_master_0._c0.read:buf <- [SP+20]
	#DEBUG_VALUE: _i.i2c_master_if._Si2c_master_0._c0.read:m <- [SP+24]
	#DEBUG_VALUE: data <- 0
	#DEBUG_VALUE: high_pulse:p_scl <- R8
	#DEBUG_VALUE: bit_time <- R4
	#DEBUG_VALUE: ticks <- 0
	ldc r2, 133
.Ltmp354:
.LBB10_15:                              # %compute_low_period_ticks.exit
                                        #   in Loop: Header=BB10_5 Depth=1
.Lxtalabel51:
	#DEBUG_VALUE: _i.i2c_master_if._Si2c_master_0._c0.read:device <- undef
	#DEBUG_VALUE: _i.i2c_master_if._Si2c_master_0._c0.read:buf <- [SP+20]
	#DEBUG_VALUE: _i.i2c_master_if._Si2c_master_0._c0.read:m <- [SP+24]
	#DEBUG_VALUE: data <- 0
	#DEBUG_VALUE: high_pulse:p_scl <- R8
	#DEBUG_VALUE: bit_time <- R4
	#DEBUG_VALUE: jitter_ticks <- 3
	.loc	2 112 0                 # /home/evgeny/git/104/UI-01_sw1_hw1/lib_i2c/src/i2c_master.xc:112:0
	add r0, r2, r0
	.loc	2 112 0                 # /home/evgeny/git/104/UI-01_sw1_hw1/lib_i2c/src/i2c_master.xc:112:0
	setd res[r6], r0
	.loc	2 112 0                 # /home/evgeny/git/104/UI-01_sw1_hw1/lib_i2c/src/i2c_master.xc:112:0
	setc res[r6], 9
	.loc	2 112 0                 # /home/evgeny/git/104/UI-01_sw1_hw1/lib_i2c/src/i2c_master.xc:112:0
.Ltmp355:
.Lxta.endpoint_labels35:
	in r0, res[r6]
	.loc	2 113 0                 # /home/evgeny/git/104/UI-01_sw1_hw1/lib_i2c/src/i2c_master.xc:113:0
	lda16 r0, r4[r4]
	.loc	2 113 0                 # /home/evgeny/git/104/UI-01_sw1_hw1/lib_i2c/src/i2c_master.xc:113:0
	shr r2, r0, 2
.Ltmp356:
	#DEBUG_VALUE: high_pulse:fall_time <- undef
	.loc	2 113 0                 # /home/evgeny/git/104/UI-01_sw1_hw1/lib_i2c/src/i2c_master.xc:113:0
	mov r0, r8
	ldaw r1, sp[9]
.Lxta.call_labels24:
	bl release_clock_and_wait
	.loc	2 114 0                 # /home/evgeny/git/104/UI-01_sw1_hw1/lib_i2c/src/i2c_master.xc:114:0
	ldw r0, sp[9]
	.loc	2 114 0                 # /home/evgeny/git/104/UI-01_sw1_hw1/lib_i2c/src/i2c_master.xc:114:0
	add r0, r0, r4
	.loc	2 114 0                 # /home/evgeny/git/104/UI-01_sw1_hw1/lib_i2c/src/i2c_master.xc:114:0
	stw r0, sp[9]
	.loc	2 115 0                 # /home/evgeny/git/104/UI-01_sw1_hw1/lib_i2c/src/i2c_master.xc:115:0
	setd res[r6], r0
	.loc	2 115 0                 # /home/evgeny/git/104/UI-01_sw1_hw1/lib_i2c/src/i2c_master.xc:115:0
	setc res[r6], 9
	.loc	2 115 0                 # /home/evgeny/git/104/UI-01_sw1_hw1/lib_i2c/src/i2c_master.xc:115:0
.Ltmp357:
.Lxta.endpoint_labels36:
	in r1, res[r6]
	.loc	2 116 13                # /home/evgeny/git/104/UI-01_sw1_hw1/lib_i2c/src/i2c_master.xc:116:13
.Lxta.endpoint_labels37:
	out res[r8], r10
.Ltmp358:
	.loc	2 233 0                 # /home/evgeny/git/104/UI-01_sw1_hw1/lib_i2c/src/i2c_master.xc:233:0
	ldw r1, r5[7]
	.loc	2 233 0                 # /home/evgeny/git/104/UI-01_sw1_hw1/lib_i2c/src/i2c_master.xc:233:0
	setc res[r1], 1
	.loc	2 233 0                 # /home/evgeny/git/104/UI-01_sw1_hw1/lib_i2c/src/i2c_master.xc:233:0
.Ltmp359:
.Lxta.endpoint_labels38:
	in r1, res[r1]
.Ltmp360:
	.loc	2 214 0                 # /home/evgeny/git/104/UI-01_sw1_hw1/lib_i2c/src/i2c_master.xc:214:0
	add r7, r7, 1
.Ltmp361:
	#DEBUG_VALUE: j <- R7
	.loc	2 214 0                 # /home/evgeny/git/104/UI-01_sw1_hw1/lib_i2c/src/i2c_master.xc:214:0
	ldw r1, sp[6]                   # 4-byte Folded Reload
	lsu r1, r7, r1
.Lxta.loop_labels7:
	# LOOPMARKER 2
	bt r1, .LBB10_5
.Ltmp362:
.LBB10_16:                              # %ifdone91
.Lxtalabel52:
	#DEBUG_VALUE: _i.i2c_master_if._Si2c_master_0._c0.read:device <- undef
	ldw r0, sp[19]
	#DEBUG_VALUE: _i.i2c_master_if._Si2c_master_0._c0.read:send_stop_bit <- R0
	ldw r1, sp[2]                   # 4-byte Folded Reload
	bf r0, .LBB10_18
.Ltmp363:
# BB#17:                                # %iftrue169
.Lxtalabel53:
	#DEBUG_VALUE: _i.i2c_master_if._Si2c_master_0._c0.read:device <- undef
	.loc	2 237 0                 # /home/evgeny/git/104/UI-01_sw1_hw1/lib_i2c/src/i2c_master.xc:237:0
	ldw r0, r5[6]
	.loc	2 237 0                 # /home/evgeny/git/104/UI-01_sw1_hw1/lib_i2c/src/i2c_master.xc:237:0
	ldw r1, r5[7]
	.loc	2 237 0                 # /home/evgeny/git/104/UI-01_sw1_hw1/lib_i2c/src/i2c_master.xc:237:0
	ldw r2, r5[8]
	ldaw r3, sp[9]
.Ltmp364:
	#DEBUG_VALUE: fall_time <- [R3+0]
	.loc	2 237 0                 # /home/evgeny/git/104/UI-01_sw1_hw1/lib_i2c/src/i2c_master.xc:237:0
.Lxta.call_labels25:
	bl stop_bit
.Ltmp365:
	mkmsk r1, 32
.LBB10_18:                              # %ifdone170
.Lxtalabel54:
	#DEBUG_VALUE: _i.i2c_master_if._Si2c_master_0._c0.read:device <- undef
	.loc	2 241 0                 # /home/evgeny/git/104/UI-01_sw1_hw1/lib_i2c/src/i2c_master.xc:241:0
	stw r1, r5[11]
	.loc	2 247 0                 # /home/evgeny/git/104/UI-01_sw1_hw1/lib_i2c/src/i2c_master.xc:247:0
	ldw r0, sp[9]
	.loc	2 247 0                 # /home/evgeny/git/104/UI-01_sw1_hw1/lib_i2c/src/i2c_master.xc:247:0
	stw r0, r5[10]
	mkmsk r0, 1
	stw r0, r5[0]
	ldw r0, sp[3]                   # 4-byte Folded Reload
	ldw r10, sp[16]                 # 4-byte Folded Reload
	ldd r9, r8, sp[7]               # 4-byte Folded Reload
	ldd r7, r6, sp[6]               # 4-byte Folded Reload
	ldd r5, r4, sp[5]               # 4-byte Folded Reload
	retsp 18
	# RETURN_REG_HOLDER
.Ltmp366:
	.cc_bottom _i.i2c_master_if._Si2c_master_0._c0.read.function
	.set	_i.i2c_master_if._Si2c_master_0._c0.read.nstackwords,((start_bit.nstackwords $M tx8.nstackwords $M stop_bit.nstackwords $M release_clock_and_wait.nstackwords) + 18)
	.globl	_i.i2c_master_if._Si2c_master_0._c0.read.nstackwords
	.set	_i.i2c_master_if._Si2c_master_0._c0.read.maxcores,release_clock_and_wait.maxcores $M start_bit.maxcores $M stop_bit.maxcores $M tx8.maxcores $M 1
	.globl	_i.i2c_master_if._Si2c_master_0._c0.read.maxcores
	.set	_i.i2c_master_if._Si2c_master_0._c0.read.maxtimers,release_clock_and_wait.maxtimers $M start_bit.maxtimers $M stop_bit.maxtimers $M tx8.maxtimers $M 0
	.globl	_i.i2c_master_if._Si2c_master_0._c0.read.maxtimers
	.set	_i.i2c_master_if._Si2c_master_0._c0.read.maxchanends,release_clock_and_wait.maxchanends $M start_bit.maxchanends $M stop_bit.maxchanends $M tx8.maxchanends $M 0
	.globl	_i.i2c_master_if._Si2c_master_0._c0.read.maxchanends
.Ltmp367:
	.size	_i.i2c_master_if._Si2c_master_0._c0.read, .Ltmp367-_i.i2c_master_if._Si2c_master_0._c0.read
.Lfunc_end10:
	.cfi_endproc

	.globl	_i.i2c_master_if._Si2c_master_0._c0.write
	.align	4
	.type	_i.i2c_master_if._Si2c_master_0._c0.write,@function
	.cc_top _i.i2c_master_if._Si2c_master_0._c0.write.function,_i.i2c_master_if._Si2c_master_0._c0.write
_i.i2c_master_if._Si2c_master_0._c0.write: # @_i.i2c_master_if._Si2c_master_0._c0.write
.Lfunc_begin11:
	.loc	2 250 0                 # /home/evgeny/git/104/UI-01_sw1_hw1/lib_i2c/src/i2c_master.xc:250:0
	.cfi_startproc
	.issue_mode single
# BB#0:                                 # %allocas
	ENTSP_lu6 12
.Ltmp368:
	.cfi_def_cfa_offset 48
.Ltmp369:
	.cfi_offset 15, 0
	std r5, r4, sp[2]               # 4-byte Folded Spill
.Ltmp370:
	.cfi_offset 4, -32
.Ltmp371:
	.cfi_offset 5, -28
	std r7, r6, sp[3]               # 4-byte Folded Spill
.Ltmp372:
	.cfi_offset 6, -24
.Ltmp373:
	.cfi_offset 7, -20
	std r9, r8, sp[4]               # 4-byte Folded Spill
.Ltmp374:
	.cfi_offset 8, -16
.Ltmp375:
	.cfi_offset 9, -12
	stw r10, sp[10]                 # 4-byte Folded Spill
.Ltmp376:
	.cfi_offset 10, -8
	#DEBUG_VALUE: _i.i2c_master_if._Si2c_master_0._c0.write:p <- R0
	#DEBUG_VALUE: _i.i2c_master_if._Si2c_master_0._c0.write:device <- R1
	#DEBUG_VALUE: _i.i2c_master_if._Si2c_master_0._c0.write:buf <- R2
	#DEBUG_VALUE: _i.i2c_master_if._Si2c_master_0._c0.write:n <- R3
	mov r4, r3
.Ltmp377:
	#DEBUG_VALUE: _i.i2c_master_if._Si2c_master_0._c0.write:n <- R4
	mov r5, r2
.Ltmp378:
	#DEBUG_VALUE: _i.i2c_master_if._Si2c_master_0._c0.write:buf <- R5
	mov r7, r1
.Ltmp379:
	#DEBUG_VALUE: _i.i2c_master_if._Si2c_master_0._c0.write:device <- undef
	#DEBUG_VALUE: _i.i2c_master_if._Si2c_master_0._c0.write:device <- R7
	ldw r8, r0[0]
	ldw r9, r0[1]
.Ltmp380:
.LBB11_1:                               # %LoopTest
                                        # =>This Inner Loop Header: Depth=1
	#DEBUG_VALUE: _i.i2c_master_if._Si2c_master_0._c0.write:device <- undef
	#DEBUG_VALUE: _i.i2c_master_if._Si2c_master_0._c0.write:buf <- R5
	#DEBUG_VALUE: _i.i2c_master_if._Si2c_master_0._c0.write:n <- R4
	ldw r0, r8[0]
	bf r0, .LBB11_1
.Ltmp381:
# BB#2:                                 # %expdone
	#DEBUG_VALUE: _i.i2c_master_if._Si2c_master_0._c0.write:device <- undef
	#DEBUG_VALUE: _i.i2c_master_if._Si2c_master_0._c0.write:buf <- R5
	#DEBUG_VALUE: _i.i2c_master_if._Si2c_master_0._c0.write:n <- R4
	#DEBUG_VALUE: _i.i2c_master_if._Si2c_master_0._c0.write:send_stop_bit <- undef
	ldc r10, 0
	stw r10, r8[0]
	.loc	2 255 0 prologue_end    # /home/evgeny/git/104/UI-01_sw1_hw1/lib_i2c/src/i2c_master.xc:255:0
.Ltmp382:
	ldw r0, r8[10]
.Ltmp383:
	#DEBUG_VALUE: fall_time <- R0
	.loc	2 255 0                 # /home/evgeny/git/104/UI-01_sw1_hw1/lib_i2c/src/i2c_master.xc:255:0
	stw r0, sp[3]
	.loc	2 256 0                 # /home/evgeny/git/104/UI-01_sw1_hw1/lib_i2c/src/i2c_master.xc:256:0
.Ltmp384:
	ldw r0, r8[11]
.Ltmp385:
	mkmsk r1, 32
	.loc	2 256 0                 # /home/evgeny/git/104/UI-01_sw1_hw1/lib_i2c/src/i2c_master.xc:256:0
	eq r3, r0, r1
	.loc	2 257 0                 # /home/evgeny/git/104/UI-01_sw1_hw1/lib_i2c/src/i2c_master.xc:257:0
	ldw r0, r8[6]
	.loc	2 257 0                 # /home/evgeny/git/104/UI-01_sw1_hw1/lib_i2c/src/i2c_master.xc:257:0
	ldw r1, r8[7]
	.loc	2 257 0                 # /home/evgeny/git/104/UI-01_sw1_hw1/lib_i2c/src/i2c_master.xc:257:0
	ldw r2, r8[8]
	.loc	2 257 0                 # /home/evgeny/git/104/UI-01_sw1_hw1/lib_i2c/src/i2c_master.xc:257:0
	stw r3, sp[1]
	ldaw r6, sp[3]
.Ltmp386:
	#DEBUG_VALUE: fall_time <- [R6+0]
	mov r3, r6
.Lxta.call_labels26:
	bl start_bit
	.loc	2 258 0                 # /home/evgeny/git/104/UI-01_sw1_hw1/lib_i2c/src/i2c_master.xc:258:0
.Ltmp387:
	ldw r0, r8[6]
	.loc	2 258 0                 # /home/evgeny/git/104/UI-01_sw1_hw1/lib_i2c/src/i2c_master.xc:258:0
	ldw r1, r8[7]
	.loc	2 258 0                 # /home/evgeny/git/104/UI-01_sw1_hw1/lib_i2c/src/i2c_master.xc:258:0
	shl r2, r7, 1
	.loc	2 258 0                 # /home/evgeny/git/104/UI-01_sw1_hw1/lib_i2c/src/i2c_master.xc:258:0
	ldw r3, r8[8]
	.loc	2 258 0                 # /home/evgeny/git/104/UI-01_sw1_hw1/lib_i2c/src/i2c_master.xc:258:0
	stw r6, sp[1]
.Lxta.call_labels27:
	bl tx8
	mov r7, r0
.Ltmp388:
	#DEBUG_VALUE: j <- 0
	#DEBUG_VALUE: ack <- R7
	bf r4, .LBB11_3
.Ltmp389:
.LBB11_6:                               # %LoopBody95
                                        # =>This Inner Loop Header: Depth=1
.Lxtalabel55:
	#DEBUG_VALUE: _i.i2c_master_if._Si2c_master_0._c0.write:device <- undef
	#DEBUG_VALUE: _i.i2c_master_if._Si2c_master_0._c0.write:buf <- R5
	#DEBUG_VALUE: _i.i2c_master_if._Si2c_master_0._c0.write:n <- R4
	#DEBUG_VALUE: _i.i2c_master_if._Si2c_master_0._c0.write:send_stop_bit <- undef
	bt r7, .LBB11_3
.Ltmp390:
# BB#7:                                 # %afterboundcheck
                                        #   in Loop: Header=BB11_6 Depth=1
.Lxtalabel56:
	#DEBUG_VALUE: _i.i2c_master_if._Si2c_master_0._c0.write:device <- undef
	#DEBUG_VALUE: _i.i2c_master_if._Si2c_master_0._c0.write:buf <- R5
	#DEBUG_VALUE: _i.i2c_master_if._Si2c_master_0._c0.write:n <- R4
	#DEBUG_VALUE: _i.i2c_master_if._Si2c_master_0._c0.write:send_stop_bit <- undef
	.loc	2 264 0                 # /home/evgeny/git/104/UI-01_sw1_hw1/lib_i2c/src/i2c_master.xc:264:0
	ldw r1, r8[7]
	.loc	2 264 0                 # /home/evgeny/git/104/UI-01_sw1_hw1/lib_i2c/src/i2c_master.xc:264:0
	ldw r0, r8[6]
	.loc	2 264 0                 # /home/evgeny/git/104/UI-01_sw1_hw1/lib_i2c/src/i2c_master.xc:264:0
	ld8u r2, r5[r10]
	.loc	2 264 0                 # /home/evgeny/git/104/UI-01_sw1_hw1/lib_i2c/src/i2c_master.xc:264:0
	ldw r3, r8[8]
.Ltmp391:
	#DEBUG_VALUE: fall_time <- [R6+0]
	.loc	2 264 0                 # /home/evgeny/git/104/UI-01_sw1_hw1/lib_i2c/src/i2c_master.xc:264:0
	stw r6, sp[1]
.Lxta.call_labels28:
	bl tx8
	mov r7, r0
.Ltmp392:
	#DEBUG_VALUE: ack <- R7
	.loc	2 260 0                 # /home/evgeny/git/104/UI-01_sw1_hw1/lib_i2c/src/i2c_master.xc:260:0
	add r10, r10, 1
.Ltmp393:
	#DEBUG_VALUE: j <- R10
	.loc	2 260 0                 # /home/evgeny/git/104/UI-01_sw1_hw1/lib_i2c/src/i2c_master.xc:260:0
	lsu r0, r10, r4
.Lxta.loop_labels8:
	# LOOPMARKER 0
	bt r0, .LBB11_6
.Ltmp394:
.LBB11_3:                               # %ifdone90
.Lxtalabel57:
	#DEBUG_VALUE: _i.i2c_master_if._Si2c_master_0._c0.write:device <- undef
	#DEBUG_VALUE: _i.i2c_master_if._Si2c_master_0._c0.write:send_stop_bit <- undef
	#DEBUG_VALUE: j <- 0
	ldw r4, sp[13]
	#DEBUG_VALUE: _i.i2c_master_if._Si2c_master_0._c0.write:num_bytes_sent <- R4
	ldw r0, sp[14]
	bf r0, .LBB11_5
.Ltmp395:
# BB#4:                                 # %iftrue117
.Lxtalabel58:
	#DEBUG_VALUE: _i.i2c_master_if._Si2c_master_0._c0.write:device <- undef
	#DEBUG_VALUE: j <- 0
	#DEBUG_VALUE: _i.i2c_master_if._Si2c_master_0._c0.write:num_bytes_sent <- R4
	.loc	2 267 0                 # /home/evgeny/git/104/UI-01_sw1_hw1/lib_i2c/src/i2c_master.xc:267:0
	ldw r0, r8[6]
	.loc	2 267 0                 # /home/evgeny/git/104/UI-01_sw1_hw1/lib_i2c/src/i2c_master.xc:267:0
	ldw r1, r8[7]
	.loc	2 267 0                 # /home/evgeny/git/104/UI-01_sw1_hw1/lib_i2c/src/i2c_master.xc:267:0
	ldw r2, r8[8]
	ldaw r3, sp[3]
.Ltmp396:
	#DEBUG_VALUE: fall_time <- [R3+0]
	.loc	2 267 0                 # /home/evgeny/git/104/UI-01_sw1_hw1/lib_i2c/src/i2c_master.xc:267:0
.Lxta.call_labels29:
	bl stop_bit
.Ltmp397:
	mkmsk r9, 32
.Ltmp398:
.LBB11_5:                               # %ifdone118
.Lxtalabel59:
	#DEBUG_VALUE: _i.i2c_master_if._Si2c_master_0._c0.write:device <- undef
	#DEBUG_VALUE: j <- 0
	#DEBUG_VALUE: _i.i2c_master_if._Si2c_master_0._c0.write:num_bytes_sent <- R4
	.loc	2 270 0                 # /home/evgeny/git/104/UI-01_sw1_hw1/lib_i2c/src/i2c_master.xc:270:0
	stw r9, r8[11]
	.loc	2 272 0                 # /home/evgeny/git/104/UI-01_sw1_hw1/lib_i2c/src/i2c_master.xc:272:0
	stw r10, r4[0]
	.loc	2 273 0                 # /home/evgeny/git/104/UI-01_sw1_hw1/lib_i2c/src/i2c_master.xc:273:0
	eq r0, r7, 0
	.loc	2 276 0                 # /home/evgeny/git/104/UI-01_sw1_hw1/lib_i2c/src/i2c_master.xc:276:0
	ldw r1, sp[3]
	.loc	2 276 0                 # /home/evgeny/git/104/UI-01_sw1_hw1/lib_i2c/src/i2c_master.xc:276:0
	stw r1, r8[10]
	mkmsk r1, 1
	stw r1, r8[0]
	ldw r10, sp[10]                 # 4-byte Folded Reload
	ldd r9, r8, sp[4]               # 4-byte Folded Reload
	ldd r7, r6, sp[3]               # 4-byte Folded Reload
	ldd r5, r4, sp[2]               # 4-byte Folded Reload
.Ltmp399:
	retsp 12
	# RETURN_REG_HOLDER
.Ltmp400:
	.cc_bottom _i.i2c_master_if._Si2c_master_0._c0.write.function
	.set	_i.i2c_master_if._Si2c_master_0._c0.write.nstackwords,((start_bit.nstackwords $M stop_bit.nstackwords $M tx8.nstackwords) + 12)
	.globl	_i.i2c_master_if._Si2c_master_0._c0.write.nstackwords
	.set	_i.i2c_master_if._Si2c_master_0._c0.write.maxcores,start_bit.maxcores $M stop_bit.maxcores $M tx8.maxcores $M 1
	.globl	_i.i2c_master_if._Si2c_master_0._c0.write.maxcores
	.set	_i.i2c_master_if._Si2c_master_0._c0.write.maxtimers,start_bit.maxtimers $M stop_bit.maxtimers $M tx8.maxtimers $M 0
	.globl	_i.i2c_master_if._Si2c_master_0._c0.write.maxtimers
	.set	_i.i2c_master_if._Si2c_master_0._c0.write.maxchanends,start_bit.maxchanends $M stop_bit.maxchanends $M tx8.maxchanends $M 0
	.globl	_i.i2c_master_if._Si2c_master_0._c0.write.maxchanends
.Ltmp401:
	.size	_i.i2c_master_if._Si2c_master_0._c0.write, .Ltmp401-_i.i2c_master_if._Si2c_master_0._c0.write
.Lfunc_end11:
	.cfi_endproc

	.globl	_i.i2c_master_if._Si2c_master_0.0.shutdown
	.align	4
	.type	_i.i2c_master_if._Si2c_master_0.0.shutdown,@function
	.cc_top _i.i2c_master_if._Si2c_master_0.0.shutdown.function,_i.i2c_master_if._Si2c_master_0.0.shutdown
_i.i2c_master_if._Si2c_master_0.0.shutdown: # @_i.i2c_master_if._Si2c_master_0.0.shutdown
	.cfi_startproc
	.issue_mode single
# BB#0:                                 # %allocas
	ENTSP_lu6 0
	#DEBUG_VALUE: _i.i2c_master_if._Si2c_master_0.0.shutdown:p <- R0
	ldw r0, r0[0]
.LBB12_1:                               # %LoopTest
                                        # =>This Inner Loop Header: Depth=1
	ldw r1, r0[0]
	bf r1, .LBB12_1
# BB#2:                                 # %ifdone
	ldc r1, 0
	stw r1, r0[0]
	retsp 0
	# RETURN_REG_HOLDER
	.cc_bottom _i.i2c_master_if._Si2c_master_0.0.shutdown.function
	.set	_i.i2c_master_if._Si2c_master_0.0.shutdown.nstackwords,0
	.globl	_i.i2c_master_if._Si2c_master_0.0.shutdown.nstackwords
	.set	_i.i2c_master_if._Si2c_master_0.0.shutdown.maxcores,1
	.globl	_i.i2c_master_if._Si2c_master_0.0.shutdown.maxcores
	.set	_i.i2c_master_if._Si2c_master_0.0.shutdown.maxtimers,0
	.globl	_i.i2c_master_if._Si2c_master_0.0.shutdown.maxtimers
	.set	_i.i2c_master_if._Si2c_master_0.0.shutdown.maxchanends,0
	.globl	_i.i2c_master_if._Si2c_master_0.0.shutdown.maxchanends
.Ltmp402:
	.size	_i.i2c_master_if._Si2c_master_0.0.shutdown, .Ltmp402-_i.i2c_master_if._Si2c_master_0.0.shutdown
	.cfi_endproc

	.globl	_i.i2c_master_if._Si2c_master_0.0.send_stop_bit
	.align	4
	.type	_i.i2c_master_if._Si2c_master_0.0.send_stop_bit,@function
	.cc_top _i.i2c_master_if._Si2c_master_0.0.send_stop_bit.function,_i.i2c_master_if._Si2c_master_0.0.send_stop_bit
_i.i2c_master_if._Si2c_master_0.0.send_stop_bit: # @_i.i2c_master_if._Si2c_master_0.0.send_stop_bit
.Lfunc_begin13:
	.loc	2 279 0                 # /home/evgeny/git/104/UI-01_sw1_hw1/lib_i2c/src/i2c_master.xc:279:0
	.cfi_startproc
	.issue_mode single
# BB#0:                                 # %allocas
	ENTSP_lu6 4
.Ltmp403:
	.cfi_def_cfa_offset 16
.Ltmp404:
	.cfi_offset 15, 0
	stw r4, sp[2]                   # 4-byte Folded Spill
.Ltmp405:
	.cfi_offset 4, -8
	#DEBUG_VALUE: _i.i2c_master_if._Si2c_master_0.0.send_stop_bit:p <- R0
	ldw r4, r0[0]
.Ltmp406:
.LBB13_1:                               # %LoopTest
                                        # =>This Inner Loop Header: Depth=1
	ldw r0, r4[0]
	bf r0, .LBB13_1
# BB#2:                                 # %ifdone
	.loc	2 282 0 prologue_end    # /home/evgeny/git/104/UI-01_sw1_hw1/lib_i2c/src/i2c_master.xc:282:0
.Ltmp407:
	gettime r0
.Ltmp408:
	#DEBUG_VALUE: fall_time <- R0
	.loc	2 282 0                 # /home/evgeny/git/104/UI-01_sw1_hw1/lib_i2c/src/i2c_master.xc:282:0
	stw r0, sp[1]
	.loc	2 283 0                 # /home/evgeny/git/104/UI-01_sw1_hw1/lib_i2c/src/i2c_master.xc:283:0
.Ltmp409:
	ldw r0, r4[6]
.Ltmp410:
	.loc	2 283 0                 # /home/evgeny/git/104/UI-01_sw1_hw1/lib_i2c/src/i2c_master.xc:283:0
	ldw r1, r4[7]
	.loc	2 283 0                 # /home/evgeny/git/104/UI-01_sw1_hw1/lib_i2c/src/i2c_master.xc:283:0
	ldw r2, r4[8]
	ldaw r3, sp[1]
.Ltmp411:
	#DEBUG_VALUE: fall_time <- [R3+0]
	.loc	2 283 0                 # /home/evgeny/git/104/UI-01_sw1_hw1/lib_i2c/src/i2c_master.xc:283:0
.Lxta.call_labels30:
	bl stop_bit
.Ltmp412:
	mkmsk r0, 32
	.loc	2 284 0                 # /home/evgeny/git/104/UI-01_sw1_hw1/lib_i2c/src/i2c_master.xc:284:0
	stw r0, r4[11]
	clre
	ldw r4, sp[2]                   # 4-byte Folded Reload
	retsp 4
	# RETURN_REG_HOLDER
.Ltmp413:
	.cc_bottom _i.i2c_master_if._Si2c_master_0.0.send_stop_bit.function
	.set	_i.i2c_master_if._Si2c_master_0.0.send_stop_bit.nstackwords,(stop_bit.nstackwords + 4)
	.globl	_i.i2c_master_if._Si2c_master_0.0.send_stop_bit.nstackwords
	.set	_i.i2c_master_if._Si2c_master_0.0.send_stop_bit.maxcores,stop_bit.maxcores $M 1
	.globl	_i.i2c_master_if._Si2c_master_0.0.send_stop_bit.maxcores
	.set	_i.i2c_master_if._Si2c_master_0.0.send_stop_bit.maxtimers,stop_bit.maxtimers $M 0
	.globl	_i.i2c_master_if._Si2c_master_0.0.send_stop_bit.maxtimers
	.set	_i.i2c_master_if._Si2c_master_0.0.send_stop_bit.maxchanends,stop_bit.maxchanends $M 0
	.globl	_i.i2c_master_if._Si2c_master_0.0.send_stop_bit.maxchanends
.Ltmp414:
	.size	_i.i2c_master_if._Si2c_master_0.0.send_stop_bit, .Ltmp414-_i.i2c_master_if._Si2c_master_0.0.send_stop_bit
.Lfunc_end13:
	.cfi_endproc

	.section	.cp.rodata.cst4,"aMc",@progbits,4
	.cc_top .LCPI14_0.data,.LCPI14_0
	.align	4
	.type	.LCPI14_0,@object
	.size	.LCPI14_0, 4
.LCPI14_0:
	.long	4294967288              # 0xfffffff8
	.cc_bottom .LCPI14_0.data
	.cc_top .LCPI14_1.data,.LCPI14_1
	.align	4
	.type	.LCPI14_1,@object
	.size	.LCPI14_1, 4
.LCPI14_1:
	.long	100000                  # 0x186a0
	.cc_bottom .LCPI14_1.data
	.text
	.globl	_i.i2c_master_if._Si2c_master_0.0.read
	.align	4
	.type	_i.i2c_master_if._Si2c_master_0.0.read,@function
	.cc_top _i.i2c_master_if._Si2c_master_0.0.read.function,_i.i2c_master_if._Si2c_master_0.0.read
_i.i2c_master_if._Si2c_master_0.0.read: # @_i.i2c_master_if._Si2c_master_0.0.read
.Lfunc_begin14:
	.loc	2 203 0                 # /home/evgeny/git/104/UI-01_sw1_hw1/lib_i2c/src/i2c_master.xc:203:0
	.cfi_startproc
	.issue_mode single
# BB#0:                                 # %allocas
	ENTSP_lu6 18
.Ltmp415:
	.cfi_def_cfa_offset 72
.Ltmp416:
	.cfi_offset 15, 0
	std r5, r4, sp[5]               # 4-byte Folded Spill
.Ltmp417:
	.cfi_offset 4, -32
.Ltmp418:
	.cfi_offset 5, -28
	std r7, r6, sp[6]               # 4-byte Folded Spill
.Ltmp419:
	.cfi_offset 6, -24
.Ltmp420:
	.cfi_offset 7, -20
	std r9, r8, sp[7]               # 4-byte Folded Spill
.Ltmp421:
	.cfi_offset 8, -16
.Ltmp422:
	.cfi_offset 9, -12
	stw r10, sp[16]                 # 4-byte Folded Spill
.Ltmp423:
	.cfi_offset 10, -8
	#DEBUG_VALUE: _i.i2c_master_if._Si2c_master_0.0.read:p <- R0
	#DEBUG_VALUE: _i.i2c_master_if._Si2c_master_0.0.read:device <- R1
	#DEBUG_VALUE: _i.i2c_master_if._Si2c_master_0.0.read:buf <- R2
	#DEBUG_VALUE: _i.i2c_master_if._Si2c_master_0.0.read:m <- R3
	stw r3, sp[6]                   # 4-byte Folded Spill
.Ltmp424:
	#DEBUG_VALUE: _i.i2c_master_if._Si2c_master_0.0.read:m <- [SP+24]
	stw r2, sp[5]                   # 4-byte Folded Spill
.Ltmp425:
	#DEBUG_VALUE: _i.i2c_master_if._Si2c_master_0.0.read:buf <- [SP+20]
	mov r6, r1
.Ltmp426:
	#DEBUG_VALUE: _i.i2c_master_if._Si2c_master_0.0.read:device <- undef
	#DEBUG_VALUE: _i.i2c_master_if._Si2c_master_0.0.read:device <- R6
	ldw r4, r0[0]
	stw r4, sp[8]                   # 4-byte Folded Spill
	ldw r0, r0[1]
.Ltmp427:
	stw r0, sp[2]                   # 4-byte Folded Spill
.Ltmp428:
.LBB14_1:                               # %LoopTest
                                        # =>This Inner Loop Header: Depth=1
	#DEBUG_VALUE: _i.i2c_master_if._Si2c_master_0.0.read:device <- undef
	#DEBUG_VALUE: _i.i2c_master_if._Si2c_master_0.0.read:buf <- [SP+20]
	#DEBUG_VALUE: _i.i2c_master_if._Si2c_master_0.0.read:m <- [SP+24]
	ldw r0, r4[0]
	bf r0, .LBB14_1
.Ltmp429:
# BB#2:                                 # %expdone
	#DEBUG_VALUE: _i.i2c_master_if._Si2c_master_0.0.read:device <- undef
	#DEBUG_VALUE: _i.i2c_master_if._Si2c_master_0.0.read:buf <- [SP+20]
	#DEBUG_VALUE: _i.i2c_master_if._Si2c_master_0.0.read:m <- [SP+24]
	.loc	2 208 0 prologue_end    # /home/evgeny/git/104/UI-01_sw1_hw1/lib_i2c/src/i2c_master.xc:208:0
	ldw r0, r4[11]
	mkmsk r1, 32
	.loc	2 208 0                 # /home/evgeny/git/104/UI-01_sw1_hw1/lib_i2c/src/i2c_master.xc:208:0
	eq r3, r0, r1
	.loc	2 209 0                 # /home/evgeny/git/104/UI-01_sw1_hw1/lib_i2c/src/i2c_master.xc:209:0
.Ltmp430:
	ldw r0, r4[10]
.Ltmp431:
	#DEBUG_VALUE: fall_time <- R0
	.loc	2 209 0                 # /home/evgeny/git/104/UI-01_sw1_hw1/lib_i2c/src/i2c_master.xc:209:0
	stw r0, sp[9]
	.loc	2 210 0                 # /home/evgeny/git/104/UI-01_sw1_hw1/lib_i2c/src/i2c_master.xc:210:0
	ldw r0, r4[6]
.Ltmp432:
	.loc	2 210 0                 # /home/evgeny/git/104/UI-01_sw1_hw1/lib_i2c/src/i2c_master.xc:210:0
	ldw r1, r4[7]
	.loc	2 210 0                 # /home/evgeny/git/104/UI-01_sw1_hw1/lib_i2c/src/i2c_master.xc:210:0
	ldw r2, r4[8]
	.loc	2 210 0                 # /home/evgeny/git/104/UI-01_sw1_hw1/lib_i2c/src/i2c_master.xc:210:0
	stw r3, sp[1]
	ldaw r7, sp[9]
.Ltmp433:
	#DEBUG_VALUE: fall_time <- [R7+0]
	mov r3, r7
.Lxta.call_labels31:
	bl start_bit
	.loc	2 211 0                 # /home/evgeny/git/104/UI-01_sw1_hw1/lib_i2c/src/i2c_master.xc:211:0
.Ltmp434:
	ldw r0, r4[6]
	.loc	2 211 0                 # /home/evgeny/git/104/UI-01_sw1_hw1/lib_i2c/src/i2c_master.xc:211:0
	ldw r1, r4[7]
	.loc	2 211 0                 # /home/evgeny/git/104/UI-01_sw1_hw1/lib_i2c/src/i2c_master.xc:211:0
	shl r2, r6, 1
	mkmsk r3, 1
	.loc	2 211 0                 # /home/evgeny/git/104/UI-01_sw1_hw1/lib_i2c/src/i2c_master.xc:211:0
	or r2, r2, r3
	.loc	2 211 0                 # /home/evgeny/git/104/UI-01_sw1_hw1/lib_i2c/src/i2c_master.xc:211:0
	ldw r3, r4[8]
	.loc	2 211 0                 # /home/evgeny/git/104/UI-01_sw1_hw1/lib_i2c/src/i2c_master.xc:211:0
	stw r7, sp[1]
.Lxta.call_labels32:
	bl tx8
.Ltmp435:
	#DEBUG_VALUE: ack <- R0
	.loc	2 213 7                 # /home/evgeny/git/104/UI-01_sw1_hw1/lib_i2c/src/i2c_master.xc:213:7
	eq r0, r0, 0
.Ltmp436:
	#DEBUG_VALUE: j <- 0
	.loc	2 213 7                 # /home/evgeny/git/104/UI-01_sw1_hw1/lib_i2c/src/i2c_master.xc:213:7
	stw r0, sp[3]                   # 4-byte Folded Spill
	ldw r0, sp[6]                   # 4-byte Folded Reload
	bf r0, .LBB14_16
.Ltmp437:
# BB#3:                                 # %expdone
	#DEBUG_VALUE: _i.i2c_master_if._Si2c_master_0.0.read:device <- undef
	#DEBUG_VALUE: _i.i2c_master_if._Si2c_master_0.0.read:buf <- [SP+20]
	#DEBUG_VALUE: _i.i2c_master_if._Si2c_master_0.0.read:m <- [SP+24]
	.loc	2 213 7                 # /home/evgeny/git/104/UI-01_sw1_hw1/lib_i2c/src/i2c_master.xc:213:7
	ldw r0, sp[3]                   # 4-byte Folded Reload
	eq r0, r0, 0
	bt r0, .LBB14_16
.Ltmp438:
# BB#4:                                 # %LoopBody71.preheader
	#DEBUG_VALUE: _i.i2c_master_if._Si2c_master_0.0.read:device <- undef
	#DEBUG_VALUE: _i.i2c_master_if._Si2c_master_0.0.read:buf <- [SP+20]
	#DEBUG_VALUE: _i.i2c_master_if._Si2c_master_0.0.read:m <- [SP+24]
	.loc	2 90 0                  # /home/evgeny/git/104/UI-01_sw1_hw1/lib_i2c/src/i2c_master.xc:90:0
	get r11, id
	.loc	2 90 0                  # /home/evgeny/git/104/UI-01_sw1_hw1/lib_i2c/src/i2c_master.xc:90:0
	ldaw r0, dp[__timers]
	.loc	2 90 0                  # /home/evgeny/git/104/UI-01_sw1_hw1/lib_i2c/src/i2c_master.xc:90:0
	ldw r10, r0[r11]
.Ltmp439:
	.loc	2 225 11                # /home/evgeny/git/104/UI-01_sw1_hw1/lib_i2c/src/i2c_master.xc:225:11
	ldw r0, sp[6]                   # 4-byte Folded Reload
	sub r0, r0, 1
	stw r0, sp[4]                   # 4-byte Folded Spill
	ldc r7, 0
.Ltmp440:
	.loc	2 90 0                  # /home/evgeny/git/104/UI-01_sw1_hw1/lib_i2c/src/i2c_master.xc:90:0
	ldw r0, sp[9]
	mov r6, r7
.Ltmp441:
.LBB14_5:                               # %LoopBody71
                                        # =>This Loop Header: Depth=1
                                        #     Child Loop BB14_6 Depth 2
.Lxtalabel60:
	#DEBUG_VALUE: _i.i2c_master_if._Si2c_master_0.0.read:device <- undef
	#DEBUG_VALUE: _i.i2c_master_if._Si2c_master_0.0.read:buf <- [SP+20]
	#DEBUG_VALUE: _i.i2c_master_if._Si2c_master_0.0.read:m <- [SP+24]
	#DEBUG_VALUE: data <- 0
	#DEBUG_VALUE: i <- 8
	stw r6, sp[7]                   # 4-byte Folded Spill
	ldw r6, cp[.LCPI14_0]
	mov r5, r7
.Ltmp442:
.LBB14_6:                               # %LoopBody80
                                        #   Parent Loop BB14_5 Depth=1
                                        # =>  This Inner Loop Header: Depth=2
.Lxtalabel61:
	#DEBUG_VALUE: _i.i2c_master_if._Si2c_master_0.0.read:device <- undef
	#DEBUG_VALUE: _i.i2c_master_if._Si2c_master_0.0.read:buf <- [SP+20]
	#DEBUG_VALUE: _i.i2c_master_if._Si2c_master_0.0.read:m <- [SP+24]
	#DEBUG_VALUE: data <- 0
	#DEBUG_VALUE: i <- 8
	mov r9, r7
	.loc	2 218 0                 # /home/evgeny/git/104/UI-01_sw1_hw1/lib_i2c/src/i2c_master.xc:218:0
	ldw r8, r4[6]
.Ltmp443:
	#DEBUG_VALUE: high_pulse_sample:p_scl <- R8
	.loc	2 218 0                 # /home/evgeny/git/104/UI-01_sw1_hw1/lib_i2c/src/i2c_master.xc:218:0
	ldw r7, r4[7]
.Ltmp444:
	#DEBUG_VALUE: high_pulse_sample:p_sda <- R7
	.loc	2 218 0                 # /home/evgeny/git/104/UI-01_sw1_hw1/lib_i2c/src/i2c_master.xc:218:0
	ldw r1, r4[8]
.Ltmp445:
	#DEBUG_VALUE: high_pulse_sample:kbits_per_second <- R1
	#DEBUG_VALUE: compute_low_period_ticks:kbits_per_second <- R1
	ldw r2, cp[.LCPI14_1]
	.loc	2 85 0                  # /home/evgeny/git/104/UI-01_sw1_hw1/lib_i2c/src/i2c_master.xc:85:0
.Ltmp446:
	divu r4, r2, r1
.Ltmp447:
	#DEBUG_VALUE: bit_time <- R4
	#DEBUG_VALUE: sample_value <- 0
	.loc	2 89 0                  # /home/evgeny/git/104/UI-01_sw1_hw1/lib_i2c/src/i2c_master.xc:89:0
	setc res[r7], 1
	.loc	2 89 0                  # /home/evgeny/git/104/UI-01_sw1_hw1/lib_i2c/src/i2c_master.xc:89:0
.Ltmp448:
.Lxta.endpoint_labels39:
	in r2, res[r7]
.Ltmp449:
	#DEBUG_VALUE: ticks <- 0
	#DEBUG_VALUE: _ <- R2
	ldc r2, 101
.Ltmp450:
	.loc	2 20 3                  # /home/evgeny/git/104/UI-01_sw1_hw1/lib_i2c/src/i2c_master.xc:20:3
	lsu r3, r1, r2
	ldc r2, 473
	bt r3, .LBB14_8
.Ltmp451:
# BB#7:                                 # %iffalse.i.i
                                        #   in Loop: Header=BB14_6 Depth=2
.Lxtalabel62:
	#DEBUG_VALUE: _i.i2c_master_if._Si2c_master_0.0.read:device <- undef
	#DEBUG_VALUE: _i.i2c_master_if._Si2c_master_0.0.read:buf <- [SP+20]
	#DEBUG_VALUE: _i.i2c_master_if._Si2c_master_0.0.read:m <- [SP+24]
	#DEBUG_VALUE: data <- 0
	#DEBUG_VALUE: i <- 8
	#DEBUG_VALUE: high_pulse_sample:p_scl <- R8
	#DEBUG_VALUE: high_pulse_sample:p_sda <- R7
	#DEBUG_VALUE: compute_low_period_ticks:kbits_per_second <- R1
	#DEBUG_VALUE: high_pulse_sample:kbits_per_second <- R1
	#DEBUG_VALUE: sample_value <- 0
	#DEBUG_VALUE: bit_time <- R4
	#DEBUG_VALUE: ticks <- 0
	ldc r2, 401
	.loc	2 23 10                 # /home/evgeny/git/104/UI-01_sw1_hw1/lib_i2c/src/i2c_master.xc:23:10
	lsu r1, r1, r2
.Ltmp452:
	ldc r2, 133
	.loc	2 27 0                  # /home/evgeny/git/104/UI-01_sw1_hw1/lib_i2c/src/i2c_master.xc:27:0
	ecallf r1
.Ltmp453:
.LBB14_8:                               # %high_pulse_sample.exit
                                        #   in Loop: Header=BB14_6 Depth=2
.Lxtalabel63:
	#DEBUG_VALUE: _i.i2c_master_if._Si2c_master_0.0.read:device <- undef
	#DEBUG_VALUE: _i.i2c_master_if._Si2c_master_0.0.read:buf <- [SP+20]
	#DEBUG_VALUE: _i.i2c_master_if._Si2c_master_0.0.read:m <- [SP+24]
	#DEBUG_VALUE: data <- 0
	#DEBUG_VALUE: i <- 8
	#DEBUG_VALUE: high_pulse_sample:p_scl <- R8
	#DEBUG_VALUE: high_pulse_sample:p_sda <- R7
	#DEBUG_VALUE: sample_value <- 0
	#DEBUG_VALUE: bit_time <- R4
	#DEBUG_VALUE: jitter_ticks <- 3
	.loc	2 90 0                  # /home/evgeny/git/104/UI-01_sw1_hw1/lib_i2c/src/i2c_master.xc:90:0
	add r0, r2, r0
	.loc	2 90 0                  # /home/evgeny/git/104/UI-01_sw1_hw1/lib_i2c/src/i2c_master.xc:90:0
	setd res[r10], r0
	.loc	2 90 0                  # /home/evgeny/git/104/UI-01_sw1_hw1/lib_i2c/src/i2c_master.xc:90:0
	setc res[r10], 9
	.loc	2 90 0                  # /home/evgeny/git/104/UI-01_sw1_hw1/lib_i2c/src/i2c_master.xc:90:0
.Ltmp454:
.Lxta.endpoint_labels40:
	in r0, res[r10]
	.loc	2 91 0                  # /home/evgeny/git/104/UI-01_sw1_hw1/lib_i2c/src/i2c_master.xc:91:0
	lda16 r0, r4[r4]
	.loc	2 91 0                  # /home/evgeny/git/104/UI-01_sw1_hw1/lib_i2c/src/i2c_master.xc:91:0
	shr r2, r0, 2
.Ltmp455:
	#DEBUG_VALUE: high_pulse_sample:fall_time <- undef
	.loc	2 91 0                  # /home/evgeny/git/104/UI-01_sw1_hw1/lib_i2c/src/i2c_master.xc:91:0
	mov r0, r8
	ldaw r1, sp[9]
.Lxta.call_labels33:
	bl release_clock_and_wait
	.loc	2 92 0                  # /home/evgeny/git/104/UI-01_sw1_hw1/lib_i2c/src/i2c_master.xc:92:0
	setc res[r7], 1
	.loc	2 92 0                  # /home/evgeny/git/104/UI-01_sw1_hw1/lib_i2c/src/i2c_master.xc:92:0
.Lxta.endpoint_labels41:
	in r1, res[r7]
.Ltmp456:
	#DEBUG_VALUE: sample_value <- R1
	.loc	2 93 0                  # /home/evgeny/git/104/UI-01_sw1_hw1/lib_i2c/src/i2c_master.xc:93:0
	ldw r0, sp[9]
	.loc	2 93 0                  # /home/evgeny/git/104/UI-01_sw1_hw1/lib_i2c/src/i2c_master.xc:93:0
	add r0, r0, r4
	.loc	2 93 0                  # /home/evgeny/git/104/UI-01_sw1_hw1/lib_i2c/src/i2c_master.xc:93:0
	stw r0, sp[9]
	.loc	2 94 0                  # /home/evgeny/git/104/UI-01_sw1_hw1/lib_i2c/src/i2c_master.xc:94:0
	setd res[r10], r0
	.loc	2 94 0                  # /home/evgeny/git/104/UI-01_sw1_hw1/lib_i2c/src/i2c_master.xc:94:0
	setc res[r10], 9
	.loc	2 94 0                  # /home/evgeny/git/104/UI-01_sw1_hw1/lib_i2c/src/i2c_master.xc:94:0
.Ltmp457:
.Lxta.endpoint_labels42:
	in r2, res[r10]
	mov r7, r9
.Ltmp458:
	.loc	2 95 13                 # /home/evgeny/git/104/UI-01_sw1_hw1/lib_i2c/src/i2c_master.xc:95:13
.Lxta.endpoint_labels43:
	out res[r8], r7
	.loc	2 97 3                  # /home/evgeny/git/104/UI-01_sw1_hw1/lib_i2c/src/i2c_master.xc:97:3
	zext r1, 1
.Ltmp459:
	#DEBUG_VALUE: temp <- R1
	.loc	2 219 0                 # /home/evgeny/git/104/UI-01_sw1_hw1/lib_i2c/src/i2c_master.xc:219:0
	shl r2, r5, 1
	ldc r3, 510
	.loc	2 219 0                 # /home/evgeny/git/104/UI-01_sw1_hw1/lib_i2c/src/i2c_master.xc:219:0
	and r2, r2, r3
	.loc	2 219 0                 # /home/evgeny/git/104/UI-01_sw1_hw1/lib_i2c/src/i2c_master.xc:219:0
	or r5, r1, r2
.Ltmp460:
	.loc	2 217 0                 # /home/evgeny/git/104/UI-01_sw1_hw1/lib_i2c/src/i2c_master.xc:217:0
	add r6, r6, 1
.xtaloop 8
	# LOOPMARKER 1
.Lxta.loop_labels9:
	# LOOPMARKER 0
	ldw r4, sp[8]                   # 4-byte Folded Reload
.Ltmp461:
	bt r6, .LBB14_6
.Ltmp462:
# BB#9:                                 # %afterboundcheck
                                        #   in Loop: Header=BB14_5 Depth=1
.Lxtalabel64:
	#DEBUG_VALUE: _i.i2c_master_if._Si2c_master_0.0.read:device <- undef
	#DEBUG_VALUE: _i.i2c_master_if._Si2c_master_0.0.read:buf <- [SP+20]
	#DEBUG_VALUE: _i.i2c_master_if._Si2c_master_0.0.read:m <- [SP+24]
	#DEBUG_VALUE: data <- 0
	.loc	2 221 0                 # /home/evgeny/git/104/UI-01_sw1_hw1/lib_i2c/src/i2c_master.xc:221:0
	ldw r1, sp[5]                   # 4-byte Folded Reload
	ldw r6, sp[7]                   # 4-byte Folded Reload
	st8 r5, r1[r6]
	.loc	2 223 0                 # /home/evgeny/git/104/UI-01_sw1_hw1/lib_i2c/src/i2c_master.xc:223:0
	ldw r1, r4[9]
	.loc	2 223 0                 # /home/evgeny/git/104/UI-01_sw1_hw1/lib_i2c/src/i2c_master.xc:223:0
	shr r1, r1, 2
	.loc	2 223 0                 # /home/evgeny/git/104/UI-01_sw1_hw1/lib_i2c/src/i2c_master.xc:223:0
	add r1, r1, r0
	.loc	2 223 0                 # /home/evgeny/git/104/UI-01_sw1_hw1/lib_i2c/src/i2c_master.xc:223:0
	setd res[r10], r1
	.loc	2 223 0                 # /home/evgeny/git/104/UI-01_sw1_hw1/lib_i2c/src/i2c_master.xc:223:0
	setc res[r10], 9
	.loc	2 223 0                 # /home/evgeny/git/104/UI-01_sw1_hw1/lib_i2c/src/i2c_master.xc:223:0
.Ltmp463:
.Lxta.endpoint_labels44:
	in r1, res[r10]
	.loc	2 226 0                 # /home/evgeny/git/104/UI-01_sw1_hw1/lib_i2c/src/i2c_master.xc:226:0
	ldw r1, r4[7]
	.loc	2 225 11                # /home/evgeny/git/104/UI-01_sw1_hw1/lib_i2c/src/i2c_master.xc:225:11
	ldw r2, sp[4]                   # 4-byte Folded Reload
	eq r2, r6, r2
	bf r2, .LBB14_19
.Ltmp464:
# BB#10:                                # %iftrue105
                                        #   in Loop: Header=BB14_5 Depth=1
.Lxtalabel65:
	#DEBUG_VALUE: _i.i2c_master_if._Si2c_master_0.0.read:device <- undef
	#DEBUG_VALUE: _i.i2c_master_if._Si2c_master_0.0.read:buf <- [SP+20]
	#DEBUG_VALUE: _i.i2c_master_if._Si2c_master_0.0.read:m <- [SP+24]
	#DEBUG_VALUE: data <- 0
	.loc	2 226 0                 # /home/evgeny/git/104/UI-01_sw1_hw1/lib_i2c/src/i2c_master.xc:226:0
	setc res[r1], 1
	.loc	2 226 0                 # /home/evgeny/git/104/UI-01_sw1_hw1/lib_i2c/src/i2c_master.xc:226:0
.Ltmp465:
.Lxta.endpoint_labels45:
	in r1, res[r1]
	bu .LBB14_11
.Ltmp466:
.LBB14_19:                              # %iffalse113
                                        #   in Loop: Header=BB14_5 Depth=1
.Lxtalabel66:
	#DEBUG_VALUE: _i.i2c_master_if._Si2c_master_0.0.read:device <- undef
	#DEBUG_VALUE: _i.i2c_master_if._Si2c_master_0.0.read:buf <- [SP+20]
	#DEBUG_VALUE: _i.i2c_master_if._Si2c_master_0.0.read:m <- [SP+24]
	#DEBUG_VALUE: data <- 0
	.loc	2 228 23                # /home/evgeny/git/104/UI-01_sw1_hw1/lib_i2c/src/i2c_master.xc:228:23
.Lxta.endpoint_labels46:
	out res[r1], r7
.Ltmp467:
.LBB14_11:                              # %ifdone106
                                        #   in Loop: Header=BB14_5 Depth=1
.Lxtalabel67:
	#DEBUG_VALUE: _i.i2c_master_if._Si2c_master_0.0.read:device <- undef
	#DEBUG_VALUE: _i.i2c_master_if._Si2c_master_0.0.read:buf <- [SP+20]
	#DEBUG_VALUE: _i.i2c_master_if._Si2c_master_0.0.read:m <- [SP+24]
	#DEBUG_VALUE: data <- 0
	.loc	2 231 0                 # /home/evgeny/git/104/UI-01_sw1_hw1/lib_i2c/src/i2c_master.xc:231:0
	ldw r2, r4[8]
.Ltmp468:
	#DEBUG_VALUE: ticks <- 0
	#DEBUG_VALUE: compute_low_period_ticks:kbits_per_second <- R2
	#DEBUG_VALUE: high_pulse:kbits_per_second <- R2
	#DEBUG_VALUE: compute_low_period_ticks:kbits_per_second <- R2
	ldc r1, 101
	.loc	2 20 3                  # /home/evgeny/git/104/UI-01_sw1_hw1/lib_i2c/src/i2c_master.xc:20:3
.Ltmp469:
	lsu r1, r2, r1
	ldc r3, 473
	bt r1, .LBB14_13
.Ltmp470:
# BB#12:                                # %iffalse.i
                                        #   in Loop: Header=BB14_5 Depth=1
.Lxtalabel68:
	#DEBUG_VALUE: _i.i2c_master_if._Si2c_master_0.0.read:device <- undef
	#DEBUG_VALUE: _i.i2c_master_if._Si2c_master_0.0.read:buf <- [SP+20]
	#DEBUG_VALUE: _i.i2c_master_if._Si2c_master_0.0.read:m <- [SP+24]
	#DEBUG_VALUE: data <- 0
	#DEBUG_VALUE: compute_low_period_ticks:kbits_per_second <- R2
	#DEBUG_VALUE: ticks <- 0
	ldc r3, 401
	.loc	2 23 10                 # /home/evgeny/git/104/UI-01_sw1_hw1/lib_i2c/src/i2c_master.xc:23:10
	lsu r11, r2, r3
	ldc r3, 133
	.loc	2 27 0                  # /home/evgeny/git/104/UI-01_sw1_hw1/lib_i2c/src/i2c_master.xc:27:0
	ecallf r11
.Ltmp471:
.LBB14_13:                              # %compute_low_period_ticks.exit
                                        #   in Loop: Header=BB14_5 Depth=1
.Lxtalabel69:
	#DEBUG_VALUE: _i.i2c_master_if._Si2c_master_0.0.read:device <- undef
	#DEBUG_VALUE: _i.i2c_master_if._Si2c_master_0.0.read:buf <- [SP+20]
	#DEBUG_VALUE: _i.i2c_master_if._Si2c_master_0.0.read:m <- [SP+24]
	#DEBUG_VALUE: data <- 0
	#DEBUG_VALUE: compute_low_period_ticks:kbits_per_second <- R2
	#DEBUG_VALUE: high_pulse:kbits_per_second <- R2
	#DEBUG_VALUE: jitter_ticks <- 3
	.loc	2 231 0                 # /home/evgeny/git/104/UI-01_sw1_hw1/lib_i2c/src/i2c_master.xc:231:0
	add r3, r3, r0
	.loc	2 231 0                 # /home/evgeny/git/104/UI-01_sw1_hw1/lib_i2c/src/i2c_master.xc:231:0
	setd res[r10], r3
	.loc	2 231 0                 # /home/evgeny/git/104/UI-01_sw1_hw1/lib_i2c/src/i2c_master.xc:231:0
	setc res[r10], 9
	.loc	2 231 0                 # /home/evgeny/git/104/UI-01_sw1_hw1/lib_i2c/src/i2c_master.xc:231:0
.Ltmp472:
.Lxta.endpoint_labels47:
	in r3, res[r10]
	.loc	2 232 0                 # /home/evgeny/git/104/UI-01_sw1_hw1/lib_i2c/src/i2c_master.xc:232:0
	ldw r8, r4[6]
.Ltmp473:
	#DEBUG_VALUE: high_pulse:p_scl <- R8
	mov r5, r4
	ldw r3, cp[.LCPI14_1]
	.loc	2 109 0                 # /home/evgeny/git/104/UI-01_sw1_hw1/lib_i2c/src/i2c_master.xc:109:0
.Ltmp474:
	divu r4, r3, r2
.Ltmp475:
	#DEBUG_VALUE: ticks <- 0
	#DEBUG_VALUE: bit_time <- R4
	ldc r2, 473
.Ltmp476:
	bt r1, .LBB14_15
.Ltmp477:
# BB#14:                                # %compute_low_period_ticks.exit
                                        #   in Loop: Header=BB14_5 Depth=1
.Lxtalabel70:
	#DEBUG_VALUE: _i.i2c_master_if._Si2c_master_0.0.read:device <- undef
	#DEBUG_VALUE: _i.i2c_master_if._Si2c_master_0.0.read:buf <- [SP+20]
	#DEBUG_VALUE: _i.i2c_master_if._Si2c_master_0.0.read:m <- [SP+24]
	#DEBUG_VALUE: data <- 0
	#DEBUG_VALUE: high_pulse:p_scl <- R8
	#DEBUG_VALUE: bit_time <- R4
	#DEBUG_VALUE: ticks <- 0
	ldc r2, 133
.Ltmp478:
.LBB14_15:                              # %compute_low_period_ticks.exit
                                        #   in Loop: Header=BB14_5 Depth=1
.Lxtalabel71:
	#DEBUG_VALUE: _i.i2c_master_if._Si2c_master_0.0.read:device <- undef
	#DEBUG_VALUE: _i.i2c_master_if._Si2c_master_0.0.read:buf <- [SP+20]
	#DEBUG_VALUE: _i.i2c_master_if._Si2c_master_0.0.read:m <- [SP+24]
	#DEBUG_VALUE: data <- 0
	#DEBUG_VALUE: high_pulse:p_scl <- R8
	#DEBUG_VALUE: bit_time <- R4
	#DEBUG_VALUE: jitter_ticks <- 3
	.loc	2 112 0                 # /home/evgeny/git/104/UI-01_sw1_hw1/lib_i2c/src/i2c_master.xc:112:0
	add r0, r2, r0
	.loc	2 112 0                 # /home/evgeny/git/104/UI-01_sw1_hw1/lib_i2c/src/i2c_master.xc:112:0
	setd res[r10], r0
	.loc	2 112 0                 # /home/evgeny/git/104/UI-01_sw1_hw1/lib_i2c/src/i2c_master.xc:112:0
	setc res[r10], 9
	.loc	2 112 0                 # /home/evgeny/git/104/UI-01_sw1_hw1/lib_i2c/src/i2c_master.xc:112:0
.Ltmp479:
.Lxta.endpoint_labels48:
	in r0, res[r10]
	.loc	2 113 0                 # /home/evgeny/git/104/UI-01_sw1_hw1/lib_i2c/src/i2c_master.xc:113:0
	lda16 r0, r4[r4]
	.loc	2 113 0                 # /home/evgeny/git/104/UI-01_sw1_hw1/lib_i2c/src/i2c_master.xc:113:0
	shr r2, r0, 2
.Ltmp480:
	#DEBUG_VALUE: high_pulse:fall_time <- undef
	.loc	2 113 0                 # /home/evgeny/git/104/UI-01_sw1_hw1/lib_i2c/src/i2c_master.xc:113:0
	mov r0, r8
	ldaw r1, sp[9]
.Lxta.call_labels34:
	bl release_clock_and_wait
	.loc	2 114 0                 # /home/evgeny/git/104/UI-01_sw1_hw1/lib_i2c/src/i2c_master.xc:114:0
	ldw r0, sp[9]
	.loc	2 114 0                 # /home/evgeny/git/104/UI-01_sw1_hw1/lib_i2c/src/i2c_master.xc:114:0
	add r0, r0, r4
	.loc	2 114 0                 # /home/evgeny/git/104/UI-01_sw1_hw1/lib_i2c/src/i2c_master.xc:114:0
	stw r0, sp[9]
	.loc	2 115 0                 # /home/evgeny/git/104/UI-01_sw1_hw1/lib_i2c/src/i2c_master.xc:115:0
	setd res[r10], r0
	.loc	2 115 0                 # /home/evgeny/git/104/UI-01_sw1_hw1/lib_i2c/src/i2c_master.xc:115:0
	setc res[r10], 9
	.loc	2 115 0                 # /home/evgeny/git/104/UI-01_sw1_hw1/lib_i2c/src/i2c_master.xc:115:0
.Ltmp481:
.Lxta.endpoint_labels49:
	in r1, res[r10]
	.loc	2 116 13                # /home/evgeny/git/104/UI-01_sw1_hw1/lib_i2c/src/i2c_master.xc:116:13
.Lxta.endpoint_labels50:
	out res[r8], r7
	mov r4, r5
.Ltmp482:
	.loc	2 233 0                 # /home/evgeny/git/104/UI-01_sw1_hw1/lib_i2c/src/i2c_master.xc:233:0
	ldw r1, r4[7]
	.loc	2 233 0                 # /home/evgeny/git/104/UI-01_sw1_hw1/lib_i2c/src/i2c_master.xc:233:0
	setc res[r1], 1
	.loc	2 233 0                 # /home/evgeny/git/104/UI-01_sw1_hw1/lib_i2c/src/i2c_master.xc:233:0
.Ltmp483:
.Lxta.endpoint_labels51:
	in r1, res[r1]
.Ltmp484:
	.loc	2 214 0                 # /home/evgeny/git/104/UI-01_sw1_hw1/lib_i2c/src/i2c_master.xc:214:0
	add r6, r6, 1
.Ltmp485:
	#DEBUG_VALUE: j <- R6
	.loc	2 214 0                 # /home/evgeny/git/104/UI-01_sw1_hw1/lib_i2c/src/i2c_master.xc:214:0
	ldw r1, sp[6]                   # 4-byte Folded Reload
	lsu r1, r6, r1
.Lxta.loop_labels10:
	# LOOPMARKER 2
	bt r1, .LBB14_5
.Ltmp486:
.LBB14_16:                              # %ifdone61
.Lxtalabel72:
	#DEBUG_VALUE: _i.i2c_master_if._Si2c_master_0.0.read:device <- undef
	ldw r0, sp[19]
	#DEBUG_VALUE: _i.i2c_master_if._Si2c_master_0.0.read:send_stop_bit <- R0
	ldw r1, sp[2]                   # 4-byte Folded Reload
	bf r0, .LBB14_18
.Ltmp487:
# BB#17:                                # %iftrue139
.Lxtalabel73:
	#DEBUG_VALUE: _i.i2c_master_if._Si2c_master_0.0.read:device <- undef
	.loc	2 237 0                 # /home/evgeny/git/104/UI-01_sw1_hw1/lib_i2c/src/i2c_master.xc:237:0
	ldw r0, r4[6]
	.loc	2 237 0                 # /home/evgeny/git/104/UI-01_sw1_hw1/lib_i2c/src/i2c_master.xc:237:0
	ldw r1, r4[7]
	.loc	2 237 0                 # /home/evgeny/git/104/UI-01_sw1_hw1/lib_i2c/src/i2c_master.xc:237:0
	ldw r2, r4[8]
	ldaw r3, sp[9]
.Ltmp488:
	#DEBUG_VALUE: fall_time <- [R3+0]
	.loc	2 237 0                 # /home/evgeny/git/104/UI-01_sw1_hw1/lib_i2c/src/i2c_master.xc:237:0
.Lxta.call_labels35:
	bl stop_bit
.Ltmp489:
	mkmsk r1, 32
.LBB14_18:                              # %ifdone140
.Lxtalabel74:
	#DEBUG_VALUE: _i.i2c_master_if._Si2c_master_0.0.read:device <- undef
	.loc	2 241 0                 # /home/evgeny/git/104/UI-01_sw1_hw1/lib_i2c/src/i2c_master.xc:241:0
	stw r1, r4[11]
	.loc	2 247 0                 # /home/evgeny/git/104/UI-01_sw1_hw1/lib_i2c/src/i2c_master.xc:247:0
	ldw r0, sp[9]
	.loc	2 247 0                 # /home/evgeny/git/104/UI-01_sw1_hw1/lib_i2c/src/i2c_master.xc:247:0
	stw r0, r4[10]
	clre
	ldw r0, sp[3]                   # 4-byte Folded Reload
	ldw r10, sp[16]                 # 4-byte Folded Reload
	ldd r9, r8, sp[7]               # 4-byte Folded Reload
	ldd r7, r6, sp[6]               # 4-byte Folded Reload
	ldd r5, r4, sp[5]               # 4-byte Folded Reload
	retsp 18
	# RETURN_REG_HOLDER
.Ltmp490:
	.cc_bottom _i.i2c_master_if._Si2c_master_0.0.read.function
	.set	_i.i2c_master_if._Si2c_master_0.0.read.nstackwords,((start_bit.nstackwords $M tx8.nstackwords $M stop_bit.nstackwords $M release_clock_and_wait.nstackwords) + 18)
	.globl	_i.i2c_master_if._Si2c_master_0.0.read.nstackwords
	.set	_i.i2c_master_if._Si2c_master_0.0.read.maxcores,release_clock_and_wait.maxcores $M start_bit.maxcores $M stop_bit.maxcores $M tx8.maxcores $M 1
	.globl	_i.i2c_master_if._Si2c_master_0.0.read.maxcores
	.set	_i.i2c_master_if._Si2c_master_0.0.read.maxtimers,release_clock_and_wait.maxtimers $M start_bit.maxtimers $M stop_bit.maxtimers $M tx8.maxtimers $M 0
	.globl	_i.i2c_master_if._Si2c_master_0.0.read.maxtimers
	.set	_i.i2c_master_if._Si2c_master_0.0.read.maxchanends,release_clock_and_wait.maxchanends $M start_bit.maxchanends $M stop_bit.maxchanends $M tx8.maxchanends $M 0
	.globl	_i.i2c_master_if._Si2c_master_0.0.read.maxchanends
.Ltmp491:
	.size	_i.i2c_master_if._Si2c_master_0.0.read, .Ltmp491-_i.i2c_master_if._Si2c_master_0.0.read
.Lfunc_end14:
	.cfi_endproc

	.globl	_i.i2c_master_if._Si2c_master_0.0.write
	.align	4
	.type	_i.i2c_master_if._Si2c_master_0.0.write,@function
	.cc_top _i.i2c_master_if._Si2c_master_0.0.write.function,_i.i2c_master_if._Si2c_master_0.0.write
_i.i2c_master_if._Si2c_master_0.0.write: # @_i.i2c_master_if._Si2c_master_0.0.write
.Lfunc_begin15:
	.loc	2 250 0                 # /home/evgeny/git/104/UI-01_sw1_hw1/lib_i2c/src/i2c_master.xc:250:0
	.cfi_startproc
	.issue_mode single
# BB#0:                                 # %allocas
	ENTSP_lu6 12
.Ltmp492:
	.cfi_def_cfa_offset 48
.Ltmp493:
	.cfi_offset 15, 0
	std r5, r4, sp[2]               # 4-byte Folded Spill
.Ltmp494:
	.cfi_offset 4, -32
.Ltmp495:
	.cfi_offset 5, -28
	std r7, r6, sp[3]               # 4-byte Folded Spill
.Ltmp496:
	.cfi_offset 6, -24
.Ltmp497:
	.cfi_offset 7, -20
	std r9, r8, sp[4]               # 4-byte Folded Spill
.Ltmp498:
	.cfi_offset 8, -16
.Ltmp499:
	.cfi_offset 9, -12
	stw r10, sp[10]                 # 4-byte Folded Spill
.Ltmp500:
	.cfi_offset 10, -8
	#DEBUG_VALUE: _i.i2c_master_if._Si2c_master_0.0.write:p <- R0
	#DEBUG_VALUE: _i.i2c_master_if._Si2c_master_0.0.write:device <- R1
	#DEBUG_VALUE: _i.i2c_master_if._Si2c_master_0.0.write:buf <- R2
	#DEBUG_VALUE: _i.i2c_master_if._Si2c_master_0.0.write:n <- R3
	mov r4, r3
.Ltmp501:
	#DEBUG_VALUE: _i.i2c_master_if._Si2c_master_0.0.write:n <- R4
	mov r5, r2
.Ltmp502:
	#DEBUG_VALUE: _i.i2c_master_if._Si2c_master_0.0.write:buf <- R5
	mov r7, r1
.Ltmp503:
	#DEBUG_VALUE: _i.i2c_master_if._Si2c_master_0.0.write:device <- undef
	#DEBUG_VALUE: _i.i2c_master_if._Si2c_master_0.0.write:device <- R7
	ldw r8, r0[0]
	ldw r9, r0[1]
.Ltmp504:
.LBB15_1:                               # %LoopTest
                                        # =>This Inner Loop Header: Depth=1
	#DEBUG_VALUE: _i.i2c_master_if._Si2c_master_0.0.write:device <- undef
	#DEBUG_VALUE: _i.i2c_master_if._Si2c_master_0.0.write:buf <- R5
	#DEBUG_VALUE: _i.i2c_master_if._Si2c_master_0.0.write:n <- R4
	ldw r0, r8[0]
	bf r0, .LBB15_1
.Ltmp505:
# BB#2:                                 # %expdone
	#DEBUG_VALUE: _i.i2c_master_if._Si2c_master_0.0.write:device <- undef
	#DEBUG_VALUE: _i.i2c_master_if._Si2c_master_0.0.write:buf <- R5
	#DEBUG_VALUE: _i.i2c_master_if._Si2c_master_0.0.write:n <- R4
	#DEBUG_VALUE: _i.i2c_master_if._Si2c_master_0.0.write:send_stop_bit <- undef
	.loc	2 255 0 prologue_end    # /home/evgeny/git/104/UI-01_sw1_hw1/lib_i2c/src/i2c_master.xc:255:0
	ldw r0, r8[10]
.Ltmp506:
	#DEBUG_VALUE: fall_time <- R0
	.loc	2 255 0                 # /home/evgeny/git/104/UI-01_sw1_hw1/lib_i2c/src/i2c_master.xc:255:0
	stw r0, sp[3]
	.loc	2 256 0                 # /home/evgeny/git/104/UI-01_sw1_hw1/lib_i2c/src/i2c_master.xc:256:0
.Ltmp507:
	ldw r0, r8[11]
.Ltmp508:
	mkmsk r1, 32
	.loc	2 256 0                 # /home/evgeny/git/104/UI-01_sw1_hw1/lib_i2c/src/i2c_master.xc:256:0
	eq r3, r0, r1
	.loc	2 257 0                 # /home/evgeny/git/104/UI-01_sw1_hw1/lib_i2c/src/i2c_master.xc:257:0
	ldw r0, r8[6]
	.loc	2 257 0                 # /home/evgeny/git/104/UI-01_sw1_hw1/lib_i2c/src/i2c_master.xc:257:0
	ldw r1, r8[7]
	.loc	2 257 0                 # /home/evgeny/git/104/UI-01_sw1_hw1/lib_i2c/src/i2c_master.xc:257:0
	ldw r2, r8[8]
	.loc	2 257 0                 # /home/evgeny/git/104/UI-01_sw1_hw1/lib_i2c/src/i2c_master.xc:257:0
	stw r3, sp[1]
	ldaw r6, sp[3]
.Ltmp509:
	#DEBUG_VALUE: fall_time <- [R6+0]
	mov r3, r6
.Lxta.call_labels36:
	bl start_bit
	.loc	2 258 0                 # /home/evgeny/git/104/UI-01_sw1_hw1/lib_i2c/src/i2c_master.xc:258:0
.Ltmp510:
	ldw r0, r8[6]
	.loc	2 258 0                 # /home/evgeny/git/104/UI-01_sw1_hw1/lib_i2c/src/i2c_master.xc:258:0
	ldw r1, r8[7]
	.loc	2 258 0                 # /home/evgeny/git/104/UI-01_sw1_hw1/lib_i2c/src/i2c_master.xc:258:0
	shl r2, r7, 1
	.loc	2 258 0                 # /home/evgeny/git/104/UI-01_sw1_hw1/lib_i2c/src/i2c_master.xc:258:0
	ldw r3, r8[8]
	.loc	2 258 0                 # /home/evgeny/git/104/UI-01_sw1_hw1/lib_i2c/src/i2c_master.xc:258:0
	stw r6, sp[1]
.Lxta.call_labels37:
	bl tx8
	mov r7, r0
.Ltmp511:
	#DEBUG_VALUE: j <- 0
	#DEBUG_VALUE: ack <- R7
	ldc r10, 0
	bf r4, .LBB15_3
.Ltmp512:
.LBB15_6:                               # %LoopBody65
                                        # =>This Inner Loop Header: Depth=1
.Lxtalabel75:
	#DEBUG_VALUE: _i.i2c_master_if._Si2c_master_0.0.write:device <- undef
	#DEBUG_VALUE: _i.i2c_master_if._Si2c_master_0.0.write:buf <- R5
	#DEBUG_VALUE: _i.i2c_master_if._Si2c_master_0.0.write:n <- R4
	#DEBUG_VALUE: _i.i2c_master_if._Si2c_master_0.0.write:send_stop_bit <- undef
	bt r7, .LBB15_3
.Ltmp513:
# BB#7:                                 # %afterboundcheck
                                        #   in Loop: Header=BB15_6 Depth=1
.Lxtalabel76:
	#DEBUG_VALUE: _i.i2c_master_if._Si2c_master_0.0.write:device <- undef
	#DEBUG_VALUE: _i.i2c_master_if._Si2c_master_0.0.write:buf <- R5
	#DEBUG_VALUE: _i.i2c_master_if._Si2c_master_0.0.write:n <- R4
	#DEBUG_VALUE: _i.i2c_master_if._Si2c_master_0.0.write:send_stop_bit <- undef
	.loc	2 264 0                 # /home/evgeny/git/104/UI-01_sw1_hw1/lib_i2c/src/i2c_master.xc:264:0
	ldw r1, r8[7]
	.loc	2 264 0                 # /home/evgeny/git/104/UI-01_sw1_hw1/lib_i2c/src/i2c_master.xc:264:0
	ldw r0, r8[6]
	.loc	2 264 0                 # /home/evgeny/git/104/UI-01_sw1_hw1/lib_i2c/src/i2c_master.xc:264:0
	ld8u r2, r5[r10]
	.loc	2 264 0                 # /home/evgeny/git/104/UI-01_sw1_hw1/lib_i2c/src/i2c_master.xc:264:0
	ldw r3, r8[8]
.Ltmp514:
	#DEBUG_VALUE: fall_time <- [R6+0]
	.loc	2 264 0                 # /home/evgeny/git/104/UI-01_sw1_hw1/lib_i2c/src/i2c_master.xc:264:0
	stw r6, sp[1]
.Lxta.call_labels38:
	bl tx8
	mov r7, r0
.Ltmp515:
	#DEBUG_VALUE: ack <- R7
	.loc	2 260 0                 # /home/evgeny/git/104/UI-01_sw1_hw1/lib_i2c/src/i2c_master.xc:260:0
	add r10, r10, 1
.Ltmp516:
	#DEBUG_VALUE: j <- R10
	.loc	2 260 0                 # /home/evgeny/git/104/UI-01_sw1_hw1/lib_i2c/src/i2c_master.xc:260:0
	lsu r0, r10, r4
.Lxta.loop_labels11:
	# LOOPMARKER 0
	bt r0, .LBB15_6
.Ltmp517:
.LBB15_3:                               # %ifdone60
.Lxtalabel77:
	#DEBUG_VALUE: _i.i2c_master_if._Si2c_master_0.0.write:device <- undef
	#DEBUG_VALUE: _i.i2c_master_if._Si2c_master_0.0.write:send_stop_bit <- undef
	#DEBUG_VALUE: j <- 0
	ldw r4, sp[13]
	#DEBUG_VALUE: _i.i2c_master_if._Si2c_master_0.0.write:num_bytes_sent <- R4
	ldw r0, sp[14]
	bf r0, .LBB15_5
.Ltmp518:
# BB#4:                                 # %iftrue87
.Lxtalabel78:
	#DEBUG_VALUE: _i.i2c_master_if._Si2c_master_0.0.write:device <- undef
	#DEBUG_VALUE: j <- 0
	#DEBUG_VALUE: _i.i2c_master_if._Si2c_master_0.0.write:num_bytes_sent <- R4
	.loc	2 267 0                 # /home/evgeny/git/104/UI-01_sw1_hw1/lib_i2c/src/i2c_master.xc:267:0
	ldw r0, r8[6]
	.loc	2 267 0                 # /home/evgeny/git/104/UI-01_sw1_hw1/lib_i2c/src/i2c_master.xc:267:0
	ldw r1, r8[7]
	.loc	2 267 0                 # /home/evgeny/git/104/UI-01_sw1_hw1/lib_i2c/src/i2c_master.xc:267:0
	ldw r2, r8[8]
	ldaw r3, sp[3]
.Ltmp519:
	#DEBUG_VALUE: fall_time <- [R3+0]
	.loc	2 267 0                 # /home/evgeny/git/104/UI-01_sw1_hw1/lib_i2c/src/i2c_master.xc:267:0
.Lxta.call_labels39:
	bl stop_bit
.Ltmp520:
	mkmsk r9, 32
.Ltmp521:
.LBB15_5:                               # %ifdone88
.Lxtalabel79:
	#DEBUG_VALUE: _i.i2c_master_if._Si2c_master_0.0.write:device <- undef
	#DEBUG_VALUE: j <- 0
	#DEBUG_VALUE: _i.i2c_master_if._Si2c_master_0.0.write:num_bytes_sent <- R4
	.loc	2 270 0                 # /home/evgeny/git/104/UI-01_sw1_hw1/lib_i2c/src/i2c_master.xc:270:0
	stw r9, r8[11]
	.loc	2 272 0                 # /home/evgeny/git/104/UI-01_sw1_hw1/lib_i2c/src/i2c_master.xc:272:0
	stw r10, r4[0]
	.loc	2 273 0                 # /home/evgeny/git/104/UI-01_sw1_hw1/lib_i2c/src/i2c_master.xc:273:0
	eq r0, r7, 0
	.loc	2 276 0                 # /home/evgeny/git/104/UI-01_sw1_hw1/lib_i2c/src/i2c_master.xc:276:0
	ldw r1, sp[3]
	.loc	2 276 0                 # /home/evgeny/git/104/UI-01_sw1_hw1/lib_i2c/src/i2c_master.xc:276:0
	stw r1, r8[10]
	clre
	ldw r10, sp[10]                 # 4-byte Folded Reload
	ldd r9, r8, sp[4]               # 4-byte Folded Reload
	ldd r7, r6, sp[3]               # 4-byte Folded Reload
	ldd r5, r4, sp[2]               # 4-byte Folded Reload
.Ltmp522:
	retsp 12
	# RETURN_REG_HOLDER
.Ltmp523:
	.cc_bottom _i.i2c_master_if._Si2c_master_0.0.write.function
	.set	_i.i2c_master_if._Si2c_master_0.0.write.nstackwords,((start_bit.nstackwords $M stop_bit.nstackwords $M tx8.nstackwords) + 12)
	.globl	_i.i2c_master_if._Si2c_master_0.0.write.nstackwords
	.set	_i.i2c_master_if._Si2c_master_0.0.write.maxcores,start_bit.maxcores $M stop_bit.maxcores $M tx8.maxcores $M 1
	.globl	_i.i2c_master_if._Si2c_master_0.0.write.maxcores
	.set	_i.i2c_master_if._Si2c_master_0.0.write.maxtimers,start_bit.maxtimers $M stop_bit.maxtimers $M tx8.maxtimers $M 0
	.globl	_i.i2c_master_if._Si2c_master_0.0.write.maxtimers
	.set	_i.i2c_master_if._Si2c_master_0.0.write.maxchanends,start_bit.maxchanends $M stop_bit.maxchanends $M tx8.maxchanends $M 0
	.globl	_i.i2c_master_if._Si2c_master_0.0.write.maxchanends
.Ltmp524:
	.size	_i.i2c_master_if._Si2c_master_0.0.write, .Ltmp524-_i.i2c_master_if._Si2c_master_0.0.write
.Lfunc_end15:
	.cfi_endproc

	.weak	_i.i2c_master_if._chan.shutdown
	.align	4
	.type	_i.i2c_master_if._chan.shutdown,@function
	.cc_top _i.i2c_master_if._chan.shutdown.function,_i.i2c_master_if._chan.shutdown
_i.i2c_master_if._chan.shutdown:        # @_i.i2c_master_if._chan.shutdown
	.cfi_startproc
	.issue_mode single
# BB#0:                                 # %allocas
	ENTSP_lu6 4
.Ltmp525:
	.cfi_def_cfa_offset 16
.Ltmp526:
	.cfi_offset 15, 0
	stw r4, sp[2]                   # 4-byte Folded Spill
.Ltmp527:
	.cfi_offset 4, -8
	#DEBUG_VALUE: _i.i2c_master_if._chan.shutdown:dest <- R0
	getr r4, 2
	setd res[r4], r0
	add r0, r4, 3
	out res[r4], r0
	outct res[r4], 2
	ldc r1, 0
	mov r0, r4
	bl __interface_wait_and_yield
	in r0, res[r4]
	chkct res[r4], 1
	freer res[r4]
	ldw r4, sp[2]                   # 4-byte Folded Reload
	retsp 4
	# RETURN_REG_HOLDER
	.cc_bottom _i.i2c_master_if._chan.shutdown.function
	.set	_i.i2c_master_if._chan.shutdown.nstackwords,((_i.i2c_master_if._client_call_y.max.nstackwords $M ($D __interface_wait_and_yield.nstackwords ? __interface_wait_and_yield.nstackwords $: _i.i2c_master_if._client_call_y.max.nstackwords)) + 4)
	.globl	_i.i2c_master_if._chan.shutdown.nstackwords
	.weak	_i.i2c_master_if._chan.shutdown.nstackwords
	.set	_i.i2c_master_if._chan.shutdown.maxcores,($D __interface_wait_and_yield.maxcores ? __interface_wait_and_yield.maxcores $: _i.i2c_master_if._client_call_y.max.maxcores) $M 1
	.globl	_i.i2c_master_if._chan.shutdown.maxcores
	.weak	_i.i2c_master_if._chan.shutdown.maxcores
	.set	_i.i2c_master_if._chan.shutdown.maxtimers,($D __interface_wait_and_yield.maxtimers ? __interface_wait_and_yield.maxtimers $: _i.i2c_master_if._client_call_y.max.maxtimers) $M 0
	.globl	_i.i2c_master_if._chan.shutdown.maxtimers
	.weak	_i.i2c_master_if._chan.shutdown.maxtimers
	.set	_i.i2c_master_if._chan.shutdown.maxchanends,(1 + ($D __interface_wait_and_yield.maxchanends ? __interface_wait_and_yield.maxchanends $: _i.i2c_master_if._client_call_y.max.maxchanends)) $M 1
	.globl	_i.i2c_master_if._chan.shutdown.maxchanends
	.weak	_i.i2c_master_if._chan.shutdown.maxchanends
.Ltmp528:
	.size	_i.i2c_master_if._chan.shutdown, .Ltmp528-_i.i2c_master_if._chan.shutdown
	.cfi_endproc

	.weak	_i.i2c_master_if._chan.send_stop_bit
	.align	4
	.type	_i.i2c_master_if._chan.send_stop_bit,@function
	.cc_top _i.i2c_master_if._chan.send_stop_bit.function,_i.i2c_master_if._chan.send_stop_bit
_i.i2c_master_if._chan.send_stop_bit:   # @_i.i2c_master_if._chan.send_stop_bit
	.cfi_startproc
	.issue_mode single
# BB#0:                                 # %allocas
	ENTSP_lu6 4
.Ltmp529:
	.cfi_def_cfa_offset 16
.Ltmp530:
	.cfi_offset 15, 0
	stw r4, sp[2]                   # 4-byte Folded Spill
.Ltmp531:
	.cfi_offset 4, -8
	#DEBUG_VALUE: _i.i2c_master_if._chan.send_stop_bit:dest <- R0
	getr r4, 2
	setd res[r4], r0
	add r0, r4, 2
	out res[r4], r0
	outct res[r4], 2
	ldc r1, 0
	mov r0, r4
	bl __interface_wait_and_yield
	in r0, res[r4]
	chkct res[r4], 1
	freer res[r4]
	ldw r4, sp[2]                   # 4-byte Folded Reload
	retsp 4
	# RETURN_REG_HOLDER
	.cc_bottom _i.i2c_master_if._chan.send_stop_bit.function
	.set	_i.i2c_master_if._chan.send_stop_bit.nstackwords,((_i.i2c_master_if._client_call_y.max.nstackwords $M ($D __interface_wait_and_yield.nstackwords ? __interface_wait_and_yield.nstackwords $: _i.i2c_master_if._client_call_y.max.nstackwords)) + 4)
	.globl	_i.i2c_master_if._chan.send_stop_bit.nstackwords
	.weak	_i.i2c_master_if._chan.send_stop_bit.nstackwords
	.set	_i.i2c_master_if._chan.send_stop_bit.maxcores,($D __interface_wait_and_yield.maxcores ? __interface_wait_and_yield.maxcores $: _i.i2c_master_if._client_call_y.max.maxcores) $M 1
	.globl	_i.i2c_master_if._chan.send_stop_bit.maxcores
	.weak	_i.i2c_master_if._chan.send_stop_bit.maxcores
	.set	_i.i2c_master_if._chan.send_stop_bit.maxtimers,($D __interface_wait_and_yield.maxtimers ? __interface_wait_and_yield.maxtimers $: _i.i2c_master_if._client_call_y.max.maxtimers) $M 0
	.globl	_i.i2c_master_if._chan.send_stop_bit.maxtimers
	.weak	_i.i2c_master_if._chan.send_stop_bit.maxtimers
	.set	_i.i2c_master_if._chan.send_stop_bit.maxchanends,(1 + ($D __interface_wait_and_yield.maxchanends ? __interface_wait_and_yield.maxchanends $: _i.i2c_master_if._client_call_y.max.maxchanends)) $M 1
	.globl	_i.i2c_master_if._chan.send_stop_bit.maxchanends
	.weak	_i.i2c_master_if._chan.send_stop_bit.maxchanends
.Ltmp532:
	.size	_i.i2c_master_if._chan.send_stop_bit, .Ltmp532-_i.i2c_master_if._chan.send_stop_bit
	.cfi_endproc

	.weak	_i.i2c_master_if._chan.read
	.align	4
	.type	_i.i2c_master_if._chan.read,@function
	.cc_top _i.i2c_master_if._chan.read.function,_i.i2c_master_if._chan.read
_i.i2c_master_if._chan.read:            # @_i.i2c_master_if._chan.read
	.cfi_startproc
	.issue_mode single
# BB#0:                                 # %allocas
	ENTSP_lu6 8
.Ltmp533:
	.cfi_def_cfa_offset 32
.Ltmp534:
	.cfi_offset 15, 0
	std r5, r4, sp[1]               # 4-byte Folded Spill
.Ltmp535:
	.cfi_offset 4, -24
.Ltmp536:
	.cfi_offset 5, -20
	std r7, r6, sp[2]               # 4-byte Folded Spill
.Ltmp537:
	.cfi_offset 6, -16
.Ltmp538:
	.cfi_offset 7, -12
	stw r8, sp[6]                   # 4-byte Folded Spill
.Ltmp539:
	.cfi_offset 8, -8
	#DEBUG_VALUE: _i.i2c_master_if._chan.read:dest <- R0
	#DEBUG_VALUE: _i.i2c_master_if._chan.read:param1 <- R1
	#DEBUG_VALUE: _i.i2c_master_if._chan.read:param2 <- R2
	#DEBUG_VALUE: _i.i2c_master_if._chan.read:param3 <- R3
	#DEBUG_VALUE: _i.i2c_master_if._chan.read:param4 <- [SP+36]
	mov r5, r3
	#DEBUG_VALUE: _i.i2c_master_if._chan.read:param3 <- R5
	mov r6, r2
	#DEBUG_VALUE: _i.i2c_master_if._chan.read:param2 <- R6
	mov r7, r1
	#DEBUG_VALUE: _i.i2c_master_if._chan.read:param1 <- R7
	ldw r8, sp[9]
	getr r4, 2
	setd res[r4], r0
	add r0, r4, 1
	out res[r4], r0
	outct res[r4], 2
	ldc r1, 0
	mov r0, r4
	bl __interface_wait_and_yield
	chkct res[r4], 1
	outt res[r4], r7
	stw r6, sp[1]
	out res[r4], r5
	out res[r4], r8
	outct res[r4], 2
	ldaw r1, sp[1]
	mov r0, r4
	bl __interface_client_call
	in r0, res[r4]
	chkct res[r4], 1
	freer res[r4]
	ldw r8, sp[6]                   # 4-byte Folded Reload
	ldd r7, r6, sp[2]               # 4-byte Folded Reload
	ldd r5, r4, sp[1]               # 4-byte Folded Reload
	retsp 8
	# RETURN_REG_HOLDER
	.cc_bottom _i.i2c_master_if._chan.read.function
	.set	_i.i2c_master_if._chan.read.nstackwords,((_i.i2c_master_if._client_call_y.max.nstackwords $M ($D __interface_wait_and_yield.nstackwords ? __interface_wait_and_yield.nstackwords $: _i.i2c_master_if._client_call_y.max.nstackwords) $M __interface_client_call.nstackwords) + 8)
	.globl	_i.i2c_master_if._chan.read.nstackwords
	.weak	_i.i2c_master_if._chan.read.nstackwords
	.set	_i.i2c_master_if._chan.read.maxcores,__interface_client_call.maxcores $M ($D __interface_wait_and_yield.maxcores ? __interface_wait_and_yield.maxcores $: _i.i2c_master_if._client_call_y.max.maxcores) $M 1
	.globl	_i.i2c_master_if._chan.read.maxcores
	.weak	_i.i2c_master_if._chan.read.maxcores
	.set	_i.i2c_master_if._chan.read.maxtimers,__interface_client_call.maxtimers $M ($D __interface_wait_and_yield.maxtimers ? __interface_wait_and_yield.maxtimers $: _i.i2c_master_if._client_call_y.max.maxtimers) $M 0
	.globl	_i.i2c_master_if._chan.read.maxtimers
	.weak	_i.i2c_master_if._chan.read.maxtimers
	.set	_i.i2c_master_if._chan.read.maxchanends,(1 + __interface_client_call.maxchanends) $M (1 + ($D __interface_wait_and_yield.maxchanends ? __interface_wait_and_yield.maxchanends $: _i.i2c_master_if._client_call_y.max.maxchanends)) $M 1
	.globl	_i.i2c_master_if._chan.read.maxchanends
	.weak	_i.i2c_master_if._chan.read.maxchanends
.Ltmp540:
	.size	_i.i2c_master_if._chan.read, .Ltmp540-_i.i2c_master_if._chan.read
	.cfi_endproc

	.weak	_i.i2c_master_if._chan.write
	.align	4
	.type	_i.i2c_master_if._chan.write,@function
	.cc_top _i.i2c_master_if._chan.write.function,_i.i2c_master_if._chan.write
_i.i2c_master_if._chan.write:           # @_i.i2c_master_if._chan.write
	.cfi_startproc
	.issue_mode single
# BB#0:                                 # %allocas
	ENTSP_lu6 8
.Ltmp541:
	.cfi_def_cfa_offset 32
.Ltmp542:
	.cfi_offset 15, 0
	std r5, r4, sp[1]               # 4-byte Folded Spill
.Ltmp543:
	.cfi_offset 4, -24
.Ltmp544:
	.cfi_offset 5, -20
	std r7, r6, sp[2]               # 4-byte Folded Spill
.Ltmp545:
	.cfi_offset 6, -16
.Ltmp546:
	.cfi_offset 7, -12
	std r9, r8, sp[3]               # 4-byte Folded Spill
.Ltmp547:
	.cfi_offset 8, -8
.Ltmp548:
	.cfi_offset 9, -4
	#DEBUG_VALUE: _i.i2c_master_if._chan.write:dest <- R0
	#DEBUG_VALUE: _i.i2c_master_if._chan.write:param1 <- R1
	#DEBUG_VALUE: _i.i2c_master_if._chan.write:param2 <- R2
	#DEBUG_VALUE: _i.i2c_master_if._chan.write:param3 <- R3
	#DEBUG_VALUE: _i.i2c_master_if._chan.write:param4 <- [SP+36]
	#DEBUG_VALUE: _i.i2c_master_if._chan.write:param5 <- [SP+40]
	mov r5, r3
	#DEBUG_VALUE: _i.i2c_master_if._chan.write:param3 <- R5
	mov r6, r2
	#DEBUG_VALUE: _i.i2c_master_if._chan.write:param2 <- R6
	mov r7, r1
	#DEBUG_VALUE: _i.i2c_master_if._chan.write:param1 <- R7
	ldw r9, sp[10]
	ldw r8, sp[9]
	getr r4, 2
	setd res[r4], r0
	out res[r4], r4
	outct res[r4], 2
	ldc r1, 0
	mov r0, r4
	bl __interface_wait_and_yield
	chkct res[r4], 1
	outt res[r4], r7
	stw r6, sp[1]
	out res[r4], r5
	ldw r0, r8[0]
	out res[r4], r0
	out res[r4], r9
	outct res[r4], 2
	ldaw r1, sp[1]
	mov r0, r4
	bl __interface_client_call
	in r0, res[r4]
	stw r0, r8[0]
	in r0, res[r4]
	chkct res[r4], 1
	freer res[r4]
	ldd r9, r8, sp[3]               # 4-byte Folded Reload
	ldd r7, r6, sp[2]               # 4-byte Folded Reload
	ldd r5, r4, sp[1]               # 4-byte Folded Reload
	retsp 8
	# RETURN_REG_HOLDER
	.cc_bottom _i.i2c_master_if._chan.write.function
	.set	_i.i2c_master_if._chan.write.nstackwords,((_i.i2c_master_if._client_call_y.max.nstackwords $M ($D __interface_wait_and_yield.nstackwords ? __interface_wait_and_yield.nstackwords $: _i.i2c_master_if._client_call_y.max.nstackwords) $M __interface_client_call.nstackwords) + 8)
	.globl	_i.i2c_master_if._chan.write.nstackwords
	.weak	_i.i2c_master_if._chan.write.nstackwords
	.set	_i.i2c_master_if._chan.write.maxcores,__interface_client_call.maxcores $M ($D __interface_wait_and_yield.maxcores ? __interface_wait_and_yield.maxcores $: _i.i2c_master_if._client_call_y.max.maxcores) $M 1
	.globl	_i.i2c_master_if._chan.write.maxcores
	.weak	_i.i2c_master_if._chan.write.maxcores
	.set	_i.i2c_master_if._chan.write.maxtimers,__interface_client_call.maxtimers $M ($D __interface_wait_and_yield.maxtimers ? __interface_wait_and_yield.maxtimers $: _i.i2c_master_if._client_call_y.max.maxtimers) $M 0
	.globl	_i.i2c_master_if._chan.write.maxtimers
	.weak	_i.i2c_master_if._chan.write.maxtimers
	.set	_i.i2c_master_if._chan.write.maxchanends,(1 + __interface_client_call.maxchanends) $M (1 + ($D __interface_wait_and_yield.maxchanends ? __interface_wait_and_yield.maxchanends $: _i.i2c_master_if._client_call_y.max.maxchanends)) $M 1
	.globl	_i.i2c_master_if._chan.write.maxchanends
	.weak	_i.i2c_master_if._chan.write.maxchanends
.Ltmp549:
	.size	_i.i2c_master_if._chan.write, .Ltmp549-_i.i2c_master_if._chan.write
	.cfi_endproc

	.weak	_i.i2c_master_if._chan_yield.shutdown
	.align	4
	.type	_i.i2c_master_if._chan_yield.shutdown,@function
	.cc_top _i.i2c_master_if._chan_yield.shutdown.function,_i.i2c_master_if._chan_yield.shutdown
_i.i2c_master_if._chan_yield.shutdown:  # @_i.i2c_master_if._chan_yield.shutdown
	.cfi_startproc
	.issue_mode single
# BB#0:                                 # %allocas
	ENTSP_lu6 4
.Ltmp550:
	.cfi_def_cfa_offset 16
.Ltmp551:
	.cfi_offset 15, 0
	std r5, r4, sp[1]               # 4-byte Folded Spill
.Ltmp552:
	.cfi_offset 4, -8
.Ltmp553:
	.cfi_offset 5, -4
	#DEBUG_VALUE: _i.i2c_master_if._chan_yield.shutdown:s <- R0
	ldw r1, r0[0]
	getr r4, 2
	setd res[r4], r1
	add r1, r4, 3
	out res[r4], r1
	outct res[r4], 2
	ldw r5, r0[1]
	mov r0, r4
	mov r1, r5
	bl __interface_wait_and_yield
	ldc r1, 0
	mov r0, r4
	mov r2, r5
	bl __interface_client_call_y
	chkct res[r4], 1
	freer res[r4]
	ldd r5, r4, sp[1]               # 4-byte Folded Reload
	retsp 4
	# RETURN_REG_HOLDER
	.cc_bottom _i.i2c_master_if._chan_yield.shutdown.function
	.set	_i.i2c_master_if._chan_yield.shutdown.nstackwords,((($D __interface_wait_and_yield.nstackwords ? __interface_wait_and_yield.nstackwords $: _i.i2c_master_if._client_call_y.max.nstackwords) $M _i.i2c_master_if._client_call_y.max.nstackwords $M ($D __interface_client_call_y.nstackwords ? __interface_client_call_y.nstackwords $: _i.i2c_master_if._client_call_y.max.nstackwords)) + 4)
	.globl	_i.i2c_master_if._chan_yield.shutdown.nstackwords
	.weak	_i.i2c_master_if._chan_yield.shutdown.nstackwords
	.set	_i.i2c_master_if._chan_yield.shutdown.maxcores,($D __interface_client_call_y.maxcores ? __interface_client_call_y.maxcores $: _i.i2c_master_if._client_call_y.max.maxcores) $M ($D __interface_wait_and_yield.maxcores ? __interface_wait_and_yield.maxcores $: _i.i2c_master_if._client_call_y.max.maxcores) $M 1
	.globl	_i.i2c_master_if._chan_yield.shutdown.maxcores
	.weak	_i.i2c_master_if._chan_yield.shutdown.maxcores
	.set	_i.i2c_master_if._chan_yield.shutdown.maxtimers,($D __interface_client_call_y.maxtimers ? __interface_client_call_y.maxtimers $: _i.i2c_master_if._client_call_y.max.maxtimers) $M ($D __interface_wait_and_yield.maxtimers ? __interface_wait_and_yield.maxtimers $: _i.i2c_master_if._client_call_y.max.maxtimers) $M 0
	.globl	_i.i2c_master_if._chan_yield.shutdown.maxtimers
	.weak	_i.i2c_master_if._chan_yield.shutdown.maxtimers
	.set	_i.i2c_master_if._chan_yield.shutdown.maxchanends,(1 + ($D __interface_client_call_y.maxchanends ? __interface_client_call_y.maxchanends $: _i.i2c_master_if._client_call_y.max.maxchanends)) $M (1 + ($D __interface_wait_and_yield.maxchanends ? __interface_wait_and_yield.maxchanends $: _i.i2c_master_if._client_call_y.max.maxchanends)) $M 1
	.globl	_i.i2c_master_if._chan_yield.shutdown.maxchanends
	.weak	_i.i2c_master_if._chan_yield.shutdown.maxchanends
.Ltmp554:
	.size	_i.i2c_master_if._chan_yield.shutdown, .Ltmp554-_i.i2c_master_if._chan_yield.shutdown
	.cfi_endproc

	.weak	_i.i2c_master_if._chan_yield.send_stop_bit
	.align	4
	.type	_i.i2c_master_if._chan_yield.send_stop_bit,@function
	.cc_top _i.i2c_master_if._chan_yield.send_stop_bit.function,_i.i2c_master_if._chan_yield.send_stop_bit
_i.i2c_master_if._chan_yield.send_stop_bit: # @_i.i2c_master_if._chan_yield.send_stop_bit
	.cfi_startproc
	.issue_mode single
# BB#0:                                 # %allocas
	ENTSP_lu6 4
.Ltmp555:
	.cfi_def_cfa_offset 16
.Ltmp556:
	.cfi_offset 15, 0
	std r5, r4, sp[1]               # 4-byte Folded Spill
.Ltmp557:
	.cfi_offset 4, -8
.Ltmp558:
	.cfi_offset 5, -4
	#DEBUG_VALUE: _i.i2c_master_if._chan_yield.send_stop_bit:s <- R0
	ldw r1, r0[0]
	getr r4, 2
	setd res[r4], r1
	add r1, r4, 2
	out res[r4], r1
	outct res[r4], 2
	ldw r5, r0[1]
	mov r0, r4
	mov r1, r5
	bl __interface_wait_and_yield
	ldc r1, 0
	mov r0, r4
	mov r2, r5
	bl __interface_client_call_y
	chkct res[r4], 1
	freer res[r4]
	ldd r5, r4, sp[1]               # 4-byte Folded Reload
	retsp 4
	# RETURN_REG_HOLDER
	.cc_bottom _i.i2c_master_if._chan_yield.send_stop_bit.function
	.set	_i.i2c_master_if._chan_yield.send_stop_bit.nstackwords,((($D __interface_wait_and_yield.nstackwords ? __interface_wait_and_yield.nstackwords $: _i.i2c_master_if._client_call_y.max.nstackwords) $M _i.i2c_master_if._client_call_y.max.nstackwords $M ($D __interface_client_call_y.nstackwords ? __interface_client_call_y.nstackwords $: _i.i2c_master_if._client_call_y.max.nstackwords)) + 4)
	.globl	_i.i2c_master_if._chan_yield.send_stop_bit.nstackwords
	.weak	_i.i2c_master_if._chan_yield.send_stop_bit.nstackwords
	.set	_i.i2c_master_if._chan_yield.send_stop_bit.maxcores,($D __interface_client_call_y.maxcores ? __interface_client_call_y.maxcores $: _i.i2c_master_if._client_call_y.max.maxcores) $M ($D __interface_wait_and_yield.maxcores ? __interface_wait_and_yield.maxcores $: _i.i2c_master_if._client_call_y.max.maxcores) $M 1
	.globl	_i.i2c_master_if._chan_yield.send_stop_bit.maxcores
	.weak	_i.i2c_master_if._chan_yield.send_stop_bit.maxcores
	.set	_i.i2c_master_if._chan_yield.send_stop_bit.maxtimers,($D __interface_client_call_y.maxtimers ? __interface_client_call_y.maxtimers $: _i.i2c_master_if._client_call_y.max.maxtimers) $M ($D __interface_wait_and_yield.maxtimers ? __interface_wait_and_yield.maxtimers $: _i.i2c_master_if._client_call_y.max.maxtimers) $M 0
	.globl	_i.i2c_master_if._chan_yield.send_stop_bit.maxtimers
	.weak	_i.i2c_master_if._chan_yield.send_stop_bit.maxtimers
	.set	_i.i2c_master_if._chan_yield.send_stop_bit.maxchanends,(1 + ($D __interface_client_call_y.maxchanends ? __interface_client_call_y.maxchanends $: _i.i2c_master_if._client_call_y.max.maxchanends)) $M (1 + ($D __interface_wait_and_yield.maxchanends ? __interface_wait_and_yield.maxchanends $: _i.i2c_master_if._client_call_y.max.maxchanends)) $M 1
	.globl	_i.i2c_master_if._chan_yield.send_stop_bit.maxchanends
	.weak	_i.i2c_master_if._chan_yield.send_stop_bit.maxchanends
.Ltmp559:
	.size	_i.i2c_master_if._chan_yield.send_stop_bit, .Ltmp559-_i.i2c_master_if._chan_yield.send_stop_bit
	.cfi_endproc

	.weak	_i.i2c_master_if._chan_yield.read
	.align	4
	.type	_i.i2c_master_if._chan_yield.read,@function
	.cc_top _i.i2c_master_if._chan_yield.read.function,_i.i2c_master_if._chan_yield.read
_i.i2c_master_if._chan_yield.read:      # @_i.i2c_master_if._chan_yield.read
	.cfi_startproc
	.issue_mode single
# BB#0:                                 # %allocas
	ENTSP_lu6 8
.Ltmp560:
	.cfi_def_cfa_offset 32
.Ltmp561:
	.cfi_offset 15, 0
	std r5, r4, sp[1]               # 4-byte Folded Spill
.Ltmp562:
	.cfi_offset 4, -24
.Ltmp563:
	.cfi_offset 5, -20
	std r7, r6, sp[2]               # 4-byte Folded Spill
.Ltmp564:
	.cfi_offset 6, -16
.Ltmp565:
	.cfi_offset 7, -12
	std r9, r8, sp[3]               # 4-byte Folded Spill
.Ltmp566:
	.cfi_offset 8, -8
.Ltmp567:
	.cfi_offset 9, -4
	#DEBUG_VALUE: _i.i2c_master_if._chan_yield.read:s <- R0
	#DEBUG_VALUE: _i.i2c_master_if._chan_yield.read:param1 <- R1
	#DEBUG_VALUE: _i.i2c_master_if._chan_yield.read:param2 <- R2
	#DEBUG_VALUE: _i.i2c_master_if._chan_yield.read:param3 <- R3
	#DEBUG_VALUE: _i.i2c_master_if._chan_yield.read:param4 <- [SP+36]
	mov r5, r3
	#DEBUG_VALUE: _i.i2c_master_if._chan_yield.read:param3 <- R5
	mov r6, r2
	#DEBUG_VALUE: _i.i2c_master_if._chan_yield.read:param2 <- R6
	mov r7, r1
	#DEBUG_VALUE: _i.i2c_master_if._chan_yield.read:param1 <- R7
	ldw r9, sp[9]
	ldw r1, r0[0]
	getr r4, 2
	setd res[r4], r1
	add r1, r4, 1
	out res[r4], r1
	outct res[r4], 2
	ldw r8, r0[1]
	mov r0, r4
	mov r1, r8
	bl __interface_wait_and_yield
	chkct res[r4], 1
	outt res[r4], r7
	stw r6, sp[1]
	out res[r4], r5
	out res[r4], r9
	outct res[r4], 2
	ldaw r1, sp[1]
	mov r0, r4
	mov r2, r8
	bl __interface_client_call_y
	in r0, res[r4]
	chkct res[r4], 1
	freer res[r4]
	ldd r9, r8, sp[3]               # 4-byte Folded Reload
	ldd r7, r6, sp[2]               # 4-byte Folded Reload
	ldd r5, r4, sp[1]               # 4-byte Folded Reload
	retsp 8
	# RETURN_REG_HOLDER
	.cc_bottom _i.i2c_master_if._chan_yield.read.function
	.set	_i.i2c_master_if._chan_yield.read.nstackwords,((($D __interface_wait_and_yield.nstackwords ? __interface_wait_and_yield.nstackwords $: _i.i2c_master_if._client_call_y.max.nstackwords) $M _i.i2c_master_if._client_call_y.max.nstackwords $M ($D __interface_client_call_y.nstackwords ? __interface_client_call_y.nstackwords $: _i.i2c_master_if._client_call_y.max.nstackwords)) + 8)
	.globl	_i.i2c_master_if._chan_yield.read.nstackwords
	.weak	_i.i2c_master_if._chan_yield.read.nstackwords
	.set	_i.i2c_master_if._chan_yield.read.maxcores,($D __interface_client_call_y.maxcores ? __interface_client_call_y.maxcores $: _i.i2c_master_if._client_call_y.max.maxcores) $M ($D __interface_wait_and_yield.maxcores ? __interface_wait_and_yield.maxcores $: _i.i2c_master_if._client_call_y.max.maxcores) $M 1
	.globl	_i.i2c_master_if._chan_yield.read.maxcores
	.weak	_i.i2c_master_if._chan_yield.read.maxcores
	.set	_i.i2c_master_if._chan_yield.read.maxtimers,($D __interface_client_call_y.maxtimers ? __interface_client_call_y.maxtimers $: _i.i2c_master_if._client_call_y.max.maxtimers) $M ($D __interface_wait_and_yield.maxtimers ? __interface_wait_and_yield.maxtimers $: _i.i2c_master_if._client_call_y.max.maxtimers) $M 0
	.globl	_i.i2c_master_if._chan_yield.read.maxtimers
	.weak	_i.i2c_master_if._chan_yield.read.maxtimers
	.set	_i.i2c_master_if._chan_yield.read.maxchanends,(1 + ($D __interface_client_call_y.maxchanends ? __interface_client_call_y.maxchanends $: _i.i2c_master_if._client_call_y.max.maxchanends)) $M (1 + ($D __interface_wait_and_yield.maxchanends ? __interface_wait_and_yield.maxchanends $: _i.i2c_master_if._client_call_y.max.maxchanends)) $M 1
	.globl	_i.i2c_master_if._chan_yield.read.maxchanends
	.weak	_i.i2c_master_if._chan_yield.read.maxchanends
.Ltmp568:
	.size	_i.i2c_master_if._chan_yield.read, .Ltmp568-_i.i2c_master_if._chan_yield.read
	.cfi_endproc

	.weak	_i.i2c_master_if._chan_yield.write
	.align	4
	.type	_i.i2c_master_if._chan_yield.write,@function
	.cc_top _i.i2c_master_if._chan_yield.write.function,_i.i2c_master_if._chan_yield.write
_i.i2c_master_if._chan_yield.write:     # @_i.i2c_master_if._chan_yield.write
	.cfi_startproc
	.issue_mode single
# BB#0:                                 # %allocas
	ENTSP_lu6 10
.Ltmp569:
	.cfi_def_cfa_offset 40
.Ltmp570:
	.cfi_offset 15, 0
	std r5, r4, sp[1]               # 4-byte Folded Spill
.Ltmp571:
	.cfi_offset 4, -32
.Ltmp572:
	.cfi_offset 5, -28
	std r7, r6, sp[2]               # 4-byte Folded Spill
.Ltmp573:
	.cfi_offset 6, -24
.Ltmp574:
	.cfi_offset 7, -20
	std r9, r8, sp[3]               # 4-byte Folded Spill
.Ltmp575:
	.cfi_offset 8, -16
.Ltmp576:
	.cfi_offset 9, -12
	stw r10, sp[8]                  # 4-byte Folded Spill
.Ltmp577:
	.cfi_offset 10, -8
	#DEBUG_VALUE: _i.i2c_master_if._chan_yield.write:s <- R0
	#DEBUG_VALUE: _i.i2c_master_if._chan_yield.write:param1 <- R1
	#DEBUG_VALUE: _i.i2c_master_if._chan_yield.write:param2 <- R2
	#DEBUG_VALUE: _i.i2c_master_if._chan_yield.write:param3 <- R3
	#DEBUG_VALUE: _i.i2c_master_if._chan_yield.write:param4 <- [SP+44]
	#DEBUG_VALUE: _i.i2c_master_if._chan_yield.write:param5 <- [SP+48]
	mov r5, r3
	#DEBUG_VALUE: _i.i2c_master_if._chan_yield.write:param3 <- R5
	mov r6, r2
	#DEBUG_VALUE: _i.i2c_master_if._chan_yield.write:param2 <- R6
	mov r7, r1
	#DEBUG_VALUE: _i.i2c_master_if._chan_yield.write:param1 <- R7
	ldw r10, sp[12]
	ldw r9, sp[11]
	ldw r1, r0[0]
	getr r4, 2
	setd res[r4], r1
	out res[r4], r4
	outct res[r4], 2
	ldw r8, r0[1]
	mov r0, r4
	mov r1, r8
	bl __interface_wait_and_yield
	chkct res[r4], 1
	outt res[r4], r7
	stw r6, sp[1]
	out res[r4], r5
	ldw r0, r9[0]
	out res[r4], r0
	out res[r4], r10
	outct res[r4], 2
	ldaw r1, sp[1]
	mov r0, r4
	mov r2, r8
	bl __interface_client_call_y
	in r0, res[r4]
	stw r0, r9[0]
	in r0, res[r4]
	chkct res[r4], 1
	freer res[r4]
	ldw r10, sp[8]                  # 4-byte Folded Reload
	ldd r9, r8, sp[3]               # 4-byte Folded Reload
	ldd r7, r6, sp[2]               # 4-byte Folded Reload
	ldd r5, r4, sp[1]               # 4-byte Folded Reload
	retsp 10
	# RETURN_REG_HOLDER
	.cc_bottom _i.i2c_master_if._chan_yield.write.function
	.set	_i.i2c_master_if._chan_yield.write.nstackwords,((($D __interface_wait_and_yield.nstackwords ? __interface_wait_and_yield.nstackwords $: _i.i2c_master_if._client_call_y.max.nstackwords) $M _i.i2c_master_if._client_call_y.max.nstackwords $M ($D __interface_client_call_y.nstackwords ? __interface_client_call_y.nstackwords $: _i.i2c_master_if._client_call_y.max.nstackwords)) + 10)
	.globl	_i.i2c_master_if._chan_yield.write.nstackwords
	.weak	_i.i2c_master_if._chan_yield.write.nstackwords
	.set	_i.i2c_master_if._chan_yield.write.maxcores,($D __interface_client_call_y.maxcores ? __interface_client_call_y.maxcores $: _i.i2c_master_if._client_call_y.max.maxcores) $M ($D __interface_wait_and_yield.maxcores ? __interface_wait_and_yield.maxcores $: _i.i2c_master_if._client_call_y.max.maxcores) $M 1
	.globl	_i.i2c_master_if._chan_yield.write.maxcores
	.weak	_i.i2c_master_if._chan_yield.write.maxcores
	.set	_i.i2c_master_if._chan_yield.write.maxtimers,($D __interface_client_call_y.maxtimers ? __interface_client_call_y.maxtimers $: _i.i2c_master_if._client_call_y.max.maxtimers) $M ($D __interface_wait_and_yield.maxtimers ? __interface_wait_and_yield.maxtimers $: _i.i2c_master_if._client_call_y.max.maxtimers) $M 0
	.globl	_i.i2c_master_if._chan_yield.write.maxtimers
	.weak	_i.i2c_master_if._chan_yield.write.maxtimers
	.set	_i.i2c_master_if._chan_yield.write.maxchanends,(1 + ($D __interface_client_call_y.maxchanends ? __interface_client_call_y.maxchanends $: _i.i2c_master_if._client_call_y.max.maxchanends)) $M (1 + ($D __interface_wait_and_yield.maxchanends ? __interface_wait_and_yield.maxchanends $: _i.i2c_master_if._client_call_y.max.maxchanends)) $M 1
	.globl	_i.i2c_master_if._chan_yield.write.maxchanends
	.weak	_i.i2c_master_if._chan_yield.write.maxchanends
.Ltmp578:
	.size	_i.i2c_master_if._chan_yield.write, .Ltmp578-_i.i2c_master_if._chan_yield.write
	.cfi_endproc

	.weak	_i.i2c_master_async_if._chan.shutdown
	.align	4
	.type	_i.i2c_master_async_if._chan.shutdown,@function
	.cc_top _i.i2c_master_async_if._chan.shutdown.function,_i.i2c_master_async_if._chan.shutdown
_i.i2c_master_async_if._chan.shutdown:  # @_i.i2c_master_async_if._chan.shutdown
	.cfi_startproc
	.issue_mode single
# BB#0:                                 # %allocas
	ENTSP_lu6 4
.Ltmp579:
	.cfi_def_cfa_offset 16
.Ltmp580:
	.cfi_offset 15, 0
	stw r4, sp[2]                   # 4-byte Folded Spill
.Ltmp581:
	.cfi_offset 4, -8
	#DEBUG_VALUE: _i.i2c_master_async_if._chan.shutdown:dest <- R0
	getr r4, 2
	setd res[r4], r0
	add r0, r4, 5
	out res[r4], r0
	outct res[r4], 2
	ldc r1, 0
	mov r0, r4
	bl __interface_wait_and_yield
	in r0, res[r4]
	chkct res[r4], 1
	freer res[r4]
	ldw r4, sp[2]                   # 4-byte Folded Reload
	retsp 4
	# RETURN_REG_HOLDER
	.cc_bottom _i.i2c_master_async_if._chan.shutdown.function
	.set	_i.i2c_master_async_if._chan.shutdown.nstackwords,((_i.i2c_master_async_if._client_call_y.max.nstackwords $M ($D __interface_wait_and_yield.nstackwords ? __interface_wait_and_yield.nstackwords $: _i.i2c_master_async_if._client_call_y.max.nstackwords)) + 4)
	.globl	_i.i2c_master_async_if._chan.shutdown.nstackwords
	.weak	_i.i2c_master_async_if._chan.shutdown.nstackwords
	.set	_i.i2c_master_async_if._chan.shutdown.maxcores,($D __interface_wait_and_yield.maxcores ? __interface_wait_and_yield.maxcores $: _i.i2c_master_async_if._client_call_y.max.maxcores) $M 1
	.globl	_i.i2c_master_async_if._chan.shutdown.maxcores
	.weak	_i.i2c_master_async_if._chan.shutdown.maxcores
	.set	_i.i2c_master_async_if._chan.shutdown.maxtimers,($D __interface_wait_and_yield.maxtimers ? __interface_wait_and_yield.maxtimers $: _i.i2c_master_async_if._client_call_y.max.maxtimers) $M 0
	.globl	_i.i2c_master_async_if._chan.shutdown.maxtimers
	.weak	_i.i2c_master_async_if._chan.shutdown.maxtimers
	.set	_i.i2c_master_async_if._chan.shutdown.maxchanends,(1 + ($D __interface_wait_and_yield.maxchanends ? __interface_wait_and_yield.maxchanends $: _i.i2c_master_async_if._client_call_y.max.maxchanends)) $M 1
	.globl	_i.i2c_master_async_if._chan.shutdown.maxchanends
	.weak	_i.i2c_master_async_if._chan.shutdown.maxchanends
.Ltmp582:
	.size	_i.i2c_master_async_if._chan.shutdown, .Ltmp582-_i.i2c_master_async_if._chan.shutdown
	.cfi_endproc

	.weak	_i.i2c_master_async_if._chan.send_stop_bit
	.align	4
	.type	_i.i2c_master_async_if._chan.send_stop_bit,@function
	.cc_top _i.i2c_master_async_if._chan.send_stop_bit.function,_i.i2c_master_async_if._chan.send_stop_bit
_i.i2c_master_async_if._chan.send_stop_bit: # @_i.i2c_master_async_if._chan.send_stop_bit
	.cfi_startproc
	.issue_mode single
# BB#0:                                 # %allocas
	ENTSP_lu6 4
.Ltmp583:
	.cfi_def_cfa_offset 16
.Ltmp584:
	.cfi_offset 15, 0
	stw r4, sp[2]                   # 4-byte Folded Spill
.Ltmp585:
	.cfi_offset 4, -8
	#DEBUG_VALUE: _i.i2c_master_async_if._chan.send_stop_bit:dest <- R0
	getr r4, 2
	setd res[r4], r0
	add r0, r4, 4
	out res[r4], r0
	outct res[r4], 2
	ldc r1, 0
	mov r0, r4
	bl __interface_wait_and_yield
	in r0, res[r4]
	chkct res[r4], 1
	freer res[r4]
	ldw r4, sp[2]                   # 4-byte Folded Reload
	retsp 4
	# RETURN_REG_HOLDER
	.cc_bottom _i.i2c_master_async_if._chan.send_stop_bit.function
	.set	_i.i2c_master_async_if._chan.send_stop_bit.nstackwords,((_i.i2c_master_async_if._client_call_y.max.nstackwords $M ($D __interface_wait_and_yield.nstackwords ? __interface_wait_and_yield.nstackwords $: _i.i2c_master_async_if._client_call_y.max.nstackwords)) + 4)
	.globl	_i.i2c_master_async_if._chan.send_stop_bit.nstackwords
	.weak	_i.i2c_master_async_if._chan.send_stop_bit.nstackwords
	.set	_i.i2c_master_async_if._chan.send_stop_bit.maxcores,($D __interface_wait_and_yield.maxcores ? __interface_wait_and_yield.maxcores $: _i.i2c_master_async_if._client_call_y.max.maxcores) $M 1
	.globl	_i.i2c_master_async_if._chan.send_stop_bit.maxcores
	.weak	_i.i2c_master_async_if._chan.send_stop_bit.maxcores
	.set	_i.i2c_master_async_if._chan.send_stop_bit.maxtimers,($D __interface_wait_and_yield.maxtimers ? __interface_wait_and_yield.maxtimers $: _i.i2c_master_async_if._client_call_y.max.maxtimers) $M 0
	.globl	_i.i2c_master_async_if._chan.send_stop_bit.maxtimers
	.weak	_i.i2c_master_async_if._chan.send_stop_bit.maxtimers
	.set	_i.i2c_master_async_if._chan.send_stop_bit.maxchanends,(1 + ($D __interface_wait_and_yield.maxchanends ? __interface_wait_and_yield.maxchanends $: _i.i2c_master_async_if._client_call_y.max.maxchanends)) $M 1
	.globl	_i.i2c_master_async_if._chan.send_stop_bit.maxchanends
	.weak	_i.i2c_master_async_if._chan.send_stop_bit.maxchanends
.Ltmp586:
	.size	_i.i2c_master_async_if._chan.send_stop_bit, .Ltmp586-_i.i2c_master_async_if._chan.send_stop_bit
	.cfi_endproc

	.weak	_i.i2c_master_async_if._chan.get_read_data
	.align	4
	.type	_i.i2c_master_async_if._chan.get_read_data,@function
	.cc_top _i.i2c_master_async_if._chan.get_read_data.function,_i.i2c_master_async_if._chan.get_read_data
_i.i2c_master_async_if._chan.get_read_data: # @_i.i2c_master_async_if._chan.get_read_data
	.cfi_startproc
	.issue_mode single
# BB#0:                                 # %allocas
	ENTSP_lu6 6
.Ltmp587:
	.cfi_def_cfa_offset 24
.Ltmp588:
	.cfi_offset 15, 0
	std r5, r4, sp[1]               # 4-byte Folded Spill
.Ltmp589:
	.cfi_offset 4, -16
.Ltmp590:
	.cfi_offset 5, -12
	std r7, r6, sp[2]               # 4-byte Folded Spill
.Ltmp591:
	.cfi_offset 6, -8
.Ltmp592:
	.cfi_offset 7, -4
	#DEBUG_VALUE: _i.i2c_master_async_if._chan.get_read_data:dest <- R0
	#DEBUG_VALUE: _i.i2c_master_async_if._chan.get_read_data:clientNotifyFlag <- R1
	#DEBUG_VALUE: _i.i2c_master_async_if._chan.get_read_data:param2 <- R2
	#DEBUG_VALUE: _i.i2c_master_async_if._chan.get_read_data:param3 <- R3
	mov r4, r3
	#DEBUG_VALUE: _i.i2c_master_async_if._chan.get_read_data:param3 <- R4
	mov r5, r2
	#DEBUG_VALUE: _i.i2c_master_async_if._chan.get_read_data:param2 <- R5
	mov r6, r1
	#DEBUG_VALUE: _i.i2c_master_async_if._chan.get_read_data:clientNotifyFlag <- R6
	getr r7, 2
	setd res[r7], r0
	add r0, r7, 3
	out res[r7], r0
	outct res[r7], 2
	ldc r1, 0
	mov r0, r7
	bl __interface_wait_and_yield
	chkct res[r7], 1
	out res[r7], r6
	stw r5, sp[1]
	out res[r7], r4
	outct res[r7], 2
	ldaw r1, sp[1]
	mov r0, r7
	bl __interface_client_call
	in r0, res[r7]
	chkct res[r7], 1
	freer res[r7]
	ldd r7, r6, sp[2]               # 4-byte Folded Reload
	ldd r5, r4, sp[1]               # 4-byte Folded Reload
	retsp 6
	# RETURN_REG_HOLDER
	.cc_bottom _i.i2c_master_async_if._chan.get_read_data.function
	.set	_i.i2c_master_async_if._chan.get_read_data.nstackwords,((_i.i2c_master_async_if._client_call_y.max.nstackwords $M ($D __interface_wait_and_yield.nstackwords ? __interface_wait_and_yield.nstackwords $: _i.i2c_master_async_if._client_call_y.max.nstackwords) $M __interface_client_call.nstackwords) + 6)
	.globl	_i.i2c_master_async_if._chan.get_read_data.nstackwords
	.weak	_i.i2c_master_async_if._chan.get_read_data.nstackwords
	.set	_i.i2c_master_async_if._chan.get_read_data.maxcores,__interface_client_call.maxcores $M ($D __interface_wait_and_yield.maxcores ? __interface_wait_and_yield.maxcores $: _i.i2c_master_async_if._client_call_y.max.maxcores) $M 1
	.globl	_i.i2c_master_async_if._chan.get_read_data.maxcores
	.weak	_i.i2c_master_async_if._chan.get_read_data.maxcores
	.set	_i.i2c_master_async_if._chan.get_read_data.maxtimers,__interface_client_call.maxtimers $M ($D __interface_wait_and_yield.maxtimers ? __interface_wait_and_yield.maxtimers $: _i.i2c_master_async_if._client_call_y.max.maxtimers) $M 0
	.globl	_i.i2c_master_async_if._chan.get_read_data.maxtimers
	.weak	_i.i2c_master_async_if._chan.get_read_data.maxtimers
	.set	_i.i2c_master_async_if._chan.get_read_data.maxchanends,(1 + __interface_client_call.maxchanends) $M (1 + ($D __interface_wait_and_yield.maxchanends ? __interface_wait_and_yield.maxchanends $: _i.i2c_master_async_if._client_call_y.max.maxchanends)) $M 1
	.globl	_i.i2c_master_async_if._chan.get_read_data.maxchanends
	.weak	_i.i2c_master_async_if._chan.get_read_data.maxchanends
.Ltmp593:
	.size	_i.i2c_master_async_if._chan.get_read_data, .Ltmp593-_i.i2c_master_async_if._chan.get_read_data
	.cfi_endproc

	.weak	_i.i2c_master_async_if._chan.get_write_result
	.align	4
	.type	_i.i2c_master_async_if._chan.get_write_result,@function
	.cc_top _i.i2c_master_async_if._chan.get_write_result.function,_i.i2c_master_async_if._chan.get_write_result
_i.i2c_master_async_if._chan.get_write_result: # @_i.i2c_master_async_if._chan.get_write_result
	.cfi_startproc
	.issue_mode single
# BB#0:                                 # %allocas
	ENTSP_lu6 6
.Ltmp594:
	.cfi_def_cfa_offset 24
.Ltmp595:
	.cfi_offset 15, 0
	std r5, r4, sp[1]               # 4-byte Folded Spill
.Ltmp596:
	.cfi_offset 4, -16
.Ltmp597:
	.cfi_offset 5, -12
	stw r6, sp[4]                   # 4-byte Folded Spill
.Ltmp598:
	.cfi_offset 6, -8
	#DEBUG_VALUE: _i.i2c_master_async_if._chan.get_write_result:dest <- R0
	#DEBUG_VALUE: _i.i2c_master_async_if._chan.get_write_result:clientNotifyFlag <- R1
	#DEBUG_VALUE: _i.i2c_master_async_if._chan.get_write_result:param2 <- R2
	mov r4, r2
	#DEBUG_VALUE: _i.i2c_master_async_if._chan.get_write_result:param2 <- R4
	mov r5, r1
	#DEBUG_VALUE: _i.i2c_master_async_if._chan.get_write_result:clientNotifyFlag <- R5
	getr r6, 2
	setd res[r6], r0
	add r0, r6, 2
	out res[r6], r0
	outct res[r6], 2
	ldc r1, 0
	mov r0, r6
	bl __interface_wait_and_yield
	chkct res[r6], 1
	out res[r6], r5
	ldw r0, r4[0]
	out res[r6], r0
	outct res[r6], 2
	in r0, res[r6]
	in r0, res[r6]
	stw r0, r4[0]
	in r0, res[r6]
	chkct res[r6], 1
	freer res[r6]
	ldw r6, sp[4]                   # 4-byte Folded Reload
	ldd r5, r4, sp[1]               # 4-byte Folded Reload
	retsp 6
	# RETURN_REG_HOLDER
	.cc_bottom _i.i2c_master_async_if._chan.get_write_result.function
	.set	_i.i2c_master_async_if._chan.get_write_result.nstackwords,((_i.i2c_master_async_if._client_call_y.max.nstackwords $M ($D __interface_wait_and_yield.nstackwords ? __interface_wait_and_yield.nstackwords $: _i.i2c_master_async_if._client_call_y.max.nstackwords)) + 6)
	.globl	_i.i2c_master_async_if._chan.get_write_result.nstackwords
	.weak	_i.i2c_master_async_if._chan.get_write_result.nstackwords
	.set	_i.i2c_master_async_if._chan.get_write_result.maxcores,($D __interface_wait_and_yield.maxcores ? __interface_wait_and_yield.maxcores $: _i.i2c_master_async_if._client_call_y.max.maxcores) $M 1
	.globl	_i.i2c_master_async_if._chan.get_write_result.maxcores
	.weak	_i.i2c_master_async_if._chan.get_write_result.maxcores
