	.text
	.file	"F:/Projects/UI-01_sw1_hw1/lib_i2c/src/i2c_master_async.xc"
                                        # Start of file scope inline assembly
	.inline_definition __i_i2c_master_if_read_reg
	.inline_definition __i_i2c_master_if_write_reg
	.inline_definition __i_i2c_master_if_read_reg8_addr16
	.inline_definition __i_i2c_master_if_write_reg8_addr16
	.inline_definition __i_i2c_master_if_read_reg16
	.inline_definition __i_i2c_master_if_write_reg16
	.inline_definition __i_i2c_master_if_read_reg16_addr8
	.inline_definition __i_i2c_master_if_write_reg16_addr8
	.inline_definition delay_seconds
	.inline_definition delay_milliseconds
	.inline_definition delay_microseconds
	.inline_definition _safe_memcmp
	.inline_definition _safe_memmove
	.inline_definition _safe_memset
	.inline_definition xassert_msg
	.weak i2c_master_async_aux.3.maxargsize.group
	.globl i2c_master_async_aux.3.maxargsize.group
	.add_to_set i2c_master_async_aux.3.maxargsize.group, 1
	.weak i2c_master_async_aux.3.maxargsize
	.globl i2c_master_async_aux.3.maxargsize
	.max_reduce i2c_master_async_aux.3.maxargsize, i2c_master_async_aux.3.maxargsize.group, 0
	.weak _Si2c_master_async_aux_0.3.maxargsize.group
	.globl _Si2c_master_async_aux_0.3.maxargsize.group
	.add_to_set _Si2c_master_async_aux_0.3.maxargsize.group, 1
	.weak _Si2c_master_async_aux_0.3.maxargsize
	.globl _Si2c_master_async_aux_0.3.maxargsize
	.max_reduce _Si2c_master_async_aux_0.3.maxargsize, _Si2c_master_async_aux_0.3.maxargsize.group, 0
	.weak _Si2c_master_async_aux_0.3.maxargsize.group
	.globl _Si2c_master_async_aux_0.3.maxargsize.group
	.add_to_set _Si2c_master_async_aux_0.3.maxargsize.group, i2c_master_async.5.maxargsize
	.set i2c_master_async.savedstate,16 + 0 + _Si2c_master_0.init.0.savedstate + 1
	.globl i2c_master_async.savedstate
	.weak i2c_master_async.4.maxargsize.group
	.globl i2c_master_async.4.maxargsize.group
	.add_to_set i2c_master_async.4.maxargsize.group, 1
	.weak i2c_master_async.4.maxargsize
	.globl i2c_master_async.4.maxargsize
	.max_reduce i2c_master_async.4.maxargsize, i2c_master_async.4.maxargsize.group, 0
	.weak i2c_master_async.5.maxargsize.group
	.globl i2c_master_async.5.maxargsize.group
	.add_to_set i2c_master_async.5.maxargsize.group, 1
	.weak i2c_master_async.5.maxargsize
	.globl i2c_master_async.5.maxargsize
	.max_reduce i2c_master_async.5.maxargsize, i2c_master_async.5.maxargsize.group, 0
	.weak _i.i2c_master_if.write.maxchanends.group
	.add_to_set _i.i2c_master_if.write.maxchanends.group, _i.i2c_master_if._Si2c_master_0.0.write.maxchanends, _i.i2c_master_if._Si2c_master_0.0.write
	.max_reduce _i.i2c_master_if.write.max.maxchanends, _i.i2c_master_if.write.maxchanends.group, 0
	.weak _i.i2c_master_if.write.maxcores.group
	.add_to_set _i.i2c_master_if.write.maxcores.group, _i.i2c_master_if._Si2c_master_0.0.write.maxcores, _i.i2c_master_if._Si2c_master_0.0.write
	.max_reduce _i.i2c_master_if.write.max.maxcores, _i.i2c_master_if.write.maxcores.group, 0
	.weak _i.i2c_master_if.write.maxtimers.group
	.add_to_set _i.i2c_master_if.write.maxtimers.group, _i.i2c_master_if._Si2c_master_0.0.write.maxtimers, _i.i2c_master_if._Si2c_master_0.0.write
	.max_reduce _i.i2c_master_if.write.max.maxtimers, _i.i2c_master_if.write.maxtimers.group, 0
	.weak _i.i2c_master_if.write.nstackwords.group
	.globl _i.i2c_master_if.write.nstackwords.group
	.weak _i.i2c_master_if.write.fns.group
	.globl _i.i2c_master_if.write.fns.group
	.add_to_set _i.i2c_master_if.write.nstackwords.group, _i.i2c_master_if._Si2c_master_0.0.write.nstackwords, _i.i2c_master_if._Si2c_master_0.0.write
	.add_to_set _i.i2c_master_if.write.fns.group, _i.i2c_master_if._Si2c_master_0.0.write, _i.i2c_master_if._Si2c_master_0.0.write
	.max_reduce _i.i2c_master_if.write.max.nstackwords, _i.i2c_master_if.write.nstackwords.group, 0
	.max_reduce _i.i2c_master_if.write.fns, _i.i2c_master_if.write.fns.group, 0
	.weak _i.i2c_master_if.read.maxchanends.group
	.add_to_set _i.i2c_master_if.read.maxchanends.group, _i.i2c_master_if._Si2c_master_0.0.read.maxchanends, _i.i2c_master_if._Si2c_master_0.0.read
	.max_reduce _i.i2c_master_if.read.max.maxchanends, _i.i2c_master_if.read.maxchanends.group, 0
	.weak _i.i2c_master_if.read.maxcores.group
	.add_to_set _i.i2c_master_if.read.maxcores.group, _i.i2c_master_if._Si2c_master_0.0.read.maxcores, _i.i2c_master_if._Si2c_master_0.0.read
	.max_reduce _i.i2c_master_if.read.max.maxcores, _i.i2c_master_if.read.maxcores.group, 0
	.weak _i.i2c_master_if.read.maxtimers.group
	.add_to_set _i.i2c_master_if.read.maxtimers.group, _i.i2c_master_if._Si2c_master_0.0.read.maxtimers, _i.i2c_master_if._Si2c_master_0.0.read
	.max_reduce _i.i2c_master_if.read.max.maxtimers, _i.i2c_master_if.read.maxtimers.group, 0
	.weak _i.i2c_master_if.read.nstackwords.group
	.globl _i.i2c_master_if.read.nstackwords.group
	.weak _i.i2c_master_if.read.fns.group
	.globl _i.i2c_master_if.read.fns.group
	.add_to_set _i.i2c_master_if.read.nstackwords.group, _i.i2c_master_if._Si2c_master_0.0.read.nstackwords, _i.i2c_master_if._Si2c_master_0.0.read
	.add_to_set _i.i2c_master_if.read.fns.group, _i.i2c_master_if._Si2c_master_0.0.read, _i.i2c_master_if._Si2c_master_0.0.read
	.max_reduce _i.i2c_master_if.read.max.nstackwords, _i.i2c_master_if.read.nstackwords.group, 0
	.max_reduce _i.i2c_master_if.read.fns, _i.i2c_master_if.read.fns.group, 0
	.weak _i.i2c_master_if.send_stop_bit.maxchanends.group
	.add_to_set _i.i2c_master_if.send_stop_bit.maxchanends.group, _i.i2c_master_if._Si2c_master_0.0.send_stop_bit.maxchanends, _i.i2c_master_if._Si2c_master_0.0.send_stop_bit
	.max_reduce _i.i2c_master_if.send_stop_bit.max.maxchanends, _i.i2c_master_if.send_stop_bit.maxchanends.group, 0
	.weak _i.i2c_master_if.send_stop_bit.maxcores.group
	.add_to_set _i.i2c_master_if.send_stop_bit.maxcores.group, _i.i2c_master_if._Si2c_master_0.0.send_stop_bit.maxcores, _i.i2c_master_if._Si2c_master_0.0.send_stop_bit
	.max_reduce _i.i2c_master_if.send_stop_bit.max.maxcores, _i.i2c_master_if.send_stop_bit.maxcores.group, 0
	.weak _i.i2c_master_if.send_stop_bit.maxtimers.group
	.add_to_set _i.i2c_master_if.send_stop_bit.maxtimers.group, _i.i2c_master_if._Si2c_master_0.0.send_stop_bit.maxtimers, _i.i2c_master_if._Si2c_master_0.0.send_stop_bit
	.max_reduce _i.i2c_master_if.send_stop_bit.max.maxtimers, _i.i2c_master_if.send_stop_bit.maxtimers.group, 0
	.weak _i.i2c_master_if.send_stop_bit.nstackwords.group
	.globl _i.i2c_master_if.send_stop_bit.nstackwords.group
	.weak _i.i2c_master_if.send_stop_bit.fns.group
	.globl _i.i2c_master_if.send_stop_bit.fns.group
	.add_to_set _i.i2c_master_if.send_stop_bit.nstackwords.group, _i.i2c_master_if._Si2c_master_0.0.send_stop_bit.nstackwords, _i.i2c_master_if._Si2c_master_0.0.send_stop_bit
	.add_to_set _i.i2c_master_if.send_stop_bit.fns.group, _i.i2c_master_if._Si2c_master_0.0.send_stop_bit, _i.i2c_master_if._Si2c_master_0.0.send_stop_bit
	.max_reduce _i.i2c_master_if.send_stop_bit.max.nstackwords, _i.i2c_master_if.send_stop_bit.nstackwords.group, 0
	.max_reduce _i.i2c_master_if.send_stop_bit.fns, _i.i2c_master_if.send_stop_bit.fns.group, 0
	.weak _i.i2c_master_if.shutdown.maxchanends.group
	.add_to_set _i.i2c_master_if.shutdown.maxchanends.group, _i.i2c_master_if._Si2c_master_0.0.shutdown.maxchanends, _i.i2c_master_if._Si2c_master_0.0.shutdown
	.max_reduce _i.i2c_master_if.shutdown.max.maxchanends, _i.i2c_master_if.shutdown.maxchanends.group, 0
	.weak _i.i2c_master_if.shutdown.maxcores.group
	.add_to_set _i.i2c_master_if.shutdown.maxcores.group, _i.i2c_master_if._Si2c_master_0.0.shutdown.maxcores, _i.i2c_master_if._Si2c_master_0.0.shutdown
	.max_reduce _i.i2c_master_if.shutdown.max.maxcores, _i.i2c_master_if.shutdown.maxcores.group, 0
	.weak _i.i2c_master_if.shutdown.maxtimers.group
	.add_to_set _i.i2c_master_if.shutdown.maxtimers.group, _i.i2c_master_if._Si2c_master_0.0.shutdown.maxtimers, _i.i2c_master_if._Si2c_master_0.0.shutdown
	.max_reduce _i.i2c_master_if.shutdown.max.maxtimers, _i.i2c_master_if.shutdown.maxtimers.group, 0
	.weak _i.i2c_master_if.shutdown.nstackwords.group
	.globl _i.i2c_master_if.shutdown.nstackwords.group
	.weak _i.i2c_master_if.shutdown.fns.group
	.globl _i.i2c_master_if.shutdown.fns.group
	.add_to_set _i.i2c_master_if.shutdown.nstackwords.group, _i.i2c_master_if._Si2c_master_0.0.shutdown.nstackwords, _i.i2c_master_if._Si2c_master_0.0.shutdown
	.add_to_set _i.i2c_master_if.shutdown.fns.group, _i.i2c_master_if._Si2c_master_0.0.shutdown, _i.i2c_master_if._Si2c_master_0.0.shutdown
	.max_reduce _i.i2c_master_if.shutdown.max.nstackwords, _i.i2c_master_if.shutdown.nstackwords.group, 0
	.max_reduce _i.i2c_master_if.shutdown.fns, _i.i2c_master_if.shutdown.fns.group, 0
	.weak _i.i2c_master_if.__interface_init.maxchanends.group
	.add_to_set _i.i2c_master_if.__interface_init.maxchanends.group, (_Si2c_master_0.init.0.maxchanends + __interface_init_task_extra.maxchanends), _Si2c_master_0.init.0
	.max_reduce _i.i2c_master_if.__interface_init.max.maxchanends, _i.i2c_master_if.__interface_init.maxchanends.group, 0
	.weak _i.i2c_master_if.__interface_init.maxcores.group
	.add_to_set _i.i2c_master_if.__interface_init.maxcores.group, (_Si2c_master_0.init.0.maxcores + __interface_init_task_extra.maxcores), _Si2c_master_0.init.0
	.max_reduce _i.i2c_master_if.__interface_init.max.maxcores, _i.i2c_master_if.__interface_init.maxcores.group, 0
	.weak _i.i2c_master_if.__interface_init.maxtimers.group
	.add_to_set _i.i2c_master_if.__interface_init.maxtimers.group, (_Si2c_master_0.init.0.maxtimers + __interface_init_task_extra.maxtimers), _Si2c_master_0.init.0
	.max_reduce _i.i2c_master_if.__interface_init.max.maxtimers, _i.i2c_master_if.__interface_init.maxtimers.group, 0
	.weak _i.i2c_master_if.__interface_init.nstackwords.group
	.globl _i.i2c_master_if.__interface_init.nstackwords.group
	.weak _i.i2c_master_if.__interface_init.fns.group
	.globl _i.i2c_master_if.__interface_init.fns.group
	.add_to_set _i.i2c_master_if.__interface_init.nstackwords.group, (_Si2c_master_0.init.0.nstackwords + __interface_init_task_extra.nstackwords), _Si2c_master_0.init.0
	.add_to_set _i.i2c_master_if.__interface_init.fns.group, _Si2c_master_0.init.0, _Si2c_master_0.init.0
	.max_reduce _i.i2c_master_if.__interface_init.max.nstackwords, _i.i2c_master_if.__interface_init.nstackwords.group, 0
	.max_reduce _i.i2c_master_if.__interface_init.fns, _i.i2c_master_if.__interface_init.fns.group, 0
	.weak _i.i2c_master_if._client_call_y.maxchanends.group
	.add_to_set _i.i2c_master_if._client_call_y.maxchanends.group, (__interface_client_call_y_other.maxchanends + __interface_client_call_y_extra.maxchanends), __interface_client_call_y_other
	.max_reduce _i.i2c_master_if._client_call_y.max.maxchanends, _i.i2c_master_if._client_call_y.maxchanends.group, 0
	.weak _i.i2c_master_if._client_call_y.maxcores.group
	.add_to_set _i.i2c_master_if._client_call_y.maxcores.group, (__interface_client_call_y_other.maxcores + __interface_client_call_y_extra.maxcores), __interface_client_call_y_other
	.max_reduce _i.i2c_master_if._client_call_y.max.maxcores, _i.i2c_master_if._client_call_y.maxcores.group, 0
	.weak _i.i2c_master_if._client_call_y.maxtimers.group
	.add_to_set _i.i2c_master_if._client_call_y.maxtimers.group, (__interface_client_call_y_other.maxtimers + __interface_client_call_y_extra.maxtimers), __interface_client_call_y_other
	.max_reduce _i.i2c_master_if._client_call_y.max.maxtimers, _i.i2c_master_if._client_call_y.maxtimers.group, 0
	.weak _i.i2c_master_if._client_call_y.nstackwords.group
	.globl _i.i2c_master_if._client_call_y.nstackwords.group
	.weak _i.i2c_master_if._client_call_y.fns.group
	.globl _i.i2c_master_if._client_call_y.fns.group
	.add_to_set _i.i2c_master_if._client_call_y.nstackwords.group, (__interface_client_call_y_other.nstackwords + __interface_client_call_y_extra.nstackwords), __interface_client_call_y_other
	.add_to_set _i.i2c_master_if._client_call_y.fns.group, __interface_client_call_y_other, __interface_client_call_y_other
	.max_reduce _i.i2c_master_if._client_call_y.max.nstackwords, _i.i2c_master_if._client_call_y.nstackwords.group, 0
	.max_reduce _i.i2c_master_if._client_call_y.fns, _i.i2c_master_if._client_call_y.fns.group, 0
	.weak _Si2c_master_0.3.maxargsize.group
	.globl _Si2c_master_0.3.maxargsize.group
	.add_to_set _Si2c_master_0.3.maxargsize.group, i2c_master_async.4.maxargsize
	.weak i2c_master_async_comb.4.maxargsize.group
	.globl i2c_master_async_comb.4.maxargsize.group
	.add_to_set i2c_master_async_comb.4.maxargsize.group, 1
	.weak i2c_master_async_comb.4.maxargsize
	.globl i2c_master_async_comb.4.maxargsize
	.max_reduce i2c_master_async_comb.4.maxargsize, i2c_master_async_comb.4.maxargsize.group, 0
	.weak i2c_master_async_comb.5.maxargsize.group
	.globl i2c_master_async_comb.5.maxargsize.group
	.add_to_set i2c_master_async_comb.5.maxargsize.group, 1
	.weak i2c_master_async_comb.5.maxargsize
	.globl i2c_master_async_comb.5.maxargsize
	.max_reduce i2c_master_async_comb.5.maxargsize, i2c_master_async_comb.5.maxargsize.group, 0
	.set i2c_master_async_comb.select.0.enable.savedstate,68
	.globl i2c_master_async_comb.select.0.enable.savedstate
	.set i2c_master_async_comb.select.0.enable.cases.maxtimers,0 $M i2c_master_async_comb.select.0.case.0.maxtimers
	.globl i2c_master_async_comb.select.0.enable.cases.maxtimers
	.set i2c_master_async_comb.select.0.enable.cases.maxcores,0 $M i2c_master_async_comb.select.0.case.0.maxcores
	.globl i2c_master_async_comb.select.0.enable.cases.maxcores
	.set i2c_master_async_comb.select.0.enable.cases.maxchanends,0 $M i2c_master_async_comb.select.0.case.0.maxchanends
	.globl i2c_master_async_comb.select.0.enable.cases.maxchanends
	.set i2c_master_async_comb.select.0.enable.cases,0
	.globl i2c_master_async_comb.select.0.enable.cases
	.set i2c_master_async_comb.select.0.enable.cases.nstackwords, 0 $M (i2c_master_async_comb.select.0.case.0.nstackwords)
	.globl i2c_master_async_comb.select.0.enable.cases.nstackwords
	.set i2c_master_async_comb.dynalloc_maxchanends, 0
	.globl i2c_master_async_comb.dynalloc_maxchanends
	.set i2c_master_async_comb.dynalloc_maxcores, 0
	.globl i2c_master_async_comb.dynalloc_maxcores
	.set i2c_master_async_comb.dynalloc_maxtimers, 0
	.globl i2c_master_async_comb.dynalloc_maxtimers
	.set i2c_master_async_comb.init.0.savedstate,68 + 0 + (((i2c_master_async_comb.5.maxargsize * 1)+3)/4)
	.globl i2c_master_async_comb.init.0.savedstate
	.set i2c_master_async_comb.select.yield.enable.savedstate,68
	.globl i2c_master_async_comb.select.yield.enable.savedstate
	.set i2c_master_async_comb.select.yield.enable.cases.maxtimers,0 $M i2c_master_async_comb.select.yield.case.2.maxtimers $M i2c_master_async_comb.select.yield.case.1.maxtimers $M i2c_master_async_comb.select.yield.case.0.maxtimers
	.globl i2c_master_async_comb.select.yield.enable.cases.maxtimers
	.set i2c_master_async_comb.select.yield.enable.cases.maxcores,0 $M i2c_master_async_comb.select.yield.case.2.maxcores $M i2c_master_async_comb.select.yield.case.1.maxcores $M i2c_master_async_comb.select.yield.case.0.maxcores
	.globl i2c_master_async_comb.select.yield.enable.cases.maxcores
	.set i2c_master_async_comb.select.yield.enable.cases.maxchanends,0 $M i2c_master_async_comb.select.yield.case.2.maxchanends $M i2c_master_async_comb.select.yield.case.1.maxchanends $M i2c_master_async_comb.select.yield.case.0.maxchanends
	.globl i2c_master_async_comb.select.yield.enable.cases.maxchanends
	.set i2c_master_async_comb.select.yield.enable.cases,0
	.globl i2c_master_async_comb.select.yield.enable.cases
	.set i2c_master_async_comb.select.yield.enable.cases.nstackwords, 0 $M (i2c_master_async_comb.select.yield.case.0.nstackwords) $M (i2c_master_async_comb.select.yield.case.1.nstackwords) $M (i2c_master_async_comb.select.yield.case.2.nstackwords)
	.globl i2c_master_async_comb.select.yield.enable.cases.nstackwords
	.set i2c_master_async_comb.select.enable.savedstate,68
	.globl i2c_master_async_comb.select.enable.savedstate
	.set i2c_master_async_comb.select.enable.cases.maxtimers,0 $M i2c_master_async_comb.select.case.2.maxtimers $M i2c_master_async_comb.select.case.1.maxtimers $M i2c_master_async_comb.select.case.0.maxtimers
	.globl i2c_master_async_comb.select.enable.cases.maxtimers
	.set i2c_master_async_comb.select.enable.cases.maxcores,0 $M i2c_master_async_comb.select.case.2.maxcores $M i2c_master_async_comb.select.case.1.maxcores $M i2c_master_async_comb.select.case.0.maxcores
	.globl i2c_master_async_comb.select.enable.cases.maxcores
	.set i2c_master_async_comb.select.enable.cases.maxchanends,0 $M i2c_master_async_comb.select.case.2.maxchanends $M i2c_master_async_comb.select.case.1.maxchanends $M i2c_master_async_comb.select.case.0.maxchanends
	.globl i2c_master_async_comb.select.enable.cases.maxchanends
	.set i2c_master_async_comb.select.enable.cases,0
	.globl i2c_master_async_comb.select.enable.cases
	.set i2c_master_async_comb.select.enable.cases.nstackwords, 0 $M (i2c_master_async_comb.select.case.0.nstackwords) $M (i2c_master_async_comb.select.case.1.nstackwords) $M (i2c_master_async_comb.select.case.2.nstackwords)
	.globl i2c_master_async_comb.select.enable.cases.nstackwords
	.weak _i.i2c_slave_callback_if.ack_read_request.maxchanends.group
	.max_reduce _i.i2c_slave_callback_if.ack_read_request.max.maxchanends, _i.i2c_slave_callback_if.ack_read_request.maxchanends.group, 0
	.weak _i.i2c_slave_callback_if.ack_read_request.maxcores.group
	.max_reduce _i.i2c_slave_callback_if.ack_read_request.max.maxcores, _i.i2c_slave_callback_if.ack_read_request.maxcores.group, 0
	.weak _i.i2c_slave_callback_if.ack_read_request.maxtimers.group
	.max_reduce _i.i2c_slave_callback_if.ack_read_request.max.maxtimers, _i.i2c_slave_callback_if.ack_read_request.maxtimers.group, 0
	.weak _i.i2c_slave_callback_if.ack_read_request.nstackwords.group
	.globl _i.i2c_slave_callback_if.ack_read_request.nstackwords.group
	.weak _i.i2c_slave_callback_if.ack_read_request.fns.group
	.globl _i.i2c_slave_callback_if.ack_read_request.fns.group
	.max_reduce _i.i2c_slave_callback_if.ack_read_request.max.nstackwords, _i.i2c_slave_callback_if.ack_read_request.nstackwords.group, 0
	.max_reduce _i.i2c_slave_callback_if.ack_read_request.fns, _i.i2c_slave_callback_if.ack_read_request.fns.group, 0
	.weak _i.i2c_slave_callback_if.ack_write_request.maxchanends.group
	.max_reduce _i.i2c_slave_callback_if.ack_write_request.max.maxchanends, _i.i2c_slave_callback_if.ack_write_request.maxchanends.group, 0
	.weak _i.i2c_slave_callback_if.ack_write_request.maxcores.group
	.max_reduce _i.i2c_slave_callback_if.ack_write_request.max.maxcores, _i.i2c_slave_callback_if.ack_write_request.maxcores.group, 0
	.weak _i.i2c_slave_callback_if.ack_write_request.maxtimers.group
	.max_reduce _i.i2c_slave_callback_if.ack_write_request.max.maxtimers, _i.i2c_slave_callback_if.ack_write_request.maxtimers.group, 0
	.weak _i.i2c_slave_callback_if.ack_write_request.nstackwords.group
	.globl _i.i2c_slave_callback_if.ack_write_request.nstackwords.group
	.weak _i.i2c_slave_callback_if.ack_write_request.fns.group
	.globl _i.i2c_slave_callback_if.ack_write_request.fns.group
	.max_reduce _i.i2c_slave_callback_if.ack_write_request.max.nstackwords, _i.i2c_slave_callback_if.ack_write_request.nstackwords.group, 0
	.max_reduce _i.i2c_slave_callback_if.ack_write_request.fns, _i.i2c_slave_callback_if.ack_write_request.fns.group, 0
	.weak _i.i2c_slave_callback_if.master_requires_data.maxchanends.group
	.max_reduce _i.i2c_slave_callback_if.master_requires_data.max.maxchanends, _i.i2c_slave_callback_if.master_requires_data.maxchanends.group, 0
	.weak _i.i2c_slave_callback_if.master_requires_data.maxcores.group
	.max_reduce _i.i2c_slave_callback_if.master_requires_data.max.maxcores, _i.i2c_slave_callback_if.master_requires_data.maxcores.group, 0
	.weak _i.i2c_slave_callback_if.master_requires_data.maxtimers.group
	.max_reduce _i.i2c_slave_callback_if.master_requires_data.max.maxtimers, _i.i2c_slave_callback_if.master_requires_data.maxtimers.group, 0
	.weak _i.i2c_slave_callback_if.master_requires_data.nstackwords.group
	.globl _i.i2c_slave_callback_if.master_requires_data.nstackwords.group
	.weak _i.i2c_slave_callback_if.master_requires_data.fns.group
	.globl _i.i2c_slave_callback_if.master_requires_data.fns.group
	.max_reduce _i.i2c_slave_callback_if.master_requires_data.max.nstackwords, _i.i2c_slave_callback_if.master_requires_data.nstackwords.group, 0
	.max_reduce _i.i2c_slave_callback_if.master_requires_data.fns, _i.i2c_slave_callback_if.master_requires_data.fns.group, 0
	.weak _i.i2c_slave_callback_if.master_sent_data.maxchanends.group
	.max_reduce _i.i2c_slave_callback_if.master_sent_data.max.maxchanends, _i.i2c_slave_callback_if.master_sent_data.maxchanends.group, 0
	.weak _i.i2c_slave_callback_if.master_sent_data.maxcores.group
	.max_reduce _i.i2c_slave_callback_if.master_sent_data.max.maxcores, _i.i2c_slave_callback_if.master_sent_data.maxcores.group, 0
	.weak _i.i2c_slave_callback_if.master_sent_data.maxtimers.group
	.max_reduce _i.i2c_slave_callback_if.master_sent_data.max.maxtimers, _i.i2c_slave_callback_if.master_sent_data.maxtimers.group, 0
	.weak _i.i2c_slave_callback_if.master_sent_data.nstackwords.group
	.globl _i.i2c_slave_callback_if.master_sent_data.nstackwords.group
	.weak _i.i2c_slave_callback_if.master_sent_data.fns.group
	.globl _i.i2c_slave_callback_if.master_sent_data.fns.group
	.max_reduce _i.i2c_slave_callback_if.master_sent_data.max.nstackwords, _i.i2c_slave_callback_if.master_sent_data.nstackwords.group, 0
	.max_reduce _i.i2c_slave_callback_if.master_sent_data.fns, _i.i2c_slave_callback_if.master_sent_data.fns.group, 0
	.weak _i.i2c_slave_callback_if.stop_bit.maxchanends.group
	.max_reduce _i.i2c_slave_callback_if.stop_bit.max.maxchanends, _i.i2c_slave_callback_if.stop_bit.maxchanends.group, 0
	.weak _i.i2c_slave_callback_if.stop_bit.maxcores.group
	.max_reduce _i.i2c_slave_callback_if.stop_bit.max.maxcores, _i.i2c_slave_callback_if.stop_bit.maxcores.group, 0
	.weak _i.i2c_slave_callback_if.stop_bit.maxtimers.group
	.max_reduce _i.i2c_slave_callback_if.stop_bit.max.maxtimers, _i.i2c_slave_callback_if.stop_bit.maxtimers.group, 0
	.weak _i.i2c_slave_callback_if.stop_bit.nstackwords.group
	.globl _i.i2c_slave_callback_if.stop_bit.nstackwords.group
	.weak _i.i2c_slave_callback_if.stop_bit.fns.group
	.globl _i.i2c_slave_callback_if.stop_bit.fns.group
	.max_reduce _i.i2c_slave_callback_if.stop_bit.max.nstackwords, _i.i2c_slave_callback_if.stop_bit.nstackwords.group, 0
	.max_reduce _i.i2c_slave_callback_if.stop_bit.fns, _i.i2c_slave_callback_if.stop_bit.fns.group, 0
	.weak _i.i2c_slave_callback_if.__interface_init.maxchanends.group
	.max_reduce _i.i2c_slave_callback_if.__interface_init.max.maxchanends, _i.i2c_slave_callback_if.__interface_init.maxchanends.group, 0
	.weak _i.i2c_slave_callback_if.__interface_init.maxcores.group
	.max_reduce _i.i2c_slave_callback_if.__interface_init.max.maxcores, _i.i2c_slave_callback_if.__interface_init.maxcores.group, 0
	.weak _i.i2c_slave_callback_if.__interface_init.maxtimers.group
	.max_reduce _i.i2c_slave_callback_if.__interface_init.max.maxtimers, _i.i2c_slave_callback_if.__interface_init.maxtimers.group, 0
	.weak _i.i2c_slave_callback_if.__interface_init.nstackwords.group
	.globl _i.i2c_slave_callback_if.__interface_init.nstackwords.group
	.weak _i.i2c_slave_callback_if.__interface_init.fns.group
	.globl _i.i2c_slave_callback_if.__interface_init.fns.group
	.max_reduce _i.i2c_slave_callback_if.__interface_init.max.nstackwords, _i.i2c_slave_callback_if.__interface_init.nstackwords.group, 0
	.max_reduce _i.i2c_slave_callback_if.__interface_init.fns, _i.i2c_slave_callback_if.__interface_init.fns.group, 0
	.weak _i.i2c_slave_callback_if._client_call_y.maxchanends.group
	.add_to_set _i.i2c_slave_callback_if._client_call_y.maxchanends.group, (__interface_client_call_y_other.maxchanends + __interface_client_call_y_extra.maxchanends), __interface_client_call_y_other
	.max_reduce _i.i2c_slave_callback_if._client_call_y.max.maxchanends, _i.i2c_slave_callback_if._client_call_y.maxchanends.group, 0
	.weak _i.i2c_slave_callback_if._client_call_y.maxcores.group
	.add_to_set _i.i2c_slave_callback_if._client_call_y.maxcores.group, (__interface_client_call_y_other.maxcores + __interface_client_call_y_extra.maxcores), __interface_client_call_y_other
	.max_reduce _i.i2c_slave_callback_if._client_call_y.max.maxcores, _i.i2c_slave_callback_if._client_call_y.maxcores.group, 0
	.weak _i.i2c_slave_callback_if._client_call_y.maxtimers.group
	.add_to_set _i.i2c_slave_callback_if._client_call_y.maxtimers.group, (__interface_client_call_y_other.maxtimers + __interface_client_call_y_extra.maxtimers), __interface_client_call_y_other
	.max_reduce _i.i2c_slave_callback_if._client_call_y.max.maxtimers, _i.i2c_slave_callback_if._client_call_y.maxtimers.group, 0
	.weak _i.i2c_slave_callback_if._client_call_y.nstackwords.group
	.globl _i.i2c_slave_callback_if._client_call_y.nstackwords.group
	.weak _i.i2c_slave_callback_if._client_call_y.fns.group
	.globl _i.i2c_slave_callback_if._client_call_y.fns.group
	.add_to_set _i.i2c_slave_callback_if._client_call_y.nstackwords.group, (__interface_client_call_y_other.nstackwords + __interface_client_call_y_extra.nstackwords), __interface_client_call_y_other
	.add_to_set _i.i2c_slave_callback_if._client_call_y.fns.group, __interface_client_call_y_other, __interface_client_call_y_other
	.max_reduce _i.i2c_slave_callback_if._client_call_y.max.nstackwords, _i.i2c_slave_callback_if._client_call_y.nstackwords.group, 0
	.max_reduce _i.i2c_slave_callback_if._client_call_y.fns, _i.i2c_slave_callback_if._client_call_y.fns.group, 0
	.weak _i.i2c_master_async_if.write.maxchanends.group
	.max_reduce _i.i2c_master_async_if.write.max.maxchanends, _i.i2c_master_async_if.write.maxchanends.group, 0
	.weak _i.i2c_master_async_if.write.maxcores.group
	.max_reduce _i.i2c_master_async_if.write.max.maxcores, _i.i2c_master_async_if.write.maxcores.group, 0
	.weak _i.i2c_master_async_if.write.maxtimers.group
	.max_reduce _i.i2c_master_async_if.write.max.maxtimers, _i.i2c_master_async_if.write.maxtimers.group, 0
	.weak _i.i2c_master_async_if.write.nstackwords.group
	.globl _i.i2c_master_async_if.write.nstackwords.group
	.weak _i.i2c_master_async_if.write.fns.group
	.globl _i.i2c_master_async_if.write.fns.group
	.max_reduce _i.i2c_master_async_if.write.max.nstackwords, _i.i2c_master_async_if.write.nstackwords.group, 0
	.max_reduce _i.i2c_master_async_if.write.fns, _i.i2c_master_async_if.write.fns.group, 0
	.weak _i.i2c_master_async_if.read.maxchanends.group
	.max_reduce _i.i2c_master_async_if.read.max.maxchanends, _i.i2c_master_async_if.read.maxchanends.group, 0
	.weak _i.i2c_master_async_if.read.maxcores.group
	.max_reduce _i.i2c_master_async_if.read.max.maxcores, _i.i2c_master_async_if.read.maxcores.group, 0
	.weak _i.i2c_master_async_if.read.maxtimers.group
	.max_reduce _i.i2c_master_async_if.read.max.maxtimers, _i.i2c_master_async_if.read.maxtimers.group, 0
	.weak _i.i2c_master_async_if.read.nstackwords.group
	.globl _i.i2c_master_async_if.read.nstackwords.group
	.weak _i.i2c_master_async_if.read.fns.group
	.globl _i.i2c_master_async_if.read.fns.group
	.max_reduce _i.i2c_master_async_if.read.max.nstackwords, _i.i2c_master_async_if.read.nstackwords.group, 0
	.max_reduce _i.i2c_master_async_if.read.fns, _i.i2c_master_async_if.read.fns.group, 0
	.weak _i.i2c_master_async_if.get_write_result.maxchanends.group
	.max_reduce _i.i2c_master_async_if.get_write_result.max.maxchanends, _i.i2c_master_async_if.get_write_result.maxchanends.group, 0
	.weak _i.i2c_master_async_if.get_write_result.maxcores.group
	.max_reduce _i.i2c_master_async_if.get_write_result.max.maxcores, _i.i2c_master_async_if.get_write_result.maxcores.group, 0
	.weak _i.i2c_master_async_if.get_write_result.maxtimers.group
	.max_reduce _i.i2c_master_async_if.get_write_result.max.maxtimers, _i.i2c_master_async_if.get_write_result.maxtimers.group, 0
	.weak _i.i2c_master_async_if.get_write_result.nstackwords.group
	.globl _i.i2c_master_async_if.get_write_result.nstackwords.group
	.weak _i.i2c_master_async_if.get_write_result.fns.group
	.globl _i.i2c_master_async_if.get_write_result.fns.group
	.max_reduce _i.i2c_master_async_if.get_write_result.max.nstackwords, _i.i2c_master_async_if.get_write_result.nstackwords.group, 0
	.max_reduce _i.i2c_master_async_if.get_write_result.fns, _i.i2c_master_async_if.get_write_result.fns.group, 0
	.weak _i.i2c_master_async_if.get_read_data.maxchanends.group
	.max_reduce _i.i2c_master_async_if.get_read_data.max.maxchanends, _i.i2c_master_async_if.get_read_data.maxchanends.group, 0
	.weak _i.i2c_master_async_if.get_read_data.maxcores.group
	.max_reduce _i.i2c_master_async_if.get_read_data.max.maxcores, _i.i2c_master_async_if.get_read_data.maxcores.group, 0
	.weak _i.i2c_master_async_if.get_read_data.maxtimers.group
	.max_reduce _i.i2c_master_async_if.get_read_data.max.maxtimers, _i.i2c_master_async_if.get_read_data.maxtimers.group, 0
	.weak _i.i2c_master_async_if.get_read_data.nstackwords.group
	.globl _i.i2c_master_async_if.get_read_data.nstackwords.group
	.weak _i.i2c_master_async_if.get_read_data.fns.group
	.globl _i.i2c_master_async_if.get_read_data.fns.group
	.max_reduce _i.i2c_master_async_if.get_read_data.max.nstackwords, _i.i2c_master_async_if.get_read_data.nstackwords.group, 0
	.max_reduce _i.i2c_master_async_if.get_read_data.fns, _i.i2c_master_async_if.get_read_data.fns.group, 0
	.weak _i.i2c_master_async_if.send_stop_bit.maxchanends.group
	.max_reduce _i.i2c_master_async_if.send_stop_bit.max.maxchanends, _i.i2c_master_async_if.send_stop_bit.maxchanends.group, 0
	.weak _i.i2c_master_async_if.send_stop_bit.maxcores.group
	.max_reduce _i.i2c_master_async_if.send_stop_bit.max.maxcores, _i.i2c_master_async_if.send_stop_bit.maxcores.group, 0
	.weak _i.i2c_master_async_if.send_stop_bit.maxtimers.group
	.max_reduce _i.i2c_master_async_if.send_stop_bit.max.maxtimers, _i.i2c_master_async_if.send_stop_bit.maxtimers.group, 0
	.weak _i.i2c_master_async_if.send_stop_bit.nstackwords.group
	.globl _i.i2c_master_async_if.send_stop_bit.nstackwords.group
	.weak _i.i2c_master_async_if.send_stop_bit.fns.group
	.globl _i.i2c_master_async_if.send_stop_bit.fns.group
	.max_reduce _i.i2c_master_async_if.send_stop_bit.max.nstackwords, _i.i2c_master_async_if.send_stop_bit.nstackwords.group, 0
	.max_reduce _i.i2c_master_async_if.send_stop_bit.fns, _i.i2c_master_async_if.send_stop_bit.fns.group, 0
	.weak _i.i2c_master_async_if.shutdown.maxchanends.group
	.max_reduce _i.i2c_master_async_if.shutdown.max.maxchanends, _i.i2c_master_async_if.shutdown.maxchanends.group, 0
	.weak _i.i2c_master_async_if.shutdown.maxcores.group
	.max_reduce _i.i2c_master_async_if.shutdown.max.maxcores, _i.i2c_master_async_if.shutdown.maxcores.group, 0
	.weak _i.i2c_master_async_if.shutdown.maxtimers.group
	.max_reduce _i.i2c_master_async_if.shutdown.max.maxtimers, _i.i2c_master_async_if.shutdown.maxtimers.group, 0
	.weak _i.i2c_master_async_if.shutdown.nstackwords.group
	.globl _i.i2c_master_async_if.shutdown.nstackwords.group
	.weak _i.i2c_master_async_if.shutdown.fns.group
	.globl _i.i2c_master_async_if.shutdown.fns.group
	.max_reduce _i.i2c_master_async_if.shutdown.max.nstackwords, _i.i2c_master_async_if.shutdown.nstackwords.group, 0
	.max_reduce _i.i2c_master_async_if.shutdown.fns, _i.i2c_master_async_if.shutdown.fns.group, 0
	.weak _i.i2c_master_async_if.__interface_init.maxchanends.group
	.max_reduce _i.i2c_master_async_if.__interface_init.max.maxchanends, _i.i2c_master_async_if.__interface_init.maxchanends.group, 0
	.weak _i.i2c_master_async_if.__interface_init.maxcores.group
	.max_reduce _i.i2c_master_async_if.__interface_init.max.maxcores, _i.i2c_master_async_if.__interface_init.maxcores.group, 0
	.weak _i.i2c_master_async_if.__interface_init.maxtimers.group
	.max_reduce _i.i2c_master_async_if.__interface_init.max.maxtimers, _i.i2c_master_async_if.__interface_init.maxtimers.group, 0
	.weak _i.i2c_master_async_if.__interface_init.nstackwords.group
	.globl _i.i2c_master_async_if.__interface_init.nstackwords.group
	.weak _i.i2c_master_async_if.__interface_init.fns.group
	.globl _i.i2c_master_async_if.__interface_init.fns.group
	.max_reduce _i.i2c_master_async_if.__interface_init.max.nstackwords, _i.i2c_master_async_if.__interface_init.nstackwords.group, 0
	.max_reduce _i.i2c_master_async_if.__interface_init.fns, _i.i2c_master_async_if.__interface_init.fns.group, 0
	.weak _i.i2c_master_async_if._client_call_y.maxchanends.group
	.add_to_set _i.i2c_master_async_if._client_call_y.maxchanends.group, (__interface_client_call_y_other.maxchanends + __interface_client_call_y_extra.maxchanends), __interface_client_call_y_other
	.max_reduce _i.i2c_master_async_if._client_call_y.max.maxchanends, _i.i2c_master_async_if._client_call_y.maxchanends.group, 0
	.weak _i.i2c_master_async_if._client_call_y.maxcores.group
	.add_to_set _i.i2c_master_async_if._client_call_y.maxcores.group, (__interface_client_call_y_other.maxcores + __interface_client_call_y_extra.maxcores), __interface_client_call_y_other
	.max_reduce _i.i2c_master_async_if._client_call_y.max.maxcores, _i.i2c_master_async_if._client_call_y.maxcores.group, 0
	.weak _i.i2c_master_async_if._client_call_y.maxtimers.group
	.add_to_set _i.i2c_master_async_if._client_call_y.maxtimers.group, (__interface_client_call_y_other.maxtimers + __interface_client_call_y_extra.maxtimers), __interface_client_call_y_other
	.max_reduce _i.i2c_master_async_if._client_call_y.max.maxtimers, _i.i2c_master_async_if._client_call_y.maxtimers.group, 0
	.weak _i.i2c_master_async_if._client_call_y.nstackwords.group
	.globl _i.i2c_master_async_if._client_call_y.nstackwords.group
	.weak _i.i2c_master_async_if._client_call_y.fns.group
	.globl _i.i2c_master_async_if._client_call_y.fns.group
	.add_to_set _i.i2c_master_async_if._client_call_y.nstackwords.group, (__interface_client_call_y_other.nstackwords + __interface_client_call_y_extra.nstackwords), __interface_client_call_y_other
	.add_to_set _i.i2c_master_async_if._client_call_y.fns.group, __interface_client_call_y_other, __interface_client_call_y_other
	.max_reduce _i.i2c_master_async_if._client_call_y.max.nstackwords, _i.i2c_master_async_if._client_call_y.nstackwords.group, 0
	.max_reduce _i.i2c_master_async_if._client_call_y.fns, _i.i2c_master_async_if._client_call_y.fns.group, 0
	.weak _i.i2c_master_if.write.maxchanends.group
	.weak _i.i2c_master_if.write.maxcores.group
	.weak _i.i2c_master_if.write.maxtimers.group
	.weak _i.i2c_master_if.write.nstackwords.group
	.globl _i.i2c_master_if.write.nstackwords.group
	.weak _i.i2c_master_if.write.fns.group
	.globl _i.i2c_master_if.write.fns.group
	.weak _i.i2c_master_if.read.maxchanends.group
	.weak _i.i2c_master_if.read.maxcores.group
	.weak _i.i2c_master_if.read.maxtimers.group
	.weak _i.i2c_master_if.read.nstackwords.group
	.globl _i.i2c_master_if.read.nstackwords.group
	.weak _i.i2c_master_if.read.fns.group
	.globl _i.i2c_master_if.read.fns.group
	.weak _i.i2c_master_if.send_stop_bit.maxchanends.group
	.weak _i.i2c_master_if.send_stop_bit.maxcores.group
	.weak _i.i2c_master_if.send_stop_bit.maxtimers.group
	.weak _i.i2c_master_if.send_stop_bit.nstackwords.group
	.globl _i.i2c_master_if.send_stop_bit.nstackwords.group
	.weak _i.i2c_master_if.send_stop_bit.fns.group
	.globl _i.i2c_master_if.send_stop_bit.fns.group
	.weak _i.i2c_master_if.shutdown.maxchanends.group
	.weak _i.i2c_master_if.shutdown.maxcores.group
	.weak _i.i2c_master_if.shutdown.maxtimers.group
	.weak _i.i2c_master_if.shutdown.nstackwords.group
	.globl _i.i2c_master_if.shutdown.nstackwords.group
	.weak _i.i2c_master_if.shutdown.fns.group
	.globl _i.i2c_master_if.shutdown.fns.group
	.weak _i.i2c_master_if.__interface_init.maxchanends.group
	.weak _i.i2c_master_if.__interface_init.maxcores.group
	.weak _i.i2c_master_if.__interface_init.maxtimers.group
	.weak _i.i2c_master_if.__interface_init.nstackwords.group
	.globl _i.i2c_master_if.__interface_init.nstackwords.group
	.weak _i.i2c_master_if.__interface_init.fns.group
	.globl _i.i2c_master_if.__interface_init.fns.group
	.set usage.anon.0,0
	.set usage.anon.1,0
	.set usage.anon.2,0
	.set usage.anon.3,0
	.set usage.anon.4,0
	.set usage.anon.5,0
	.set usage.anon.6,0
	.set usage.anon.7,0
	.set usage.anon.8,0
	.set usage.anon.9,0
	.set usage.anon.10,0
	.set usage.anon.11,0
	.set usage.anon.12,0
	.set usage.anon.13,0
	.set usage.anon.14,0
	.set usage.anon.15,0
	.set usage.anon.16,0
	.call i2c_master_async_comb,usage.anon.16
	.call i2c_master_async_comb,usage.anon.15
	.call i2c_master_async,i2c_master_async_aux
	.call i2c_master_async,i2c_master
	.call usage.anon.13,memset
	.call usage.anon.12,memmove
	.call usage.anon.11,memcmp
	.call usage.anon.10,delay_ticks_longlong
	.call usage.anon.9,delay_ticks_longlong
	.call usage.anon.8,delay_ticks_longlong
	.par i2c_master,i2c_master_async_aux,"F:/Projects/UI-01_sw1_hw1/lib_i2c/src/i2c_master_async.xc:130:3: error: use of `%s\' violates parallel usage rules\n  par {\n  ^~~"
	.set usage.anon.0.locnoside, 0
	.set usage.anon.1.locnoside, 0
	.set usage.anon.2.locnoside, 0
	.set usage.anon.3.locnoside, 0
	.set usage.anon.4.locnoside, 0
	.set usage.anon.5.locnoside, 0
	.set usage.anon.6.locnoside, 0
	.set usage.anon.7.locnoside, 0
	.set i2c_master_async_aux.locnoside, 0
	.set i2c_master_async.locnoside, 0
	.set usage.anon.15.locnoside, 0
	.set i2c_master_async_comb.locnoside, 0
	.set usage.anon.0.locnointerfaceaccess, 0
	.set usage.anon.1.locnointerfaceaccess, 0
	.set usage.anon.2.locnointerfaceaccess, 0
	.set usage.anon.3.locnointerfaceaccess, 0
	.set usage.anon.4.locnointerfaceaccess, 0
	.set usage.anon.5.locnointerfaceaccess, 0
	.set usage.anon.6.locnointerfaceaccess, 0
	.set usage.anon.7.locnointerfaceaccess, 0
	.set i2c_master_async_aux.locnointerfaceaccess, 0
	.set i2c_master_async_comb.locnointerfaceaccess, 0
	.assert 1,usage.anon.16.actnonotificationselect,"F:/Projects/UI-01_sw1_hw1/lib_i2c/src/i2c_master_async.xc:427:21: error: call to function `adjust_fall\' which selects on a notification in a combinable function select case\n        fall_time = adjust_fall(event_time, now, fall_time);\n                    ^~~~~~~~~~~~~~~~~~~~~~~~~~~~~~~~~~~~~~~"
	.assert 1,usage.anon.15.actnonotificationselect,"F:/Projects/UI-01_sw1_hw1/lib_i2c/src/i2c_master_async.xc:435:9: error: call to function `adjust_for_slip\' which selects on a notification in a combinable function select case\n        adjust_for_slip(now, event_time, fall_time);\n        ^~~~~~~~~~~~~~~~~~~~~~~~~~~~~~~~~~~~~~~~~~~"
	.assert 1,memset.actnoglobalaccess,"In file included from F:/Projects/UI-01_sw1_hw1/lib_i2c/src/i2c_master_async.xc:4:\nIn file included from C:\\Program Files (x86)\\XMOS\\xTIMEcomposer\\Community_14.3.3\\target/include/xc\\string.h:5:\nC:\\Program Files (x86)\\XMOS\\xTIMEcomposer\\Community_14.3.3\\target/include/xc\\safe/string.h:21:3: error: passing non-local alias to function `memset\' which accesses a global variable\n  memset(s, c, n);\n  ^~~~~~~~~~~~~~~"
	.assert 1,memmove.actnoglobalaccess,"In file included from F:/Projects/UI-01_sw1_hw1/lib_i2c/src/i2c_master_async.xc:4:\nIn file included from C:\\Program Files (x86)\\XMOS\\xTIMEcomposer\\Community_14.3.3\\target/include/xc\\string.h:5:\nC:\\Program Files (x86)\\XMOS\\xTIMEcomposer\\Community_14.3.3\\target/include/xc\\safe/string.h:15:3: error: passing non-local alias to function `memmove\' which accesses a global variable\n  memmove(s1, s2, n);\n  ^~~~~~~~~~~~~~~~~~"

                                        # End of file scope inline assembly
	.text
	.globl	_i.i2c_master_async_if.i2c_master_async_comb._c0.shutdown
	.align	4
	.type	_i.i2c_master_async_if.i2c_master_async_comb._c0.shutdown,@function
	.cc_top _i.i2c_master_async_if.i2c_master_async_comb._c0.shutdown.function,_i.i2c_master_async_if.i2c_master_async_comb._c0.shutdown
_i.i2c_master_async_if.i2c_master_async_comb._c0.shutdown: # @_i.i2c_master_async_if.i2c_master_async_comb._c0.shutdown
	.cfi_startproc
	.issue_mode single
# BB#0:                                 # %allocas
	ENTSP_lu6 0
	#DEBUG_VALUE: _i.i2c_master_async_if.i2c_master_async_comb._c0.shutdown:p <- R0
	ldw r0, r0[0]
.LBB0_1:                                # %LoopTest
                                        # =>This Inner Loop Header: Depth=1
	ldw r1, r0[0]
	bf r1, .LBB0_1
# BB#2:                                 # %ifdone
	ldc r1, 0
	stw r1, r0[0]
	retsp 0
	# RETURN_REG_HOLDER
	.cc_bottom _i.i2c_master_async_if.i2c_master_async_comb._c0.shutdown.function
	.set	_i.i2c_master_async_if.i2c_master_async_comb._c0.shutdown.nstackwords,0
	.globl	_i.i2c_master_async_if.i2c_master_async_comb._c0.shutdown.nstackwords
	.set	_i.i2c_master_async_if.i2c_master_async_comb._c0.shutdown.maxcores,1
	.globl	_i.i2c_master_async_if.i2c_master_async_comb._c0.shutdown.maxcores
	.set	_i.i2c_master_async_if.i2c_master_async_comb._c0.shutdown.maxtimers,0
	.globl	_i.i2c_master_async_if.i2c_master_async_comb._c0.shutdown.maxtimers
	.set	_i.i2c_master_async_if.i2c_master_async_comb._c0.shutdown.maxchanends,0
	.globl	_i.i2c_master_async_if.i2c_master_async_comb._c0.shutdown.maxchanends
.Ltmp0:
	.size	_i.i2c_master_async_if.i2c_master_async_comb._c0.shutdown, .Ltmp0-_i.i2c_master_async_if.i2c_master_async_comb._c0.shutdown
	.cfi_endproc

	.globl	_i.i2c_master_async_if.i2c_master_async_comb._c0.send_stop_bit
	.align	4
	.type	_i.i2c_master_async_if.i2c_master_async_comb._c0.send_stop_bit,@function
	.cc_top _i.i2c_master_async_if.i2c_master_async_comb._c0.send_stop_bit.function,_i.i2c_master_async_if.i2c_master_async_comb._c0.send_stop_bit
_i.i2c_master_async_if.i2c_master_async_comb._c0.send_stop_bit: # @_i.i2c_master_async_if.i2c_master_async_comb._c0.send_stop_bit
	.cfi_startproc
	.issue_mode single
# BB#0:                                 # %allocas
	ENTSP_lu6 0
	#DEBUG_VALUE: _i.i2c_master_async_if.i2c_master_async_comb._c0.send_stop_bit:p <- R0
	ldw r0, r0[0]
.LBB1_1:                                # %LoopTest
                                        # =>This Inner Loop Header: Depth=1
	ldw r1, r0[0]
	bf r1, .LBB1_1
# BB#2:                                 # %ifdone
	mkmsk r1, 1
	stw r1, r0[0]
	retsp 0
	# RETURN_REG_HOLDER
	.cc_bottom _i.i2c_master_async_if.i2c_master_async_comb._c0.send_stop_bit.function
	.set	_i.i2c_master_async_if.i2c_master_async_comb._c0.send_stop_bit.nstackwords,0
	.globl	_i.i2c_master_async_if.i2c_master_async_comb._c0.send_stop_bit.nstackwords
	.set	_i.i2c_master_async_if.i2c_master_async_comb._c0.send_stop_bit.maxcores,1
	.globl	_i.i2c_master_async_if.i2c_master_async_comb._c0.send_stop_bit.maxcores
	.set	_i.i2c_master_async_if.i2c_master_async_comb._c0.send_stop_bit.maxtimers,0
	.globl	_i.i2c_master_async_if.i2c_master_async_comb._c0.send_stop_bit.maxtimers
	.set	_i.i2c_master_async_if.i2c_master_async_comb._c0.send_stop_bit.maxchanends,0
	.globl	_i.i2c_master_async_if.i2c_master_async_comb._c0.send_stop_bit.maxchanends
.Ltmp1:
	.size	_i.i2c_master_async_if.i2c_master_async_comb._c0.send_stop_bit, .Ltmp1-_i.i2c_master_async_if.i2c_master_async_comb._c0.send_stop_bit
	.cfi_endproc

	.globl	_i.i2c_master_async_if.i2c_master_async_comb._c0.get_read_data
	.align	4
	.type	_i.i2c_master_async_if.i2c_master_async_comb._c0.get_read_data,@function
	.cc_top _i.i2c_master_async_if.i2c_master_async_comb._c0.get_read_data.function,_i.i2c_master_async_if.i2c_master_async_comb._c0.get_read_data
_i.i2c_master_async_if.i2c_master_async_comb._c0.get_read_data: # @_i.i2c_master_async_if.i2c_master_async_comb._c0.get_read_data
.Lfunc_begin2:
	.loc	2 516 0                 # F:/Projects/UI-01_sw1_hw1/lib_i2c/src/i2c_master_async.xc:516:0
	.cfi_startproc
	.issue_mode single
# BB#0:                                 # %allocas
	ENTSP_lu6 4
.Ltmp2:
	.cfi_def_cfa_offset 16
.Ltmp3:
	.cfi_offset 15, 0
	std r5, r4, sp[1]               # 4-byte Folded Spill
.Ltmp4:
	.cfi_offset 4, -8
.Ltmp5:
	.cfi_offset 5, -4
	#DEBUG_VALUE: _i.i2c_master_async_if.i2c_master_async_comb._c0.get_read_data:p <- R0
	#DEBUG_VALUE: _i.i2c_master_async_if.i2c_master_async_comb._c0.get_read_data:clientNotifyFlag <- R1
	#DEBUG_VALUE: _i.i2c_master_async_if.i2c_master_async_comb._c0.get_read_data:buf0 <- R2
	#DEBUG_VALUE: _i.i2c_master_async_if.i2c_master_async_comb._c0.get_read_data:n <- R3
	ldw r4, r0[0]
	ldw r0, r0[1]
.Ltmp6:
.LBB2_1:                                # %allocas
                                        # =>This Inner Loop Header: Depth=1
	ldw r11, r4[0]
	bf r11, .LBB2_1
# BB#2:                                 # %ifdone
.Ltmp7:
	#DEBUG_VALUE: _i.i2c_master_async_if.i2c_master_async_comb._c0.get_read_data:clientNotifyFlag <- R1
	#DEBUG_VALUE: _i.i2c_master_async_if.i2c_master_async_comb._c0.get_read_data:buf0 <- R2
	#DEBUG_VALUE: _i.i2c_master_async_if.i2c_master_async_comb._c0.get_read_data:n <- R3
	ldc r11, 0
	stw r11, r4[0]
	ldw r11, r4[2]
	ldw r0, r11[r0]
	ldw r11, r0[4]
	eq r1, r11, r1
.Ltmp8:
	bt r1, .LBB2_4
.Ltmp9:
# BB#3:                                 # %refillchan
	#DEBUG_VALUE: _i.i2c_master_async_if.i2c_master_async_comb._c0.get_read_data:buf0 <- R2
	#DEBUG_VALUE: _i.i2c_master_async_if.i2c_master_async_comb._c0.get_read_data:n <- R3
	ldw r1, r0[2]
	ldw r11, r0[3]
	#APP
	getd r5, res[r1]
	#NO_APP
	setd res[r1], r11
	outct res[r1], 1
	setd res[r1], r5
.Ltmp10:
.LBB2_4:                                # %afternotifycheck
	#DEBUG_VALUE: _i.i2c_master_async_if.i2c_master_async_comb._c0.get_read_data:buf0 <- R2
	#DEBUG_VALUE: _i.i2c_master_async_if.i2c_master_async_comb._c0.get_read_data:n <- R3
	mkmsk r5, 1
	stw r5, r0[4]
	.loc	2 517 0 prologue_end    # F:/Projects/UI-01_sw1_hw1/lib_i2c/src/i2c_master_async.xc:517:0
.Ltmp11:
	ldw r0, r4[11]
	.loc	2 517 0                 # F:/Projects/UI-01_sw1_hw1/lib_i2c/src/i2c_master_async.xc:517:0
	lsu r0, r0, r3
.Ltrap_info0:
	ecallt r0
	#DEBUG_VALUE: _i.i2c_master_async_if.i2c_master_async_comb._c0.get_read_data:buf0 <- R2
	#DEBUG_VALUE: _i.i2c_master_async_if.i2c_master_async_comb._c0.get_read_data:n <- R3
	.loc	2 517 0                 # F:/Projects/UI-01_sw1_hw1/lib_i2c/src/i2c_master_async.xc:517:0
	ldw r1, r4[10]
	.loc	2 517 0                 # F:/Projects/UI-01_sw1_hw1/lib_i2c/src/i2c_master_async.xc:517:0
	mov r0, r2
	mov r2, r3
.Ltmp12:
	bl memcpy
.Ltmp13:
	ldc r0, 100
	.loc	2 518 0                 # F:/Projects/UI-01_sw1_hw1/lib_i2c/src/i2c_master_async.xc:518:0
	add r0, r4, r0
	.loc	2 518 0                 # F:/Projects/UI-01_sw1_hw1/lib_i2c/src/i2c_master_async.xc:518:0
	ldw r0, r0[0]
	stw r5, r4[0]
	ldd r5, r4, sp[1]               # 4-byte Folded Reload
	retsp 4
	# RETURN_REG_HOLDER
.Ltmp14:
	.cc_bottom _i.i2c_master_async_if.i2c_master_async_comb._c0.get_read_data.function
	.set	_i.i2c_master_async_if.i2c_master_async_comb._c0.get_read_data.nstackwords,(memcpy.nstackwords + 4)
	.globl	_i.i2c_master_async_if.i2c_master_async_comb._c0.get_read_data.nstackwords
	.set	_i.i2c_master_async_if.i2c_master_async_comb._c0.get_read_data.maxcores,1
	.globl	_i.i2c_master_async_if.i2c_master_async_comb._c0.get_read_data.maxcores
	.set	_i.i2c_master_async_if.i2c_master_async_comb._c0.get_read_data.maxtimers,0
	.globl	_i.i2c_master_async_if.i2c_master_async_comb._c0.get_read_data.maxtimers
	.set	_i.i2c_master_async_if.i2c_master_async_comb._c0.get_read_data.maxchanends,0
	.globl	_i.i2c_master_async_if.i2c_master_async_comb._c0.get_read_data.maxchanends
.Ltmp15:
	.size	_i.i2c_master_async_if.i2c_master_async_comb._c0.get_read_data, .Ltmp15-_i.i2c_master_async_if.i2c_master_async_comb._c0.get_read_data
.Lfunc_end2:
	.cfi_endproc

	.globl	_i.i2c_master_async_if.i2c_master_async_comb._c0.get_write_result
	.align	4
	.type	_i.i2c_master_async_if.i2c_master_async_comb._c0.get_write_result,@function
	.cc_top _i.i2c_master_async_if.i2c_master_async_comb._c0.get_write_result.function,_i.i2c_master_async_if.i2c_master_async_comb._c0.get_write_result
_i.i2c_master_async_if.i2c_master_async_comb._c0.get_write_result: # @_i.i2c_master_async_if.i2c_master_async_comb._c0.get_write_result
.Lfunc_begin3:
	.loc	2 511 0                 # F:/Projects/UI-01_sw1_hw1/lib_i2c/src/i2c_master_async.xc:511:0
	.cfi_startproc
	.issue_mode single
# BB#0:                                 # %allocas
	ENTSP_lu6 0
	extsp 2
.Ltmp16:
	.cfi_def_cfa_offset 8
	stw r4, sp[0]                   # 4-byte Folded Spill
.Ltmp17:
	.cfi_offset 4, -8
	#DEBUG_VALUE: _i.i2c_master_async_if.i2c_master_async_comb._c0.get_write_result:p <- R0
	#DEBUG_VALUE: _i.i2c_master_async_if.i2c_master_async_comb._c0.get_write_result:clientNotifyFlag <- R1
	#DEBUG_VALUE: _i.i2c_master_async_if.i2c_master_async_comb._c0.get_write_result:num_bytes_sent <- R2
	ldw r3, r0[0]
	ldw r0, r0[1]
.Ltmp18:
.LBB3_1:                                # %allocas
                                        # =>This Inner Loop Header: Depth=1
	ldw r11, r3[0]
	bf r11, .LBB3_1
# BB#2:                                 # %ifdone
.Ltmp19:
	#DEBUG_VALUE: _i.i2c_master_async_if.i2c_master_async_comb._c0.get_write_result:clientNotifyFlag <- R1
	#DEBUG_VALUE: _i.i2c_master_async_if.i2c_master_async_comb._c0.get_write_result:num_bytes_sent <- R2
	ldc r11, 0
	stw r11, r3[0]
	ldw r11, r3[2]
	ldw r0, r11[r0]
	ldw r11, r0[4]
	eq r1, r11, r1
.Ltmp20:
	bt r1, .LBB3_4
# BB#3:                                 # %refillchan
	#DEBUG_VALUE: _i.i2c_master_async_if.i2c_master_async_comb._c0.get_write_result:num_bytes_sent <- R2
	ldw r1, r0[2]
	ldw r11, r0[3]
	#APP
	getd r4, res[r1]
	#NO_APP
	setd res[r1], r11
	outct res[r1], 1
	setd res[r1], r4
.LBB3_4:                                # %afternotifycheck
	#DEBUG_VALUE: _i.i2c_master_async_if.i2c_master_async_comb._c0.get_write_result:num_bytes_sent <- R2
	mkmsk r1, 1
	stw r1, r0[4]
	ldc r0, 76
	.loc	2 512 0 prologue_end    # F:/Projects/UI-01_sw1_hw1/lib_i2c/src/i2c_master_async.xc:512:0
.Ltmp21:
	add r0, r3, r0
	.loc	2 512 0                 # F:/Projects/UI-01_sw1_hw1/lib_i2c/src/i2c_master_async.xc:512:0
	ldw r0, r0[0]
	.loc	2 512 0                 # F:/Projects/UI-01_sw1_hw1/lib_i2c/src/i2c_master_async.xc:512:0
	stw r0, r2[0]
	ldc r0, 100
	.loc	2 513 0                 # F:/Projects/UI-01_sw1_hw1/lib_i2c/src/i2c_master_async.xc:513:0
	add r0, r3, r0
	.loc	2 513 0                 # F:/Projects/UI-01_sw1_hw1/lib_i2c/src/i2c_master_async.xc:513:0
	ldw r0, r0[0]
	stw r1, r3[0]
	ldw r4, sp[0]                   # 4-byte Folded Reload
	ldaw sp, sp[2]
	retsp 0
	# RETURN_REG_HOLDER
.Ltmp22:
	.cc_bottom _i.i2c_master_async_if.i2c_master_async_comb._c0.get_write_result.function
	.set	_i.i2c_master_async_if.i2c_master_async_comb._c0.get_write_result.nstackwords,2
	.globl	_i.i2c_master_async_if.i2c_master_async_comb._c0.get_write_result.nstackwords
	.set	_i.i2c_master_async_if.i2c_master_async_comb._c0.get_write_result.maxcores,1
	.globl	_i.i2c_master_async_if.i2c_master_async_comb._c0.get_write_result.maxcores
	.set	_i.i2c_master_async_if.i2c_master_async_comb._c0.get_write_result.maxtimers,0
	.globl	_i.i2c_master_async_if.i2c_master_async_comb._c0.get_write_result.maxtimers
	.set	_i.i2c_master_async_if.i2c_master_async_comb._c0.get_write_result.maxchanends,0
	.globl	_i.i2c_master_async_if.i2c_master_async_comb._c0.get_write_result.maxchanends
.Ltmp23:
	.size	_i.i2c_master_async_if.i2c_master_async_comb._c0.get_write_result, .Ltmp23-_i.i2c_master_async_if.i2c_master_async_comb._c0.get_write_result
.Lfunc_end3:
	.cfi_endproc

	.globl	_i.i2c_master_async_if.i2c_master_async_comb._c0.read
	.align	4
	.type	_i.i2c_master_async_if.i2c_master_async_comb._c0.read,@function
	.cc_top _i.i2c_master_async_if.i2c_master_async_comb._c0.read.function,_i.i2c_master_async_if.i2c_master_async_comb._c0.read
_i.i2c_master_async_if.i2c_master_async_comb._c0.read: # @_i.i2c_master_async_if.i2c_master_async_comb._c0.read
.Lfunc_begin4:
	.loc	2 489 0                 # F:/Projects/UI-01_sw1_hw1/lib_i2c/src/i2c_master_async.xc:489:0
	.cfi_startproc
	.issue_mode single
# BB#0:                                 # %allocas
	ENTSP_lu6 0
	extsp 2
.Ltmp24:
	.cfi_def_cfa_offset 8
	std r5, r4, sp[0]               # 4-byte Folded Spill
.Ltmp25:
	.cfi_offset 4, -8
.Ltmp26:
	.cfi_offset 5, -4
	#DEBUG_VALUE: _i.i2c_master_async_if.i2c_master_async_comb._c0.read:p <- R0
	#DEBUG_VALUE: _i.i2c_master_async_if.i2c_master_async_comb._c0.read:device_addr <- R1
.Ltmp27:
	#DEBUG_VALUE: _i.i2c_master_async_if.i2c_master_async_comb._c0.read:device_addr <- undef
	#DEBUG_VALUE: _i.i2c_master_async_if.i2c_master_async_comb._c0.read:n <- R2
	#DEBUG_VALUE: _i.i2c_master_async_if.i2c_master_async_comb._c0.read:_send_stop_bit <- R3
	ldw r11, r0[0]
	ldw r4, r0[1]
.Ltmp28:
.LBB4_1:                                # %allocas
                                        # =>This Inner Loop Header: Depth=1
	ldw r0, r11[0]
	bf r0, .LBB4_1
# BB#2:                                 # %ifdone
.Lxtalabel0:
	#DEBUG_VALUE: _i.i2c_master_async_if.i2c_master_async_comb._c0.read:device_addr <- undef
.Ltmp29:
	#DEBUG_VALUE: _i.i2c_master_async_if.i2c_master_async_comb._c0.read:n <- R2
	#DEBUG_VALUE: _i.i2c_master_async_if.i2c_master_async_comb._c0.read:_send_stop_bit <- R3
	ldc r0, 68
	.loc	2 490 0 prologue_end    # F:/Projects/UI-01_sw1_hw1/lib_i2c/src/i2c_master_async.xc:490:0
.Ltmp30:
	add r5, r11, r0
	.loc	2 490 0                 # F:/Projects/UI-01_sw1_hw1/lib_i2c/src/i2c_master_async.xc:490:0
	shl r1, r1, 1
	mkmsk r0, 1
	.loc	2 490 0                 # F:/Projects/UI-01_sw1_hw1/lib_i2c/src/i2c_master_async.xc:490:0
	or r1, r1, r0
	.loc	2 490 0                 # F:/Projects/UI-01_sw1_hw1/lib_i2c/src/i2c_master_async.xc:490:0
	stw r1, r5[0]
	ldc r1, 72
	.loc	2 491 0                 # F:/Projects/UI-01_sw1_hw1/lib_i2c/src/i2c_master_async.xc:491:0
	add r1, r11, r1
	ldc r5, 0
	.loc	2 491 0                 # F:/Projects/UI-01_sw1_hw1/lib_i2c/src/i2c_master_async.xc:491:0
	stw r5, r1[0]
	ldc r1, 60
	.loc	2 492 0                 # F:/Projects/UI-01_sw1_hw1/lib_i2c/src/i2c_master_async.xc:492:0
	add r1, r11, r1
	.loc	2 492 0                 # F:/Projects/UI-01_sw1_hw1/lib_i2c/src/i2c_master_async.xc:492:0
	stw r0, r1[0]
	ldc r1, 80
	.loc	2 493 0                 # F:/Projects/UI-01_sw1_hw1/lib_i2c/src/i2c_master_async.xc:493:0
	add r1, r11, r1
	.loc	2 493 0                 # F:/Projects/UI-01_sw1_hw1/lib_i2c/src/i2c_master_async.xc:493:0
	stw r2, r1[0]
	ldc r1, 92
	.loc	2 494 0                 # F:/Projects/UI-01_sw1_hw1/lib_i2c/src/i2c_master_async.xc:494:0
	add r1, r11, r1
	.loc	2 494 0                 # F:/Projects/UI-01_sw1_hw1/lib_i2c/src/i2c_master_async.xc:494:0
	stw r3, r1[0]
	ldc r1, 76
	.loc	2 497 0                 # F:/Projects/UI-01_sw1_hw1/lib_i2c/src/i2c_master_async.xc:497:0
	add r1, r11, r1
	mkmsk r2, 32
.Ltmp31:
	.loc	2 497 0                 # F:/Projects/UI-01_sw1_hw1/lib_i2c/src/i2c_master_async.xc:497:0
	stw r2, r1[0]
	ldc r1, 56
	.loc	2 498 0                 # F:/Projects/UI-01_sw1_hw1/lib_i2c/src/i2c_master_async.xc:498:0
	add r1, r11, r1
	.loc	2 498 0                 # F:/Projects/UI-01_sw1_hw1/lib_i2c/src/i2c_master_async.xc:498:0
	stw r0, r1[0]
	ldc r1, 88
	.loc	2 499 0                 # F:/Projects/UI-01_sw1_hw1/lib_i2c/src/i2c_master_async.xc:499:0
	add r1, r11, r1
	.loc	2 499 0                 # F:/Projects/UI-01_sw1_hw1/lib_i2c/src/i2c_master_async.xc:499:0
	stw r4, r1[0]
	ldc r1, 84
	.loc	2 500 0                 # F:/Projects/UI-01_sw1_hw1/lib_i2c/src/i2c_master_async.xc:500:0
	add r1, r11, r1
	.loc	2 500 0                 # F:/Projects/UI-01_sw1_hw1/lib_i2c/src/i2c_master_async.xc:500:0
	gettime r2
	.loc	2 500 0                 # F:/Projects/UI-01_sw1_hw1/lib_i2c/src/i2c_master_async.xc:500:0
	stw r2, r1[0]
	ldc r1, 96
	.loc	2 501 7                 # F:/Projects/UI-01_sw1_hw1/lib_i2c/src/i2c_master_async.xc:501:7
.Ltmp32:
	add r1, r11, r1
	.loc	2 501 7                 # F:/Projects/UI-01_sw1_hw1/lib_i2c/src/i2c_master_async.xc:501:7
	ldw r2, r1[0]
	ldc r1, 48
	.loc	2 502 0                 # F:/Projects/UI-01_sw1_hw1/lib_i2c/src/i2c_master_async.xc:502:0
	add r1, r11, r1
	.loc	2 502 0                 # F:/Projects/UI-01_sw1_hw1/lib_i2c/src/i2c_master_async.xc:502:0
	bt r2, .LBB4_3
# BB#4:                                 # %ifdone
.Lxtalabel1:
	#DEBUG_VALUE: _i.i2c_master_async_if.i2c_master_async_comb._c0.read:device_addr <- undef
	mov r2, r0
	bu .LBB4_5
.LBB4_3:
	#DEBUG_VALUE: _i.i2c_master_async_if.i2c_master_async_comb._c0.read:device_addr <- undef
	ldc r2, 4
.LBB4_5:                                # %ifdone
.Lxtalabel2:
	#DEBUG_VALUE: _i.i2c_master_async_if.i2c_master_async_comb._c0.read:device_addr <- undef
	.loc	2 504 0                 # F:/Projects/UI-01_sw1_hw1/lib_i2c/src/i2c_master_async.xc:504:0
	stw r2, r1[0]
	stw r0, r11[0]
	ldd r5, r4, sp[0]               # 4-byte Folded Reload
	ldaw sp, sp[2]
	retsp 0
	# RETURN_REG_HOLDER
.Ltmp33:
	.cc_bottom _i.i2c_master_async_if.i2c_master_async_comb._c0.read.function
	.set	_i.i2c_master_async_if.i2c_master_async_comb._c0.read.nstackwords,2
	.globl	_i.i2c_master_async_if.i2c_master_async_comb._c0.read.nstackwords
	.set	_i.i2c_master_async_if.i2c_master_async_comb._c0.read.maxcores,1
	.globl	_i.i2c_master_async_if.i2c_master_async_comb._c0.read.maxcores
	.set	_i.i2c_master_async_if.i2c_master_async_comb._c0.read.maxtimers,0
	.globl	_i.i2c_master_async_if.i2c_master_async_comb._c0.read.maxtimers
	.set	_i.i2c_master_async_if.i2c_master_async_comb._c0.read.maxchanends,0
	.globl	_i.i2c_master_async_if.i2c_master_async_comb._c0.read.maxchanends
.Ltmp34:
	.size	_i.i2c_master_async_if.i2c_master_async_comb._c0.read, .Ltmp34-_i.i2c_master_async_if.i2c_master_async_comb._c0.read
.Lfunc_end4:
	.cfi_endproc

	.globl	_i.i2c_master_async_if.i2c_master_async_comb._c0.write
	.align	4
	.type	_i.i2c_master_async_if.i2c_master_async_comb._c0.write,@function
	.cc_top _i.i2c_master_async_if.i2c_master_async_comb._c0.write.function,_i.i2c_master_async_if.i2c_master_async_comb._c0.write
_i.i2c_master_async_if.i2c_master_async_comb._c0.write: # @_i.i2c_master_async_if.i2c_master_async_comb._c0.write
.Lfunc_begin5:
	.loc	2 468 0                 # F:/Projects/UI-01_sw1_hw1/lib_i2c/src/i2c_master_async.xc:468:0
	.cfi_startproc
	.issue_mode single
# BB#0:                                 # %allocas
	ENTSP_lu6 6
.Ltmp35:
	.cfi_def_cfa_offset 24
.Ltmp36:
	.cfi_offset 15, 0
	std r5, r4, sp[1]               # 4-byte Folded Spill
.Ltmp37:
	.cfi_offset 4, -16
.Ltmp38:
	.cfi_offset 5, -12
	stw r6, sp[4]                   # 4-byte Folded Spill
.Ltmp39:
	.cfi_offset 6, -8
	#DEBUG_VALUE: _i.i2c_master_async_if.i2c_master_async_comb._c0.write:p <- R0
	#DEBUG_VALUE: _i.i2c_master_async_if.i2c_master_async_comb._c0.write:device_addr <- R1
	#DEBUG_VALUE: _i.i2c_master_async_if.i2c_master_async_comb._c0.write:buf0 <- R2
	#DEBUG_VALUE: _i.i2c_master_async_if.i2c_master_async_comb._c0.write:n <- R3
	ldw r11, sp[7]
	#DEBUG_VALUE: _i.i2c_master_async_if.i2c_master_async_comb._c0.write:_send_stop_bit <- R11
.Ltmp40:
	#DEBUG_VALUE: _i.i2c_master_async_if.i2c_master_async_comb._c0.write:device_addr <- undef
	ldw r4, r0[0]
	ldw r5, r0[1]
.Ltmp41:
.LBB5_1:                                # %allocas
                                        # =>This Inner Loop Header: Depth=1
	ldw r0, r4[0]
	bf r0, .LBB5_1
# BB#2:                                 # %ifdone
	#DEBUG_VALUE: _i.i2c_master_async_if.i2c_master_async_comb._c0.write:device_addr <- undef
.Ltmp42:
	#DEBUG_VALUE: _i.i2c_master_async_if.i2c_master_async_comb._c0.write:buf0 <- R2
	#DEBUG_VALUE: _i.i2c_master_async_if.i2c_master_async_comb._c0.write:n <- R3
	#DEBUG_VALUE: _i.i2c_master_async_if.i2c_master_async_comb._c0.write:_send_stop_bit <- R11
	ldc r0, 0
	stw r0, r4[0]
	ldc r6, 68
	.loc	2 470 0 prologue_end    # F:/Projects/UI-01_sw1_hw1/lib_i2c/src/i2c_master_async.xc:470:0
.Ltmp43:
	add r6, r4, r6
	.loc	2 470 0                 # F:/Projects/UI-01_sw1_hw1/lib_i2c/src/i2c_master_async.xc:470:0
	shl r1, r1, 1
	.loc	2 470 0                 # F:/Projects/UI-01_sw1_hw1/lib_i2c/src/i2c_master_async.xc:470:0
	stw r1, r6[0]
	ldc r1, 72
	.loc	2 471 0                 # F:/Projects/UI-01_sw1_hw1/lib_i2c/src/i2c_master_async.xc:471:0
	add r1, r4, r1
	.loc	2 471 0                 # F:/Projects/UI-01_sw1_hw1/lib_i2c/src/i2c_master_async.xc:471:0
	stw r0, r1[0]
	ldc r1, 60
	.loc	2 472 0                 # F:/Projects/UI-01_sw1_hw1/lib_i2c/src/i2c_master_async.xc:472:0
	add r1, r4, r1
	.loc	2 472 0                 # F:/Projects/UI-01_sw1_hw1/lib_i2c/src/i2c_master_async.xc:472:0
	stw r0, r1[0]
	ldc r0, 80
	.loc	2 473 0                 # F:/Projects/UI-01_sw1_hw1/lib_i2c/src/i2c_master_async.xc:473:0
	add r0, r4, r0
	.loc	2 473 0                 # F:/Projects/UI-01_sw1_hw1/lib_i2c/src/i2c_master_async.xc:473:0
	stw r3, r0[0]
	ldc r0, 92
	.loc	2 474 0                 # F:/Projects/UI-01_sw1_hw1/lib_i2c/src/i2c_master_async.xc:474:0
	add r0, r4, r0
	.loc	2 474 0                 # F:/Projects/UI-01_sw1_hw1/lib_i2c/src/i2c_master_async.xc:474:0
	stw r11, r0[0]
	.loc	2 475 0                 # F:/Projects/UI-01_sw1_hw1/lib_i2c/src/i2c_master_async.xc:475:0
	ldw r0, r4[11]
	.loc	2 475 0                 # F:/Projects/UI-01_sw1_hw1/lib_i2c/src/i2c_master_async.xc:475:0
	lsu r0, r0, r3
.Ltrap_info1:
	ecallt r0
	#DEBUG_VALUE: _i.i2c_master_async_if.i2c_master_async_comb._c0.write:device_addr <- undef
	#DEBUG_VALUE: _i.i2c_master_async_if.i2c_master_async_comb._c0.write:buf0 <- R2
	#DEBUG_VALUE: _i.i2c_master_async_if.i2c_master_async_comb._c0.write:n <- R3
	.loc	2 475 0                 # F:/Projects/UI-01_sw1_hw1/lib_i2c/src/i2c_master_async.xc:475:0
	ldw r0, r4[10]
	.loc	2 475 0                 # F:/Projects/UI-01_sw1_hw1/lib_i2c/src/i2c_master_async.xc:475:0
	mov r1, r2
	mov r2, r3
.Ltmp44:
	bl memcpy
.Ltmp45:
	ldc r0, 76
	.loc	2 478 0                 # F:/Projects/UI-01_sw1_hw1/lib_i2c/src/i2c_master_async.xc:478:0
	add r0, r4, r0
	mkmsk r1, 32
	.loc	2 478 0                 # F:/Projects/UI-01_sw1_hw1/lib_i2c/src/i2c_master_async.xc:478:0
	stw r1, r0[0]
	ldc r0, 56
	.loc	2 479 0                 # F:/Projects/UI-01_sw1_hw1/lib_i2c/src/i2c_master_async.xc:479:0
	add r1, r4, r0
	mkmsk r0, 1
	.loc	2 479 0                 # F:/Projects/UI-01_sw1_hw1/lib_i2c/src/i2c_master_async.xc:479:0
	stw r0, r1[0]
	ldc r1, 88
	.loc	2 480 0                 # F:/Projects/UI-01_sw1_hw1/lib_i2c/src/i2c_master_async.xc:480:0
	add r1, r4, r1
	.loc	2 480 0                 # F:/Projects/UI-01_sw1_hw1/lib_i2c/src/i2c_master_async.xc:480:0
	stw r5, r1[0]
	ldc r1, 84
	.loc	2 481 0                 # F:/Projects/UI-01_sw1_hw1/lib_i2c/src/i2c_master_async.xc:481:0
	add r1, r4, r1
	.loc	2 481 0                 # F:/Projects/UI-01_sw1_hw1/lib_i2c/src/i2c_master_async.xc:481:0
	gettime r2
	.loc	2 481 0                 # F:/Projects/UI-01_sw1_hw1/lib_i2c/src/i2c_master_async.xc:481:0
	stw r2, r1[0]
	ldc r1, 96
	.loc	2 482 7                 # F:/Projects/UI-01_sw1_hw1/lib_i2c/src/i2c_master_async.xc:482:7
.Ltmp46:
	add r1, r4, r1
	.loc	2 482 7                 # F:/Projects/UI-01_sw1_hw1/lib_i2c/src/i2c_master_async.xc:482:7
	ldw r2, r1[0]
	ldc r1, 48
	.loc	2 483 0                 # F:/Projects/UI-01_sw1_hw1/lib_i2c/src/i2c_master_async.xc:483:0
	add r1, r4, r1
	bt r2, .LBB5_3
# BB#4:                                 # %aftercheck30
.Lxtalabel3:
	#DEBUG_VALUE: _i.i2c_master_async_if.i2c_master_async_comb._c0.write:device_addr <- undef
	.loc	2 483 0                 # F:/Projects/UI-01_sw1_hw1/lib_i2c/src/i2c_master_async.xc:483:0
	mov r2, r0
	bu .LBB5_5
.LBB5_3:
	#DEBUG_VALUE: _i.i2c_master_async_if.i2c_master_async_comb._c0.write:device_addr <- undef
	ldc r2, 4
.LBB5_5:                                # %aftercheck30
.Lxtalabel4:
	#DEBUG_VALUE: _i.i2c_master_async_if.i2c_master_async_comb._c0.write:device_addr <- undef
	.loc	2 485 0                 # F:/Projects/UI-01_sw1_hw1/lib_i2c/src/i2c_master_async.xc:485:0
	stw r2, r1[0]
	stw r0, r4[0]
	ldw r6, sp[4]                   # 4-byte Folded Reload
	ldd r5, r4, sp[1]               # 4-byte Folded Reload
	retsp 6
	# RETURN_REG_HOLDER
.Ltmp47:
	.cc_bottom _i.i2c_master_async_if.i2c_master_async_comb._c0.write.function
	.set	_i.i2c_master_async_if.i2c_master_async_comb._c0.write.nstackwords,(memcpy.nstackwords + 6)
	.globl	_i.i2c_master_async_if.i2c_master_async_comb._c0.write.nstackwords
	.set	_i.i2c_master_async_if.i2c_master_async_comb._c0.write.maxcores,1
	.globl	_i.i2c_master_async_if.i2c_master_async_comb._c0.write.maxcores
	.set	_i.i2c_master_async_if.i2c_master_async_comb._c0.write.maxtimers,0
	.globl	_i.i2c_master_async_if.i2c_master_async_comb._c0.write.maxtimers
	.set	_i.i2c_master_async_if.i2c_master_async_comb._c0.write.maxchanends,0
	.globl	_i.i2c_master_async_if.i2c_master_async_comb._c0.write.maxchanends
.Ltmp48:
	.size	_i.i2c_master_async_if.i2c_master_async_comb._c0.write, .Ltmp48-_i.i2c_master_async_if.i2c_master_async_comb._c0.write
.Lfunc_end5:
	.cfi_endproc

	.weak	_i.i2c_master_if._chan.shutdown
	.align	4
	.type	_i.i2c_master_if._chan.shutdown,@function
	.cc_top _i.i2c_master_if._chan.shutdown.function,_i.i2c_master_if._chan.shutdown
_i.i2c_master_if._chan.shutdown:        # @_i.i2c_master_if._chan.shutdown
	.cfi_startproc
	.issue_mode single
# BB#0:                                 # %allocas
	ENTSP_lu6 4
.Ltmp49:
	.cfi_def_cfa_offset 16
.Ltmp50:
	.cfi_offset 15, 0
	stw r4, sp[2]                   # 4-byte Folded Spill
.Ltmp51:
	.cfi_offset 4, -8
	#DEBUG_VALUE: _i.i2c_master_if._chan.shutdown:dest <- R0
	getr r4, 2
	setd res[r4], r0
	add r0, r4, 3
	out res[r4], r0
	outct res[r4], 2
	ldc r1, 0
	mov r0, r4
	bl __interface_wait_and_yield
	in r0, res[r4]
	chkct res[r4], 1
	freer res[r4]
	ldw r4, sp[2]                   # 4-byte Folded Reload
	retsp 4
	# RETURN_REG_HOLDER
	.cc_bottom _i.i2c_master_if._chan.shutdown.function
	.set	_i.i2c_master_if._chan.shutdown.nstackwords,((_i.i2c_master_if._client_call_y.max.nstackwords $M ($D __interface_wait_and_yield.nstackwords ? __interface_wait_and_yield.nstackwords $: _i.i2c_master_if._client_call_y.max.nstackwords)) + 4)
	.globl	_i.i2c_master_if._chan.shutdown.nstackwords
	.weak	_i.i2c_master_if._chan.shutdown.nstackwords
	.set	_i.i2c_master_if._chan.shutdown.maxcores,($D __interface_wait_and_yield.maxcores ? __interface_wait_and_yield.maxcores $: _i.i2c_master_if._client_call_y.max.maxcores) $M 1
	.globl	_i.i2c_master_if._chan.shutdown.maxcores
	.weak	_i.i2c_master_if._chan.shutdown.maxcores
	.set	_i.i2c_master_if._chan.shutdown.maxtimers,($D __interface_wait_and_yield.maxtimers ? __interface_wait_and_yield.maxtimers $: _i.i2c_master_if._client_call_y.max.maxtimers) $M 0
	.globl	_i.i2c_master_if._chan.shutdown.maxtimers
	.weak	_i.i2c_master_if._chan.shutdown.maxtimers
	.set	_i.i2c_master_if._chan.shutdown.maxchanends,(1 + ($D __interface_wait_and_yield.maxchanends ? __interface_wait_and_yield.maxchanends $: _i.i2c_master_if._client_call_y.max.maxchanends)) $M 1
	.globl	_i.i2c_master_if._chan.shutdown.maxchanends
	.weak	_i.i2c_master_if._chan.shutdown.maxchanends
.Ltmp52:
	.size	_i.i2c_master_if._chan.shutdown, .Ltmp52-_i.i2c_master_if._chan.shutdown
	.cfi_endproc

	.weak	_i.i2c_master_if._chan.send_stop_bit
	.align	4
	.type	_i.i2c_master_if._chan.send_stop_bit,@function
	.cc_top _i.i2c_master_if._chan.send_stop_bit.function,_i.i2c_master_if._chan.send_stop_bit
_i.i2c_master_if._chan.send_stop_bit:   # @_i.i2c_master_if._chan.send_stop_bit
	.cfi_startproc
	.issue_mode single
# BB#0:                                 # %allocas
	ENTSP_lu6 4
.Ltmp53:
	.cfi_def_cfa_offset 16
.Ltmp54:
	.cfi_offset 15, 0
	stw r4, sp[2]                   # 4-byte Folded Spill
.Ltmp55:
	.cfi_offset 4, -8
	#DEBUG_VALUE: _i.i2c_master_if._chan.send_stop_bit:dest <- R0
	getr r4, 2
	setd res[r4], r0
	add r0, r4, 2
	out res[r4], r0
	outct res[r4], 2
	ldc r1, 0
	mov r0, r4
	bl __interface_wait_and_yield
	in r0, res[r4]
	chkct res[r4], 1
	freer res[r4]
	ldw r4, sp[2]                   # 4-byte Folded Reload
	retsp 4
	# RETURN_REG_HOLDER
	.cc_bottom _i.i2c_master_if._chan.send_stop_bit.function
	.set	_i.i2c_master_if._chan.send_stop_bit.nstackwords,((_i.i2c_master_if._client_call_y.max.nstackwords $M ($D __interface_wait_and_yield.nstackwords ? __interface_wait_and_yield.nstackwords $: _i.i2c_master_if._client_call_y.max.nstackwords)) + 4)
	.globl	_i.i2c_master_if._chan.send_stop_bit.nstackwords
	.weak	_i.i2c_master_if._chan.send_stop_bit.nstackwords
	.set	_i.i2c_master_if._chan.send_stop_bit.maxcores,($D __interface_wait_and_yield.maxcores ? __interface_wait_and_yield.maxcores $: _i.i2c_master_if._client_call_y.max.maxcores) $M 1
	.globl	_i.i2c_master_if._chan.send_stop_bit.maxcores
	.weak	_i.i2c_master_if._chan.send_stop_bit.maxcores
	.set	_i.i2c_master_if._chan.send_stop_bit.maxtimers,($D __interface_wait_and_yield.maxtimers ? __interface_wait_and_yield.maxtimers $: _i.i2c_master_if._client_call_y.max.maxtimers) $M 0
	.globl	_i.i2c_master_if._chan.send_stop_bit.maxtimers
	.weak	_i.i2c_master_if._chan.send_stop_bit.maxtimers
	.set	_i.i2c_master_if._chan.send_stop_bit.maxchanends,(1 + ($D __interface_wait_and_yield.maxchanends ? __interface_wait_and_yield.maxchanends $: _i.i2c_master_if._client_call_y.max.maxchanends)) $M 1
	.globl	_i.i2c_master_if._chan.send_stop_bit.maxchanends
	.weak	_i.i2c_master_if._chan.send_stop_bit.maxchanends
.Ltmp56:
	.size	_i.i2c_master_if._chan.send_stop_bit, .Ltmp56-_i.i2c_master_if._chan.send_stop_bit
	.cfi_endproc

	.weak	_i.i2c_master_if._chan.read
	.align	4
	.type	_i.i2c_master_if._chan.read,@function
	.cc_top _i.i2c_master_if._chan.read.function,_i.i2c_master_if._chan.read
_i.i2c_master_if._chan.read:            # @_i.i2c_master_if._chan.read
	.cfi_startproc
	.issue_mode single
# BB#0:                                 # %allocas
	ENTSP_lu6 8
.Ltmp57:
	.cfi_def_cfa_offset 32
.Ltmp58:
	.cfi_offset 15, 0
	std r5, r4, sp[1]               # 4-byte Folded Spill
.Ltmp59:
	.cfi_offset 4, -24
.Ltmp60:
	.cfi_offset 5, -20
	std r7, r6, sp[2]               # 4-byte Folded Spill
.Ltmp61:
	.cfi_offset 6, -16
.Ltmp62:
	.cfi_offset 7, -12
	stw r8, sp[6]                   # 4-byte Folded Spill
.Ltmp63:
	.cfi_offset 8, -8
	#DEBUG_VALUE: _i.i2c_master_if._chan.read:dest <- R0
	#DEBUG_VALUE: _i.i2c_master_if._chan.read:param1 <- R1
	#DEBUG_VALUE: _i.i2c_master_if._chan.read:param2 <- R2
	#DEBUG_VALUE: _i.i2c_master_if._chan.read:param3 <- R3
	#DEBUG_VALUE: _i.i2c_master_if._chan.read:param4 <- [SP+36]
	mov r5, r3
	#DEBUG_VALUE: _i.i2c_master_if._chan.read:param3 <- R5
	mov r6, r2
	#DEBUG_VALUE: _i.i2c_master_if._chan.read:param2 <- R6
	mov r7, r1
	#DEBUG_VALUE: _i.i2c_master_if._chan.read:param1 <- R7
	ldw r8, sp[9]
	getr r4, 2
	setd res[r4], r0
	add r0, r4, 1
	out res[r4], r0
	outct res[r4], 2
	ldc r1, 0
	mov r0, r4
	bl __interface_wait_and_yield
	chkct res[r4], 1
	outt res[r4], r7
	stw r6, sp[1]
	out res[r4], r5
	out res[r4], r8
	outct res[r4], 2
	ldaw r1, sp[1]
	mov r0, r4
	bl __interface_client_call
	in r0, res[r4]
	chkct res[r4], 1
	freer res[r4]
	ldw r8, sp[6]                   # 4-byte Folded Reload
	ldd r7, r6, sp[2]               # 4-byte Folded Reload
	ldd r5, r4, sp[1]               # 4-byte Folded Reload
	retsp 8
	# RETURN_REG_HOLDER
	.cc_bottom _i.i2c_master_if._chan.read.function
	.set	_i.i2c_master_if._chan.read.nstackwords,((_i.i2c_master_if._client_call_y.max.nstackwords $M ($D __interface_wait_and_yield.nstackwords ? __interface_wait_and_yield.nstackwords $: _i.i2c_master_if._client_call_y.max.nstackwords) $M __interface_client_call.nstackwords) + 8)
	.globl	_i.i2c_master_if._chan.read.nstackwords
	.weak	_i.i2c_master_if._chan.read.nstackwords
	.set	_i.i2c_master_if._chan.read.maxcores,__interface_client_call.maxcores $M ($D __interface_wait_and_yield.maxcores ? __interface_wait_and_yield.maxcores $: _i.i2c_master_if._client_call_y.max.maxcores) $M 1
	.globl	_i.i2c_master_if._chan.read.maxcores
	.weak	_i.i2c_master_if._chan.read.maxcores
	.set	_i.i2c_master_if._chan.read.maxtimers,__interface_client_call.maxtimers $M ($D __interface_wait_and_yield.maxtimers ? __interface_wait_and_yield.maxtimers $: _i.i2c_master_if._client_call_y.max.maxtimers) $M 0
	.globl	_i.i2c_master_if._chan.read.maxtimers
	.weak	_i.i2c_master_if._chan.read.maxtimers
	.set	_i.i2c_master_if._chan.read.maxchanends,(1 + __interface_client_call.maxchanends) $M (1 + ($D __interface_wait_and_yield.maxchanends ? __interface_wait_and_yield.maxchanends $: _i.i2c_master_if._client_call_y.max.maxchanends)) $M 1
	.globl	_i.i2c_master_if._chan.read.maxchanends
	.weak	_i.i2c_master_if._chan.read.maxchanends
.Ltmp64:
	.size	_i.i2c_master_if._chan.read, .Ltmp64-_i.i2c_master_if._chan.read
	.cfi_endproc

	.weak	_i.i2c_master_if._chan.write
	.align	4
	.type	_i.i2c_master_if._chan.write,@function
	.cc_top _i.i2c_master_if._chan.write.function,_i.i2c_master_if._chan.write
_i.i2c_master_if._chan.write:           # @_i.i2c_master_if._chan.write
	.cfi_startproc
	.issue_mode single
# BB#0:                                 # %allocas
	ENTSP_lu6 8
.Ltmp65:
	.cfi_def_cfa_offset 32
.Ltmp66:
	.cfi_offset 15, 0
	std r5, r4, sp[1]               # 4-byte Folded Spill
.Ltmp67:
	.cfi_offset 4, -24
.Ltmp68:
	.cfi_offset 5, -20
	std r7, r6, sp[2]               # 4-byte Folded Spill
.Ltmp69:
	.cfi_offset 6, -16
.Ltmp70:
	.cfi_offset 7, -12
	std r9, r8, sp[3]               # 4-byte Folded Spill
.Ltmp71:
	.cfi_offset 8, -8
.Ltmp72:
	.cfi_offset 9, -4
	#DEBUG_VALUE: _i.i2c_master_if._chan.write:dest <- R0
	#DEBUG_VALUE: _i.i2c_master_if._chan.write:param1 <- R1
	#DEBUG_VALUE: _i.i2c_master_if._chan.write:param2 <- R2
	#DEBUG_VALUE: _i.i2c_master_if._chan.write:param3 <- R3
	#DEBUG_VALUE: _i.i2c_master_if._chan.write:param4 <- [SP+36]
	#DEBUG_VALUE: _i.i2c_master_if._chan.write:param5 <- [SP+40]
	mov r5, r3
	#DEBUG_VALUE: _i.i2c_master_if._chan.write:param3 <- R5
	mov r6, r2
	#DEBUG_VALUE: _i.i2c_master_if._chan.write:param2 <- R6
	mov r7, r1
	#DEBUG_VALUE: _i.i2c_master_if._chan.write:param1 <- R7
	ldw r9, sp[10]
	ldw r8, sp[9]
	getr r4, 2
	setd res[r4], r0
	out res[r4], r4
	outct res[r4], 2
	ldc r1, 0
	mov r0, r4
	bl __interface_wait_and_yield
	chkct res[r4], 1
	outt res[r4], r7
	stw r6, sp[1]
	out res[r4], r5
	ldw r0, r8[0]
	out res[r4], r0
	out res[r4], r9
	outct res[r4], 2
	ldaw r1, sp[1]
	mov r0, r4
	bl __interface_client_call
	in r0, res[r4]
	stw r0, r8[0]
	in r0, res[r4]
	chkct res[r4], 1
	freer res[r4]
	ldd r9, r8, sp[3]               # 4-byte Folded Reload
	ldd r7, r6, sp[2]               # 4-byte Folded Reload
	ldd r5, r4, sp[1]               # 4-byte Folded Reload
	retsp 8
	# RETURN_REG_HOLDER
	.cc_bottom _i.i2c_master_if._chan.write.function
	.set	_i.i2c_master_if._chan.write.nstackwords,((_i.i2c_master_if._client_call_y.max.nstackwords $M ($D __interface_wait_and_yield.nstackwords ? __interface_wait_and_yield.nstackwords $: _i.i2c_master_if._client_call_y.max.nstackwords) $M __interface_client_call.nstackwords) + 8)
	.globl	_i.i2c_master_if._chan.write.nstackwords
	.weak	_i.i2c_master_if._chan.write.nstackwords
	.set	_i.i2c_master_if._chan.write.maxcores,__interface_client_call.maxcores $M ($D __interface_wait_and_yield.maxcores ? __interface_wait_and_yield.maxcores $: _i.i2c_master_if._client_call_y.max.maxcores) $M 1
	.globl	_i.i2c_master_if._chan.write.maxcores
	.weak	_i.i2c_master_if._chan.write.maxcores
	.set	_i.i2c_master_if._chan.write.maxtimers,__interface_client_call.maxtimers $M ($D __interface_wait_and_yield.maxtimers ? __interface_wait_and_yield.maxtimers $: _i.i2c_master_if._client_call_y.max.maxtimers) $M 0
	.globl	_i.i2c_master_if._chan.write.maxtimers
	.weak	_i.i2c_master_if._chan.write.maxtimers
	.set	_i.i2c_master_if._chan.write.maxchanends,(1 + __interface_client_call.maxchanends) $M (1 + ($D __interface_wait_and_yield.maxchanends ? __interface_wait_and_yield.maxchanends $: _i.i2c_master_if._client_call_y.max.maxchanends)) $M 1
	.globl	_i.i2c_master_if._chan.write.maxchanends
	.weak	_i.i2c_master_if._chan.write.maxchanends
.Ltmp73:
	.size	_i.i2c_master_if._chan.write, .Ltmp73-_i.i2c_master_if._chan.write
	.cfi_endproc

	.weak	_i.i2c_master_if._chan_yield.shutdown
	.align	4
	.type	_i.i2c_master_if._chan_yield.shutdown,@function
	.cc_top _i.i2c_master_if._chan_yield.shutdown.function,_i.i2c_master_if._chan_yield.shutdown
_i.i2c_master_if._chan_yield.shutdown:  # @_i.i2c_master_if._chan_yield.shutdown
	.cfi_startproc
	.issue_mode single
# BB#0:                                 # %allocas
	ENTSP_lu6 4
.Ltmp74:
	.cfi_def_cfa_offset 16
.Ltmp75:
	.cfi_offset 15, 0
	std r5, r4, sp[1]               # 4-byte Folded Spill
.Ltmp76:
	.cfi_offset 4, -8
.Ltmp77:
	.cfi_offset 5, -4
	#DEBUG_VALUE: _i.i2c_master_if._chan_yield.shutdown:s <- R0
	ldw r1, r0[0]
	getr r4, 2
	setd res[r4], r1
	add r1, r4, 3
	out res[r4], r1
	outct res[r4], 2
	ldw r5, r0[1]
	mov r0, r4
	mov r1, r5
	bl __interface_wait_and_yield
	ldc r1, 0
	mov r0, r4
	mov r2, r5
	bl __interface_client_call_y
	chkct res[r4], 1
	freer res[r4]
	ldd r5, r4, sp[1]               # 4-byte Folded Reload
	retsp 4
	# RETURN_REG_HOLDER
	.cc_bottom _i.i2c_master_if._chan_yield.shutdown.function
	.set	_i.i2c_master_if._chan_yield.shutdown.nstackwords,((($D __interface_wait_and_yield.nstackwords ? __interface_wait_and_yield.nstackwords $: _i.i2c_master_if._client_call_y.max.nstackwords) $M _i.i2c_master_if._client_call_y.max.nstackwords $M ($D __interface_client_call_y.nstackwords ? __interface_client_call_y.nstackwords $: _i.i2c_master_if._client_call_y.max.nstackwords)) + 4)
	.globl	_i.i2c_master_if._chan_yield.shutdown.nstackwords
	.weak	_i.i2c_master_if._chan_yield.shutdown.nstackwords
	.set	_i.i2c_master_if._chan_yield.shutdown.maxcores,($D __interface_client_call_y.maxcores ? __interface_client_call_y.maxcores $: _i.i2c_master_if._client_call_y.max.maxcores) $M ($D __interface_wait_and_yield.maxcores ? __interface_wait_and_yield.maxcores $: _i.i2c_master_if._client_call_y.max.maxcores) $M 1
	.globl	_i.i2c_master_if._chan_yield.shutdown.maxcores
	.weak	_i.i2c_master_if._chan_yield.shutdown.maxcores
	.set	_i.i2c_master_if._chan_yield.shutdown.maxtimers,($D __interface_client_call_y.maxtimers ? __interface_client_call_y.maxtimers $: _i.i2c_master_if._client_call_y.max.maxtimers) $M ($D __interface_wait_and_yield.maxtimers ? __interface_wait_and_yield.maxtimers $: _i.i2c_master_if._client_call_y.max.maxtimers) $M 0
	.globl	_i.i2c_master_if._chan_yield.shutdown.maxtimers
	.weak	_i.i2c_master_if._chan_yield.shutdown.maxtimers
	.set	_i.i2c_master_if._chan_yield.shutdown.maxchanends,(1 + ($D __interface_client_call_y.maxchanends ? __interface_client_call_y.maxchanends $: _i.i2c_master_if._client_call_y.max.maxchanends)) $M (1 + ($D __interface_wait_and_yield.maxchanends ? __interface_wait_and_yield.maxchanends $: _i.i2c_master_if._client_call_y.max.maxchanends)) $M 1
	.globl	_i.i2c_master_if._chan_yield.shutdown.maxchanends
	.weak	_i.i2c_master_if._chan_yield.shutdown.maxchanends
.Ltmp78:
	.size	_i.i2c_master_if._chan_yield.shutdown, .Ltmp78-_i.i2c_master_if._chan_yield.shutdown
	.cfi_endproc

	.weak	_i.i2c_master_if._chan_yield.send_stop_bit
	.align	4
	.type	_i.i2c_master_if._chan_yield.send_stop_bit,@function
	.cc_top _i.i2c_master_if._chan_yield.send_stop_bit.function,_i.i2c_master_if._chan_yield.send_stop_bit
_i.i2c_master_if._chan_yield.send_stop_bit: # @_i.i2c_master_if._chan_yield.send_stop_bit
	.cfi_startproc
	.issue_mode single
# BB#0:                                 # %allocas
	ENTSP_lu6 4
.Ltmp79:
	.cfi_def_cfa_offset 16
.Ltmp80:
	.cfi_offset 15, 0
	std r5, r4, sp[1]               # 4-byte Folded Spill
.Ltmp81:
	.cfi_offset 4, -8
.Ltmp82:
	.cfi_offset 5, -4
	#DEBUG_VALUE: _i.i2c_master_if._chan_yield.send_stop_bit:s <- R0
	ldw r1, r0[0]
	getr r4, 2
	setd res[r4], r1
	add r1, r4, 2
	out res[r4], r1
	outct res[r4], 2
	ldw r5, r0[1]
	mov r0, r4
	mov r1, r5
	bl __interface_wait_and_yield
	ldc r1, 0
	mov r0, r4
	mov r2, r5
	bl __interface_client_call_y
	chkct res[r4], 1
	freer res[r4]
	ldd r5, r4, sp[1]               # 4-byte Folded Reload
	retsp 4
	# RETURN_REG_HOLDER
	.cc_bottom _i.i2c_master_if._chan_yield.send_stop_bit.function
	.set	_i.i2c_master_if._chan_yield.send_stop_bit.nstackwords,((($D __interface_wait_and_yield.nstackwords ? __interface_wait_and_yield.nstackwords $: _i.i2c_master_if._client_call_y.max.nstackwords) $M _i.i2c_master_if._client_call_y.max.nstackwords $M ($D __interface_client_call_y.nstackwords ? __interface_client_call_y.nstackwords $: _i.i2c_master_if._client_call_y.max.nstackwords)) + 4)
	.globl	_i.i2c_master_if._chan_yield.send_stop_bit.nstackwords
	.weak	_i.i2c_master_if._chan_yield.send_stop_bit.nstackwords
	.set	_i.i2c_master_if._chan_yield.send_stop_bit.maxcores,($D __interface_client_call_y.maxcores ? __interface_client_call_y.maxcores $: _i.i2c_master_if._client_call_y.max.maxcores) $M ($D __interface_wait_and_yield.maxcores ? __interface_wait_and_yield.maxcores $: _i.i2c_master_if._client_call_y.max.maxcores) $M 1
	.globl	_i.i2c_master_if._chan_yield.send_stop_bit.maxcores
	.weak	_i.i2c_master_if._chan_yield.send_stop_bit.maxcores
	.set	_i.i2c_master_if._chan_yield.send_stop_bit.maxtimers,($D __interface_client_call_y.maxtimers ? __interface_client_call_y.maxtimers $: _i.i2c_master_if._client_call_y.max.maxtimers) $M ($D __interface_wait_and_yield.maxtimers ? __interface_wait_and_yield.maxtimers $: _i.i2c_master_if._client_call_y.max.maxtimers) $M 0
	.globl	_i.i2c_master_if._chan_yield.send_stop_bit.maxtimers
	.weak	_i.i2c_master_if._chan_yield.send_stop_bit.maxtimers
	.set	_i.i2c_master_if._chan_yield.send_stop_bit.maxchanends,(1 + ($D __interface_client_call_y.maxchanends ? __interface_client_call_y.maxchanends $: _i.i2c_master_if._client_call_y.max.maxchanends)) $M (1 + ($D __interface_wait_and_yield.maxchanends ? __interface_wait_and_yield.maxchanends $: _i.i2c_master_if._client_call_y.max.maxchanends)) $M 1
	.globl	_i.i2c_master_if._chan_yield.send_stop_bit.maxchanends
	.weak	_i.i2c_master_if._chan_yield.send_stop_bit.maxchanends
.Ltmp83:
	.size	_i.i2c_master_if._chan_yield.send_stop_bit, .Ltmp83-_i.i2c_master_if._chan_yield.send_stop_bit
	.cfi_endproc

	.weak	_i.i2c_master_if._chan_yield.read
	.align	4
	.type	_i.i2c_master_if._chan_yield.read,@function
	.cc_top _i.i2c_master_if._chan_yield.read.function,_i.i2c_master_if._chan_yield.read
_i.i2c_master_if._chan_yield.read:      # @_i.i2c_master_if._chan_yield.read
	.cfi_startproc
	.issue_mode single
# BB#0:                                 # %allocas
	ENTSP_lu6 8
.Ltmp84:
	.cfi_def_cfa_offset 32
.Ltmp85:
	.cfi_offset 15, 0
	std r5, r4, sp[1]               # 4-byte Folded Spill
.Ltmp86:
	.cfi_offset 4, -24
.Ltmp87:
	.cfi_offset 5, -20
	std r7, r6, sp[2]               # 4-byte Folded Spill
.Ltmp88:
	.cfi_offset 6, -16
.Ltmp89:
	.cfi_offset 7, -12
	std r9, r8, sp[3]               # 4-byte Folded Spill
.Ltmp90:
	.cfi_offset 8, -8
.Ltmp91:
	.cfi_offset 9, -4
	#DEBUG_VALUE: _i.i2c_master_if._chan_yield.read:s <- R0
	#DEBUG_VALUE: _i.i2c_master_if._chan_yield.read:param1 <- R1
	#DEBUG_VALUE: _i.i2c_master_if._chan_yield.read:param2 <- R2
	#DEBUG_VALUE: _i.i2c_master_if._chan_yield.read:param3 <- R3
	#DEBUG_VALUE: _i.i2c_master_if._chan_yield.read:param4 <- [SP+36]
	mov r5, r3
	#DEBUG_VALUE: _i.i2c_master_if._chan_yield.read:param3 <- R5
	mov r6, r2
	#DEBUG_VALUE: _i.i2c_master_if._chan_yield.read:param2 <- R6
	mov r7, r1
	#DEBUG_VALUE: _i.i2c_master_if._chan_yield.read:param1 <- R7
	ldw r9, sp[9]
	ldw r1, r0[0]
	getr r4, 2
	setd res[r4], r1
	add r1, r4, 1
	out res[r4], r1
	outct res[r4], 2
	ldw r8, r0[1]
	mov r0, r4
	mov r1, r8
	bl __interface_wait_and_yield
	chkct res[r4], 1
	outt res[r4], r7
	stw r6, sp[1]
	out res[r4], r5
	out res[r4], r9
	outct res[r4], 2
	ldaw r1, sp[1]
	mov r0, r4
	mov r2, r8
	bl __interface_client_call_y
	in r0, res[r4]
	chkct res[r4], 1
	freer res[r4]
	ldd r9, r8, sp[3]               # 4-byte Folded Reload
	ldd r7, r6, sp[2]               # 4-byte Folded Reload
	ldd r5, r4, sp[1]               # 4-byte Folded Reload
	retsp 8
	# RETURN_REG_HOLDER
	.cc_bottom _i.i2c_master_if._chan_yield.read.function
	.set	_i.i2c_master_if._chan_yield.read.nstackwords,((($D __interface_wait_and_yield.nstackwords ? __interface_wait_and_yield.nstackwords $: _i.i2c_master_if._client_call_y.max.nstackwords) $M _i.i2c_master_if._client_call_y.max.nstackwords $M ($D __interface_client_call_y.nstackwords ? __interface_client_call_y.nstackwords $: _i.i2c_master_if._client_call_y.max.nstackwords)) + 8)
	.globl	_i.i2c_master_if._chan_yield.read.nstackwords
	.weak	_i.i2c_master_if._chan_yield.read.nstackwords
	.set	_i.i2c_master_if._chan_yield.read.maxcores,($D __interface_client_call_y.maxcores ? __interface_client_call_y.maxcores $: _i.i2c_master_if._client_call_y.max.maxcores) $M ($D __interface_wait_and_yield.maxcores ? __interface_wait_and_yield.maxcores $: _i.i2c_master_if._client_call_y.max.maxcores) $M 1
	.globl	_i.i2c_master_if._chan_yield.read.maxcores
	.weak	_i.i2c_master_if._chan_yield.read.maxcores
	.set	_i.i2c_master_if._chan_yield.read.maxtimers,($D __interface_client_call_y.maxtimers ? __interface_client_call_y.maxtimers $: _i.i2c_master_if._client_call_y.max.maxtimers) $M ($D __interface_wait_and_yield.maxtimers ? __interface_wait_and_yield.maxtimers $: _i.i2c_master_if._client_call_y.max.maxtimers) $M 0
	.globl	_i.i2c_master_if._chan_yield.read.maxtimers
	.weak	_i.i2c_master_if._chan_yield.read.maxtimers
	.set	_i.i2c_master_if._chan_yield.read.maxchanends,(1 + ($D __interface_client_call_y.maxchanends ? __interface_client_call_y.maxchanends $: _i.i2c_master_if._client_call_y.max.maxchanends)) $M (1 + ($D __interface_wait_and_yield.maxchanends ? __interface_wait_and_yield.maxchanends $: _i.i2c_master_if._client_call_y.max.maxchanends)) $M 1
	.globl	_i.i2c_master_if._chan_yield.read.maxchanends
	.weak	_i.i2c_master_if._chan_yield.read.maxchanends
.Ltmp92:
	.size	_i.i2c_master_if._chan_yield.read, .Ltmp92-_i.i2c_master_if._chan_yield.read
	.cfi_endproc

	.weak	_i.i2c_master_if._chan_yield.write
	.align	4
	.type	_i.i2c_master_if._chan_yield.write,@function
	.cc_top _i.i2c_master_if._chan_yield.write.function,_i.i2c_master_if._chan_yield.write
_i.i2c_master_if._chan_yield.write:     # @_i.i2c_master_if._chan_yield.write
	.cfi_startproc
	.issue_mode single
# BB#0:                                 # %allocas
	ENTSP_lu6 10
.Ltmp93:
	.cfi_def_cfa_offset 40
.Ltmp94:
	.cfi_offset 15, 0
	std r5, r4, sp[1]               # 4-byte Folded Spill
.Ltmp95:
	.cfi_offset 4, -32
.Ltmp96:
	.cfi_offset 5, -28
	std r7, r6, sp[2]               # 4-byte Folded Spill
.Ltmp97:
	.cfi_offset 6, -24
.Ltmp98:
	.cfi_offset 7, -20
	std r9, r8, sp[3]               # 4-byte Folded Spill
.Ltmp99:
	.cfi_offset 8, -16
.Ltmp100:
	.cfi_offset 9, -12
	stw r10, sp[8]                  # 4-byte Folded Spill
.Ltmp101:
	.cfi_offset 10, -8
	#DEBUG_VALUE: _i.i2c_master_if._chan_yield.write:s <- R0
	#DEBUG_VALUE: _i.i2c_master_if._chan_yield.write:param1 <- R1
	#DEBUG_VALUE: _i.i2c_master_if._chan_yield.write:param2 <- R2
	#DEBUG_VALUE: _i.i2c_master_if._chan_yield.write:param3 <- R3
	#DEBUG_VALUE: _i.i2c_master_if._chan_yield.write:param4 <- [SP+44]
	#DEBUG_VALUE: _i.i2c_master_if._chan_yield.write:param5 <- [SP+48]
	mov r5, r3
	#DEBUG_VALUE: _i.i2c_master_if._chan_yield.write:param3 <- R5
	mov r6, r2
	#DEBUG_VALUE: _i.i2c_master_if._chan_yield.write:param2 <- R6
	mov r7, r1
	#DEBUG_VALUE: _i.i2c_master_if._chan_yield.write:param1 <- R7
	ldw r10, sp[12]
	ldw r9, sp[11]
	ldw r1, r0[0]
	getr r4, 2
	setd res[r4], r1
	out res[r4], r4
	outct res[r4], 2
	ldw r8, r0[1]
	mov r0, r4
	mov r1, r8
	bl __interface_wait_and_yield
	chkct res[r4], 1
	outt res[r4], r7
	stw r6, sp[1]
	out res[r4], r5
	ldw r0, r9[0]
	out res[r4], r0
	out res[r4], r10
	outct res[r4], 2
	ldaw r1, sp[1]
	mov r0, r4
	mov r2, r8
	bl __interface_client_call_y
	in r0, res[r4]
	stw r0, r9[0]
	in r0, res[r4]
	chkct res[r4], 1
	freer res[r4]
	ldw r10, sp[8]                  # 4-byte Folded Reload
	ldd r9, r8, sp[3]               # 4-byte Folded Reload
	ldd r7, r6, sp[2]               # 4-byte Folded Reload
	ldd r5, r4, sp[1]               # 4-byte Folded Reload
	retsp 10
	# RETURN_REG_HOLDER
	.cc_bottom _i.i2c_master_if._chan_yield.write.function
	.set	_i.i2c_master_if._chan_yield.write.nstackwords,((($D __interface_wait_and_yield.nstackwords ? __interface_wait_and_yield.nstackwords $: _i.i2c_master_if._client_call_y.max.nstackwords) $M _i.i2c_master_if._client_call_y.max.nstackwords $M ($D __interface_client_call_y.nstackwords ? __interface_client_call_y.nstackwords $: _i.i2c_master_if._client_call_y.max.nstackwords)) + 10)
	.globl	_i.i2c_master_if._chan_yield.write.nstackwords
	.weak	_i.i2c_master_if._chan_yield.write.nstackwords
	.set	_i.i2c_master_if._chan_yield.write.maxcores,($D __interface_client_call_y.maxcores ? __interface_client_call_y.maxcores $: _i.i2c_master_if._client_call_y.max.maxcores) $M ($D __interface_wait_and_yield.maxcores ? __interface_wait_and_yield.maxcores $: _i.i2c_master_if._client_call_y.max.maxcores) $M 1
	.globl	_i.i2c_master_if._chan_yield.write.maxcores
	.weak	_i.i2c_master_if._chan_yield.write.maxcores
	.set	_i.i2c_master_if._chan_yield.write.maxtimers,($D __interface_client_call_y.maxtimers ? __interface_client_call_y.maxtimers $: _i.i2c_master_if._client_call_y.max.maxtimers) $M ($D __interface_wait_and_yield.maxtimers ? __interface_wait_and_yield.maxtimers $: _i.i2c_master_if._client_call_y.max.maxtimers) $M 0
	.globl	_i.i2c_master_if._chan_yield.write.maxtimers
	.weak	_i.i2c_master_if._chan_yield.write.maxtimers
	.set	_i.i2c_master_if._chan_yield.write.maxchanends,(1 + ($D __interface_client_call_y.maxchanends ? __interface_client_call_y.maxchanends $: _i.i2c_master_if._client_call_y.max.maxchanends)) $M (1 + ($D __interface_wait_and_yield.maxchanends ? __interface_wait_and_yield.maxchanends $: _i.i2c_master_if._client_call_y.max.maxchanends)) $M 1
	.globl	_i.i2c_master_if._chan_yield.write.maxchanends
	.weak	_i.i2c_master_if._chan_yield.write.maxchanends
.Ltmp102:
	.size	_i.i2c_master_if._chan_yield.write, .Ltmp102-_i.i2c_master_if._chan_yield.write
	.cfi_endproc

	.weak	_i.i2c_master_async_if._chan.shutdown
	.align	4
	.type	_i.i2c_master_async_if._chan.shutdown,@function
	.cc_top _i.i2c_master_async_if._chan.shutdown.function,_i.i2c_master_async_if._chan.shutdown
_i.i2c_master_async_if._chan.shutdown:  # @_i.i2c_master_async_if._chan.shutdown
	.cfi_startproc
	.issue_mode single
# BB#0:                                 # %allocas
	ENTSP_lu6 4
.Ltmp103:
	.cfi_def_cfa_offset 16
.Ltmp104:
	.cfi_offset 15, 0
	stw r4, sp[2]                   # 4-byte Folded Spill
.Ltmp105:
	.cfi_offset 4, -8
	#DEBUG_VALUE: _i.i2c_master_async_if._chan.shutdown:dest <- R0
	getr r4, 2
	setd res[r4], r0
	add r0, r4, 5
	out res[r4], r0
	outct res[r4], 2
	ldc r1, 0
	mov r0, r4
	bl __interface_wait_and_yield
	in r0, res[r4]
	chkct res[r4], 1
	freer res[r4]
	ldw r4, sp[2]                   # 4-byte Folded Reload
	retsp 4
	# RETURN_REG_HOLDER
	.cc_bottom _i.i2c_master_async_if._chan.shutdown.function
	.set	_i.i2c_master_async_if._chan.shutdown.nstackwords,((_i.i2c_master_async_if._client_call_y.max.nstackwords $M ($D __interface_wait_and_yield.nstackwords ? __interface_wait_and_yield.nstackwords $: _i.i2c_master_async_if._client_call_y.max.nstackwords)) + 4)
	.globl	_i.i2c_master_async_if._chan.shutdown.nstackwords
	.weak	_i.i2c_master_async_if._chan.shutdown.nstackwords
	.set	_i.i2c_master_async_if._chan.shutdown.maxcores,($D __interface_wait_and_yield.maxcores ? __interface_wait_and_yield.maxcores $: _i.i2c_master_async_if._client_call_y.max.maxcores) $M 1
	.globl	_i.i2c_master_async_if._chan.shutdown.maxcores
	.weak	_i.i2c_master_async_if._chan.shutdown.maxcores
	.set	_i.i2c_master_async_if._chan.shutdown.maxtimers,($D __interface_wait_and_yield.maxtimers ? __interface_wait_and_yield.maxtimers $: _i.i2c_master_async_if._client_call_y.max.maxtimers) $M 0
	.globl	_i.i2c_master_async_if._chan.shutdown.maxtimers
	.weak	_i.i2c_master_async_if._chan.shutdown.maxtimers
	.set	_i.i2c_master_async_if._chan.shutdown.maxchanends,(1 + ($D __interface_wait_and_yield.maxchanends ? __interface_wait_and_yield.maxchanends $: _i.i2c_master_async_if._client_call_y.max.maxchanends)) $M 1
	.globl	_i.i2c_master_async_if._chan.shutdown.maxchanends
	.weak	_i.i2c_master_async_if._chan.shutdown.maxchanends
.Ltmp106:
	.size	_i.i2c_master_async_if._chan.shutdown, .Ltmp106-_i.i2c_master_async_if._chan.shutdown
	.cfi_endproc

	.weak	_i.i2c_master_async_if._chan.send_stop_bit
	.align	4
	.type	_i.i2c_master_async_if._chan.send_stop_bit,@function
	.cc_top _i.i2c_master_async_if._chan.send_stop_bit.function,_i.i2c_master_async_if._chan.send_stop_bit
_i.i2c_master_async_if._chan.send_stop_bit: # @_i.i2c_master_async_if._chan.send_stop_bit
	.cfi_startproc
	.issue_mode single
# BB#0:                                 # %allocas
	ENTSP_lu6 4
.Ltmp107:
	.cfi_def_cfa_offset 16
.Ltmp108:
	.cfi_offset 15, 0
	stw r4, sp[2]                   # 4-byte Folded Spill
.Ltmp109:
	.cfi_offset 4, -8
	#DEBUG_VALUE: _i.i2c_master_async_if._chan.send_stop_bit:dest <- R0
	getr r4, 2
	setd res[r4], r0
	add r0, r4, 4
	out res[r4], r0
	outct res[r4], 2
	ldc r1, 0
	mov r0, r4
	bl __interface_wait_and_yield
	in r0, res[r4]
	chkct res[r4], 1
	freer res[r4]
	ldw r4, sp[2]                   # 4-byte Folded Reload
	retsp 4
	# RETURN_REG_HOLDER
	.cc_bottom _i.i2c_master_async_if._chan.send_stop_bit.function
	.set	_i.i2c_master_async_if._chan.send_stop_bit.nstackwords,((_i.i2c_master_async_if._client_call_y.max.nstackwords $M ($D __interface_wait_and_yield.nstackwords ? __interface_wait_and_yield.nstackwords $: _i.i2c_master_async_if._client_call_y.max.nstackwords)) + 4)
	.globl	_i.i2c_master_async_if._chan.send_stop_bit.nstackwords
	.weak	_i.i2c_master_async_if._chan.send_stop_bit.nstackwords
	.set	_i.i2c_master_async_if._chan.send_stop_bit.maxcores,($D __interface_wait_and_yield.maxcores ? __interface_wait_and_yield.maxcores $: _i.i2c_master_async_if._client_call_y.max.maxcores) $M 1
	.globl	_i.i2c_master_async_if._chan.send_stop_bit.maxcores
	.weak	_i.i2c_master_async_if._chan.send_stop_bit.maxcores
	.set	_i.i2c_master_async_if._chan.send_stop_bit.maxtimers,($D __interface_wait_and_yield.maxtimers ? __interface_wait_and_yield.maxtimers $: _i.i2c_master_async_if._client_call_y.max.maxtimers) $M 0
	.globl	_i.i2c_master_async_if._chan.send_stop_bit.maxtimers
	.weak	_i.i2c_master_async_if._chan.send_stop_bit.maxtimers
	.set	_i.i2c_master_async_if._chan.send_stop_bit.maxchanends,(1 + ($D __interface_wait_and_yield.maxchanends ? __interface_wait_and_yield.maxchanends $: _i.i2c_master_async_if._client_call_y.max.maxchanends)) $M 1
	.globl	_i.i2c_master_async_if._chan.send_stop_bit.maxchanends
	.weak	_i.i2c_master_async_if._chan.send_stop_bit.maxchanends
.Ltmp110:
	.size	_i.i2c_master_async_if._chan.send_stop_bit, .Ltmp110-_i.i2c_master_async_if._chan.send_stop_bit
	.cfi_endproc

	.weak	_i.i2c_master_async_if._chan.get_read_data
	.align	4
	.type	_i.i2c_master_async_if._chan.get_read_data,@function
	.cc_top _i.i2c_master_async_if._chan.get_read_data.function,_i.i2c_master_async_if._chan.get_read_data
_i.i2c_master_async_if._chan.get_read_data: # @_i.i2c_master_async_if._chan.get_read_data
	.cfi_startproc
	.issue_mode single
# BB#0:                                 # %allocas
	ENTSP_lu6 6
.Ltmp111:
	.cfi_def_cfa_offset 24
.Ltmp112:
	.cfi_offset 15, 0
	std r5, r4, sp[1]               # 4-byte Folded Spill
.Ltmp113:
	.cfi_offset 4, -16
.Ltmp114:
	.cfi_offset 5, -12
	std r7, r6, sp[2]               # 4-byte Folded Spill
.Ltmp115:
	.cfi_offset 6, -8
.Ltmp116:
	.cfi_offset 7, -4
	#DEBUG_VALUE: _i.i2c_master_async_if._chan.get_read_data:dest <- R0
	#DEBUG_VALUE: _i.i2c_master_async_if._chan.get_read_data:clientNotifyFlag <- R1
	#DEBUG_VALUE: _i.i2c_master_async_if._chan.get_read_data:param2 <- R2
	#DEBUG_VALUE: _i.i2c_master_async_if._chan.get_read_data:param3 <- R3
	mov r4, r3
	#DEBUG_VALUE: _i.i2c_master_async_if._chan.get_read_data:param3 <- R4
	mov r5, r2
	#DEBUG_VALUE: _i.i2c_master_async_if._chan.get_read_data:param2 <- R5
	mov r6, r1
	#DEBUG_VALUE: _i.i2c_master_async_if._chan.get_read_data:clientNotifyFlag <- R6
	getr r7, 2
	setd res[r7], r0
	add r0, r7, 3
	out res[r7], r0
	outct res[r7], 2
	ldc r1, 0
	mov r0, r7
	bl __interface_wait_and_yield
	chkct res[r7], 1
	out res[r7], r6
	stw r5, sp[1]
	out res[r7], r4
	outct res[r7], 2
	ldaw r1, sp[1]
	mov r0, r7
	bl __interface_client_call
	in r0, res[r7]
	chkct res[r7], 1
	freer res[r7]
	ldd r7, r6, sp[2]               # 4-byte Folded Reload
	ldd r5, r4, sp[1]               # 4-byte Folded Reload
	retsp 6
	# RETURN_REG_HOLDER
	.cc_bottom _i.i2c_master_async_if._chan.get_read_data.function
	.set	_i.i2c_master_async_if._chan.get_read_data.nstackwords,((_i.i2c_master_async_if._client_call_y.max.nstackwords $M ($D __interface_wait_and_yield.nstackwords ? __interface_wait_and_yield.nstackwords $: _i.i2c_master_async_if._client_call_y.max.nstackwords) $M __interface_client_call.nstackwords) + 6)
	.globl	_i.i2c_master_async_if._chan.get_read_data.nstackwords
	.weak	_i.i2c_master_async_if._chan.get_read_data.nstackwords
	.set	_i.i2c_master_async_if._chan.get_read_data.maxcores,__interface_client_call.maxcores $M ($D __interface_wait_and_yield.maxcores ? __interface_wait_and_yield.maxcores $: _i.i2c_master_async_if._client_call_y.max.maxcores) $M 1
	.globl	_i.i2c_master_async_if._chan.get_read_data.maxcores
	.weak	_i.i2c_master_async_if._chan.get_read_data.maxcores
	.set	_i.i2c_master_async_if._chan.get_read_data.maxtimers,__interface_client_call.maxtimers $M ($D __interface_wait_and_yield.maxtimers ? __interface_wait_and_yield.maxtimers $: _i.i2c_master_async_if._client_call_y.max.maxtimers) $M 0
	.globl	_i.i2c_master_async_if._chan.get_read_data.maxtimers
	.weak	_i.i2c_master_async_if._chan.get_read_data.maxtimers
	.set	_i.i2c_master_async_if._chan.get_read_data.maxchanends,(1 + __interface_client_call.maxchanends) $M (1 + ($D __interface_wait_and_yield.maxchanends ? __interface_wait_and_yield.maxchanends $: _i.i2c_master_async_if._client_call_y.max.maxchanends)) $M 1
	.globl	_i.i2c_master_async_if._chan.get_read_data.maxchanends
	.weak	_i.i2c_master_async_if._chan.get_read_data.maxchanends
.Ltmp117:
	.size	_i.i2c_master_async_if._chan.get_read_data, .Ltmp117-_i.i2c_master_async_if._chan.get_read_data
	.cfi_endproc

	.weak	_i.i2c_master_async_if._chan.get_write_result
	.align	4
	.type	_i.i2c_master_async_if._chan.get_write_result,@function
	.cc_top _i.i2c_master_async_if._chan.get_write_result.function,_i.i2c_master_async_if._chan.get_write_result
_i.i2c_master_async_if._chan.get_write_result: # @_i.i2c_master_async_if._chan.get_write_result
	.cfi_startproc
	.issue_mode single
# BB#0:                                 # %allocas
	ENTSP_lu6 6
.Ltmp118:
	.cfi_def_cfa_offset 24
.Ltmp119:
	.cfi_offset 15, 0
	std r5, r4, sp[1]               # 4-byte Folded Spill
.Ltmp120:
	.cfi_offset 4, -16
.Ltmp121:
	.cfi_offset 5, -12
	stw r6, sp[4]                   # 4-byte Folded Spill
.Ltmp122:
	.cfi_offset 6, -8
	#DEBUG_VALUE: _i.i2c_master_async_if._chan.get_write_result:dest <- R0
	#DEBUG_VALUE: _i.i2c_master_async_if._chan.get_write_result:clientNotifyFlag <- R1
	#DEBUG_VALUE: _i.i2c_master_async_if._chan.get_write_result:param2 <- R2
	mov r4, r2
	#DEBUG_VALUE: _i.i2c_master_async_if._chan.get_write_result:param2 <- R4
	mov r5, r1
	#DEBUG_VALUE: _i.i2c_master_async_if._chan.get_write_result:clientNotifyFlag <- R5
	getr r6, 2
	setd res[r6], r0
	add r0, r6, 2
	out res[r6], r0
	outct res[r6], 2
	ldc r1, 0
	mov r0, r6
	bl __interface_wait_and_yield
	chkct res[r6], 1
	out res[r6], r5
	ldw r0, r4[0]
	out res[r6], r0
	outct res[r6], 2
	in r0, res[r6]
	in r0, res[r6]
	stw r0, r4[0]
	in r0, res[r6]
	chkct res[r6], 1
	freer res[r6]
	ldw r6, sp[4]                   # 4-byte Folded Reload
	ldd r5, r4, sp[1]               # 4-byte Folded Reload
	retsp 6
	# RETURN_REG_HOLDER
	.cc_bottom _i.i2c_master_async_if._chan.get_write_result.function
	.set	_i.i2c_master_async_if._chan.get_write_result.nstackwords,((_i.i2c_master_async_if._client_call_y.max.nstackwords $M ($D __interface_wait_and_yield.nstackwords ? __interface_wait_and_yield.nstackwords $: _i.i2c_master_async_if._client_call_y.max.nstackwords)) + 6)
	.globl	_i.i2c_master_async_if._chan.get_write_result.nstackwords
	.weak	_i.i2c_master_async_if._chan.get_write_result.nstackwords
	.set	_i.i2c_master_async_if._chan.get_write_result.maxcores,($D __interface_wait_and_yield.maxcores ? __interface_wait_and_yield.maxcores $: _i.i2c_master_async_if._client_call_y.max.maxcores) $M 1
	.globl	_i.i2c_master_async_if._chan.get_write_result.maxcores
	.weak	_i.i2c_master_async_if._chan.get_write_result.maxcores
	.set	_i.i2c_master_async_if._chan.get_write_result.maxtimers,($D __interface_wait_and_yield.maxtimers ? __interface_wait_and_yield.maxtimers $: _i.i2c_master_async_if._client_call_y.max.maxtimers) $M 0
	.globl	_i.i2c_master_async_if._chan.get_write_result.maxtimers
	.weak	_i.i2c_master_async_if._chan.get_write_result.maxtimers
	.set	_i.i2c_master_async_if._chan.get_write_result.maxchanends,(1 + ($D __interface_wait_and_yield.maxchanends ? __interface_wait_and_yield.maxchanends $: _i.i2c_master_async_if._client_call_y.max.maxchanends)) $M 1
	.globl	_i.i2c_master_async_if._chan.get_write_result.maxchanends
	.weak	_i.i2c_master_async_if._chan.get_write_result.maxchanends
.Ltmp123:
	.size	_i.i2c_master_async_if._chan.get_write_result, .Ltmp123-_i.i2c_master_async_if._chan.get_write_result
	.cfi_endproc

	.weak	_i.i2c_master_async_if._chan.read
	.align	4
	.type	_i.i2c_master_async_if._chan.read,@function
	.cc_top _i.i2c_master_async_if._chan.read.function,_i.i2c_master_async_if._chan.read
_i.i2c_master_async_if._chan.read:      # @_i.i2c_master_async_if._chan.read
	.cfi_startproc
	.issue_mode single
# BB#0:                                 # %allocas
	ENTSP_lu6 6
.Ltmp124:
	.cfi_def_cfa_offset 24
.Ltmp125:
	.cfi_offset 15, 0
	std r5, r4, sp[1]               # 4-byte Folded Spill
.Ltmp126:
	.cfi_offset 4, -16
.Ltmp127:
	.cfi_offset 5, -12
	std r7, r6, sp[2]               # 4-byte Folded Spill
.Ltmp128:
	.cfi_offset 6, -8
.Ltmp129:
	.cfi_offset 7, -4
	#DEBUG_VALUE: _i.i2c_master_async_if._chan.read:dest <- R0
	#DEBUG_VALUE: _i.i2c_master_async_if._chan.read:param1 <- R1
	#DEBUG_VALUE: _i.i2c_master_async_if._chan.read:param2 <- R2
	#DEBUG_VALUE: _i.i2c_master_async_if._chan.read:param3 <- R3
	mov r4, r3
	#DEBUG_VALUE: _i.i2c_master_async_if._chan.read:param3 <- R4
	mov r5, r2
	#DEBUG_VALUE: _i.i2c_master_async_if._chan.read:param2 <- R5
	mov r6, r1
	#DEBUG_VALUE: _i.i2c_master_async_if._chan.read:param1 <- R6
	getr r7, 2
	setd res[r7], r0
	add r0, r7, 1
	out res[r7], r0
	outct res[r7], 2
	ldc r1, 0
	mov r0, r7
	bl __interface_wait_and_yield
	chkct res[r7], 1
	outt res[r7], r6
	out res[r7], r5
	out res[r7], r4
	outct res[r7], 2
	in r0, res[r7]
	chkct res[r7], 1
	freer res[r7]
	ldd r7, r6, sp[2]               # 4-byte Folded Reload
	ldd r5, r4, sp[1]               # 4-byte Folded Reload
	retsp 6
	# RETURN_REG_HOLDER
	.cc_bottom _i.i2c_master_async_if._chan.read.function
	.set	_i.i2c_master_async_if._chan.read.nstackwords,((_i.i2c_master_async_if._client_call_y.max.nstackwords $M ($D __interface_wait_and_yield.nstackwords ? __interface_wait_and_yield.nstackwords $: _i.i2c_master_async_if._client_call_y.max.nstackwords)) + 6)
	.globl	_i.i2c_master_async_if._chan.read.nstackwords
	.weak	_i.i2c_master_async_if._chan.read.nstackwords
	.set	_i.i2c_master_async_if._chan.read.maxcores,($D __interface_wait_and_yield.maxcores ? __interface_wait_and_yield.maxcores $: _i.i2c_master_async_if._client_call_y.max.maxcores) $M 1
	.globl	_i.i2c_master_async_if._chan.read.maxcores
	.weak	_i.i2c_master_async_if._chan.read.maxcores
	.set	_i.i2c_master_async_if._chan.read.maxtimers,($D __interface_wait_and_yield.maxtimers ? __interface_wait_and_yield.maxtimers $: _i.i2c_master_async_if._client_call_y.max.maxtimers) $M 0
	.globl	_i.i2c_master_async_if._chan.read.maxtimers
	.weak	_i.i2c_master_async_if._chan.read.maxtimers
	.set	_i.i2c_master_async_if._chan.read.maxchanends,(1 + ($D __interface_wait_and_yield.maxchanends ? __interface_wait_and_yield.maxchanends $: _i.i2c_master_async_if._client_call_y.max.maxchanends)) $M 1
	.globl	_i.i2c_master_async_if._chan.read.maxchanends
	.weak	_i.i2c_master_async_if._chan.read.maxchanends
.Ltmp130:
	.size	_i.i2c_master_async_if._chan.read, .Ltmp130-_i.i2c_master_async_if._chan.read
	.cfi_endproc

	.weak	_i.i2c_master_async_if._chan.write
	.align	4
	.type	_i.i2c_master_async_if._chan.write,@function
	.cc_top _i.i2c_master_async_if._chan.write.function,_i.i2c_master_async_if._chan.write
_i.i2c_master_async_if._chan.write:     # @_i.i2c_master_async_if._chan.write
	.cfi_startproc
	.issue_mode single
# BB#0:                                 # %allocas
	ENTSP_lu6 8
.Ltmp131:
	.cfi_def_cfa_offset 32
.Ltmp132:
	.cfi_offset 15, 0
	std r5, r4, sp[1]               # 4-byte Folded Spill
.Ltmp133:
	.cfi_offset 4, -24
.Ltmp134:
	.cfi_offset 5, -20
	std r7, r6, sp[2]               # 4-byte Folded Spill
.Ltmp135:
	.cfi_offset 6, -16
.Ltmp136:
	.cfi_offset 7, -12
	stw r8, sp[6]                   # 4-byte Folded Spill
.Ltmp137:
	.cfi_offset 8, -8
	#DEBUG_VALUE: _i.i2c_master_async_if._chan.write:dest <- R0
	#DEBUG_VALUE: _i.i2c_master_async_if._chan.write:param1 <- R1
	#DEBUG_VALUE: _i.i2c_master_async_if._chan.write:param2 <- R2
	#DEBUG_VALUE: _i.i2c_master_async_if._chan.write:param3 <- R3
	#DEBUG_VALUE: _i.i2c_master_async_if._chan.write:param4 <- [SP+36]
	mov r4, r3
	#DEBUG_VALUE: _i.i2c_master_async_if._chan.write:param3 <- R4
	mov r5, r2
	#DEBUG_VALUE: _i.i2c_master_async_if._chan.write:param2 <- R5
	mov r6, r1
	#DEBUG_VALUE: _i.i2c_master_async_if._chan.write:param1 <- R6
	ldw r8, sp[9]
	getr r7, 2
	setd res[r7], r0
	out res[r7], r7
	outct res[r7], 2
	ldc r1, 0
	mov r0, r7
	bl __interface_wait_and_yield
	chkct res[r7], 1
	outt res[r7], r6
	stw r5, sp[1]
	out res[r7], r4
	out res[r7], r8
	outct res[r7], 2
	ldaw r1, sp[1]
	mov r0, r7
	bl __interface_client_call
	chkct res[r7], 1
	freer res[r7]
	ldw r8, sp[6]                   # 4-byte Folded Reload
	ldd r7, r6, sp[2]               # 4-byte Folded Reload
	ldd r5, r4, sp[1]               # 4-byte Folded Reload
	retsp 8
	# RETURN_REG_HOLDER
	.cc_bottom _i.i2c_master_async_if._chan.write.function
	.set	_i.i2c_master_async_if._chan.write.nstackwords,((_i.i2c_master_async_if._client_call_y.max.nstackwords $M ($D __interface_wait_and_yield.nstackwords ? __interface_wait_and_yield.nstackwords $: _i.i2c_master_async_if._client_call_y.max.nstackwords) $M __interface_client_call.nstackwords) + 8)
	.globl	_i.i2c_master_async_if._chan.write.nstackwords
	.weak	_i.i2c_master_async_if._chan.write.nstackwords
	.set	_i.i2c_master_async_if._chan.write.maxcores,__interface_client_call.maxcores $M ($D __interface_wait_and_yield.maxcores ? __interface_wait_and_yield.maxcores $: _i.i2c_master_async_if._client_call_y.max.maxcores) $M 1
	.globl	_i.i2c_master_async_if._chan.write.maxcores
	.weak	_i.i2c_master_async_if._chan.write.maxcores
	.set	_i.i2c_master_async_if._chan.write.maxtimers,__interface_client_call.maxtimers $M ($D __interface_wait_and_yield.maxtimers ? __interface_wait_and_yield.maxtimers $: _i.i2c_master_async_if._client_call_y.max.maxtimers) $M 0
	.globl	_i.i2c_master_async_if._chan.write.maxtimers
	.weak	_i.i2c_master_async_if._chan.write.maxtimers
	.set	_i.i2c_master_async_if._chan.write.maxchanends,(1 + __interface_client_call.maxchanends) $M (1 + ($D __interface_wait_and_yield.maxchanends ? __interface_wait_and_yield.maxchanends $: _i.i2c_master_async_if._client_call_y.max.maxchanends)) $M 1
	.globl	_i.i2c_master_async_if._chan.write.maxchanends
	.weak	_i.i2c_master_async_if._chan.write.maxchanends
.Ltmp138:
	.size	_i.i2c_master_async_if._chan.write, .Ltmp138-_i.i2c_master_async_if._chan.write
	.cfi_endproc

	.weak	_i.i2c_master_async_if._chan_yield.shutdown
	.align	4
	.type	_i.i2c_master_async_if._chan_yield.shutdown,@function
	.cc_top _i.i2c_master_async_if._chan_yield.shutdown.function,_i.i2c_master_async_if._chan_yield.shutdown
_i.i2c_master_async_if._chan_yield.shutdown: # @_i.i2c_master_async_if._chan_yield.shutdown
	.cfi_startproc
	.issue_mode single
# BB#0:                                 # %allocas
	ENTSP_lu6 4
.Ltmp139:
	.cfi_def_cfa_offset 16
.Ltmp140:
	.cfi_offset 15, 0
	std r5, r4, sp[1]               # 4-byte Folded Spill
.Ltmp141:
	.cfi_offset 4, -8
.Ltmp142:
	.cfi_offset 5, -4
	#DEBUG_VALUE: _i.i2c_master_async_if._chan_yield.shutdown:s <- R0
	ldw r1, r0[0]
	getr r4, 2
	setd res[r4], r1
	add r1, r4, 5
	out res[r4], r1
	outct res[r4], 2
	ldw r5, r0[1]
	mov r0, r4
	mov r1, r5
	bl __interface_wait_and_yield
	ldc r1, 0
	mov r0, r4
	mov r2, r5
	bl __interface_client_call_y
	chkct res[r4], 1
	freer res[r4]
	ldd r5, r4, sp[1]               # 4-byte Folded Reload
	retsp 4
	# RETURN_REG_HOLDER
	.cc_bottom _i.i2c_master_async_if._chan_yield.shutdown.function
	.set	_i.i2c_master_async_if._chan_yield.shutdown.nstackwords,((($D __interface_wait_and_yield.nstackwords ? __interface_wait_and_yield.nstackwords $: _i.i2c_master_async_if._client_call_y.max.nstackwords) $M _i.i2c_master_async_if._client_call_y.max.nstackwords $M ($D __interface_client_call_y.nstackwords ? __interface_client_call_y.nstackwords $: _i.i2c_master_async_if._client_call_y.max.nstackwords)) + 4)
	.globl	_i.i2c_master_async_if._chan_yield.shutdown.nstackwords
	.weak	_i.i2c_master_async_if._chan_yield.shutdown.nstackwords
	.set	_i.i2c_master_async_if._chan_yield.shutdown.maxcores,($D __interface_client_call_y.maxcores ? __interface_client_call_y.maxcores $: _i.i2c_master_async_if._client_call_y.max.maxcores) $M ($D __interface_wait_and_yield.maxcores ? __interface_wait_and_yield.maxcores $: _i.i2c_master_async_if._client_call_y.max.maxcores) $M 1
	.globl	_i.i2c_master_async_if._chan_yield.shutdown.maxcores
	.weak	_i.i2c_master_async_if._chan_yield.shutdown.maxcores
	.set	_i.i2c_master_async_if._chan_yield.shutdown.maxtimers,($D __interface_client_call_y.maxtimers ? __interface_client_call_y.maxtimers $: _i.i2c_master_async_if._client_call_y.max.maxtimers) $M ($D __interface_wait_and_yield.maxtimers ? __interface_wait_and_yield.maxtimers $: _i.i2c_master_async_if._client_call_y.max.maxtimers) $M 0
	.globl	_i.i2c_master_async_if._chan_yield.shutdown.maxtimers
	.weak	_i.i2c_master_async_if._chan_yield.shutdown.maxtimers
	.set	_i.i2c_master_async_if._chan_yield.shutdown.maxchanends,(1 + ($D __interface_client_call_y.maxchanends ? __interface_client_call_y.maxchanends $: _i.i2c_master_async_if._client_call_y.max.maxchanends)) $M (1 + ($D __interface_wait_and_yield.maxchanends ? __interface_wait_and_yield.maxchanends $: _i.i2c_master_async_if._client_call_y.max.maxchanends)) $M 1
	.globl	_i.i2c_master_async_if._chan_yield.shutdown.maxchanends
	.weak	_i.i2c_master_async_if._chan_yield.shutdown.maxchanends
.Ltmp143:
	.size	_i.i2c_master_async_if._chan_yield.shutdown, .Ltmp143-_i.i2c_master_async_if._chan_yield.shutdown
	.cfi_endproc

	.weak	_i.i2c_master_async_if._chan_yield.send_stop_bit
	.align	4
	.type	_i.i2c_master_async_if._chan_yield.send_stop_bit,@function
	.cc_top _i.i2c_master_async_if._chan_yield.send_stop_bit.function,_i.i2c_master_async_if._chan_yield.send_stop_bit
_i.i2c_master_async_if._chan_yield.send_stop_bit: # @_i.i2c_master_async_if._chan_yield.send_stop_bit
	.cfi_startproc
	.issue_mode single
# BB#0:                                 # %allocas
	ENTSP_lu6 4
.Ltmp144:
	.cfi_def_cfa_offset 16
.Ltmp145:
	.cfi_offset 15, 0
	std r5, r4, sp[1]               # 4-byte Folded Spill
.Ltmp146:
	.cfi_offset 4, -8
.Ltmp147:
	.cfi_offset 5, -4
	#DEBUG_VALUE: _i.i2c_master_async_if._chan_yield.send_stop_bit:s <- R0
	ldw r1, r0[0]
	getr r4, 2
	setd res[r4], r1
	add r1, r4, 4
	out res[r4], r1
	outct res[r4], 2
	ldw r5, r0[1]
	mov r0, r4
	mov r1, r5
	bl __interface_wait_and_yield
	ldc r1, 0
	mov r0, r4
	mov r2, r5
	bl __interface_client_call_y
	chkct res[r4], 1
	freer res[r4]
	ldd r5, r4, sp[1]               # 4-byte Folded Reload
	retsp 4
	# RETURN_REG_HOLDER
	.cc_bottom _i.i2c_master_async_if._chan_yield.send_stop_bit.function
	.set	_i.i2c_master_async_if._chan_yield.send_stop_bit.nstackwords,((($D __interface_wait_and_yield.nstackwords ? __interface_wait_and_yield.nstackwords $: _i.i2c_master_async_if._client_call_y.max.nstackwords) $M _i.i2c_master_async_if._client_call_y.max.nstackwords $M ($D __interface_client_call_y.nstackwords ? __interface_client_call_y.nstackwords $: _i.i2c_master_async_if._client_call_y.max.nstackwords)) + 4)
	.globl	_i.i2c_master_async_if._chan_yield.send_stop_bit.nstackwords
	.weak	_i.i2c_master_async_if._chan_yield.send_stop_bit.nstackwords
	.set	_i.i2c_master_async_if._chan_yield.send_stop_bit.maxcores,($D __interface_client_call_y.maxcores ? __interface_client_call_y.maxcores $: _i.i2c_master_async_if._client_call_y.max.maxcores) $M ($D __interface_wait_and_yield.maxcores ? __interface_wait_and_yield.maxcores $: _i.i2c_master_async_if._client_call_y.max.maxcores) $M 1
	.globl	_i.i2c_master_async_if._chan_yield.send_stop_bit.maxcores
	.weak	_i.i2c_master_async_if._chan_yield.send_stop_bit.maxcores
	.set	_i.i2c_master_async_if._chan_yield.send_stop_bit.maxtimers,($D __interface_client_call_y.maxtimers ? __interface_client_call_y.maxtimers $: _i.i2c_master_async_if._client_call_y.max.maxtimers) $M ($D __interface_wait_and_yield.maxtimers ? __interface_wait_and_yield.maxtimers $: _i.i2c_master_async_if._client_call_y.max.maxtimers) $M 0
	.globl	_i.i2c_master_async_if._chan_yield.send_stop_bit.maxtimers
	.weak	_i.i2c_master_async_if._chan_yield.send_stop_bit.maxtimers
	.set	_i.i2c_master_async_if._chan_yield.send_stop_bit.maxchanends,(1 + ($D __interface_client_call_y.maxchanends ? __interface_client_call_y.maxchanends $: _i.i2c_master_async_if._client_call_y.max.maxchanends)) $M (1 + ($D __interface_wait_and_yield.maxchanends ? __interface_wait_and_yield.maxchanends $: _i.i2c_master_async_if._client_call_y.max.maxchanends)) $M 1
	.globl	_i.i2c_master_async_if._chan_yield.send_stop_bit.maxchanends
	.weak	_i.i2c_master_async_if._chan_yield.send_stop_bit.maxchanends
.Ltmp148:
	.size	_i.i2c_master_async_if._chan_yield.send_stop_bit, .Ltmp148-_i.i2c_master_async_if._chan_yield.send_stop_bit
	.cfi_endproc

	.weak	_i.i2c_master_async_if._chan_yield.get_read_data
	.align	4
	.type	_i.i2c_master_async_if._chan_yield.get_read_data,@function
	.cc_top _i.i2c_master_async_if._chan_yield.get_read_data.function,_i.i2c_master_async_if._chan_yield.get_read_data
_i.i2c_master_async_if._chan_yield.get_read_data: # @_i.i2c_master_async_if._chan_yield.get_read_data
	.cfi_startproc
	.issue_mode single
# BB#0:                                 # %allocas
	ENTSP_lu6 8
.Ltmp149:
	.cfi_def_cfa_offset 32
.Ltmp150:
	.cfi_offset 15, 0
	std r5, r4, sp[1]               # 4-byte Folded Spill
.Ltmp151:
	.cfi_offset 4, -24
.Ltmp152:
	.cfi_offset 5, -20
	std r7, r6, sp[2]               # 4-byte Folded Spill
.Ltmp153:
	.cfi_offset 6, -16
.Ltmp154:
	.cfi_offset 7, -12
	stw r8, sp[6]                   # 4-byte Folded Spill
.Ltmp155:
	.cfi_offset 8, -8
	#DEBUG_VALUE: _i.i2c_master_async_if._chan_yield.get_read_data:s <- R0
	#DEBUG_VALUE: _i.i2c_master_async_if._chan_yield.get_read_data:clientNotifyFlag <- R1
	#DEBUG_VALUE: _i.i2c_master_async_if._chan_yield.get_read_data:param2 <- R2
	#DEBUG_VALUE: _i.i2c_master_async_if._chan_yield.get_read_data:param3 <- R3
	mov r5, r3
	#DEBUG_VALUE: _i.i2c_master_async_if._chan_yield.get_read_data:param3 <- R5
	mov r6, r2
	#DEBUG_VALUE: _i.i2c_master_async_if._chan_yield.get_read_data:param2 <- R6
	mov r7, r1
	#DEBUG_VALUE: _i.i2c_master_async_if._chan_yield.get_read_data:clientNotifyFlag <- R7
	ldw r1, r0[0]
	getr r4, 2
	setd res[r4], r1
	add r1, r4, 3
	out res[r4], r1
	outct res[r4], 2
	ldw r8, r0[1]
	mov r0, r4
	mov r1, r8
	bl __interface_wait_and_yield
	chkct res[r4], 1
	out res[r4], r7
	stw r6, sp[1]
	out res[r4], r5
	outct res[r4], 2
	ldaw r1, sp[1]
	mov r0, r4
	mov r2, r8
	bl __interface_client_call_y
	in r0, res[r4]
	chkct res[r4], 1
	freer res[r4]
	ldw r8, sp[6]                   # 4-byte Folded Reload
	ldd r7, r6, sp[2]               # 4-byte Folded Reload
	ldd r5, r4, sp[1]               # 4-byte Folded Reload
	retsp 8
	# RETURN_REG_HOLDER
	.cc_bottom _i.i2c_master_async_if._chan_yield.get_read_data.function
	.set	_i.i2c_master_async_if._chan_yield.get_read_data.nstackwords,((($D __interface_wait_and_yield.nstackwords ? __interface_wait_and_yield.nstackwords $: _i.i2c_master_async_if._client_call_y.max.nstackwords) $M _i.i2c_master_async_if._client_call_y.max.nstackwords $M ($D __interface_client_call_y.nstackwords ? __interface_client_call_y.nstackwords $: _i.i2c_master_async_if._client_call_y.max.nstackwords)) + 8)
	.globl	_i.i2c_master_async_if._chan_yield.get_read_data.nstackwords
	.weak	_i.i2c_master_async_if._chan_yield.get_read_data.nstackwords
	.set	_i.i2c_master_async_if._chan_yield.get_read_data.maxcores,($D __interface_client_call_y.maxcores ? __interface_client_call_y.maxcores $: _i.i2c_master_async_if._client_call_y.max.maxcores) $M ($D __interface_wait_and_yield.maxcores ? __interface_wait_and_yield.maxcores $: _i.i2c_master_async_if._client_call_y.max.maxcores) $M 1
	.globl	_i.i2c_master_async_if._chan_yield.get_read_data.maxcores
	.weak	_i.i2c_master_async_if._chan_yield.get_read_data.maxcores
	.set	_i.i2c_master_async_if._chan_yield.get_read_data.maxtimers,($D __interface_client_call_y.maxtimers ? __interface_client_call_y.maxtimers $: _i.i2c_master_async_if._client_call_y.max.maxtimers) $M ($D __interface_wait_and_yield.maxtimers ? __interface_wait_and_yield.maxtimers $: _i.i2c_master_async_if._client_call_y.max.maxtimers) $M 0
	.globl	_i.i2c_master_async_if._chan_yield.get_read_data.maxtimers
	.weak	_i.i2c_master_async_if._chan_yield.get_read_data.maxtimers
	.set	_i.i2c_master_async_if._chan_yield.get_read_data.maxchanends,(1 + ($D __interface_client_call_y.maxchanends ? __interface_client_call_y.maxchanends $: _i.i2c_master_async_if._client_call_y.max.maxchanends)) $M (1 + ($D __interface_wait_and_yield.maxchanends ? __interface_wait_and_yield.maxchanends $: _i.i2c_master_async_if._client_call_y.max.maxchanends)) $M 1
	.globl	_i.i2c_master_async_if._chan_yield.get_read_data.maxchanends
	.weak	_i.i2c_master_async_if._chan_yield.get_read_data.maxchanends
.Ltmp156:
	.size	_i.i2c_master_async_if._chan_yield.get_read_data, .Ltmp156-_i.i2c_master_async_if._chan_yield.get_read_data
	.cfi_endproc

	.weak	_i.i2c_master_async_if._chan_yield.get_write_result
	.align	4
	.type	_i.i2c_master_async_if._chan_yield.get_write_result,@function
	.cc_top _i.i2c_master_async_if._chan_yield.get_write_result.function,_i.i2c_master_async_if._chan_yield.get_write_result
_i.i2c_master_async_if._chan_yield.get_write_result: # @_i.i2c_master_async_if._chan_yield.get_write_result
	.cfi_startproc
	.issue_mode single
# BB#0:                                 # %allocas
	ENTSP_lu6 6
.Ltmp157:
	.cfi_def_cfa_offset 24
.Ltmp158:
	.cfi_offset 15, 0
	std r5, r4, sp[1]               # 4-byte Folded Spill
.Ltmp159:
	.cfi_offset 4, -16
.Ltmp160:
	.cfi_offset 5, -12
	std r7, r6, sp[2]               # 4-byte Folded Spill
.Ltmp161:
	.cfi_offset 6, -8
.Ltmp162:
	.cfi_offset 7, -4
	#DEBUG_VALUE: _i.i2c_master_async_if._chan_yield.get_write_result:s <- R0
	#DEBUG_VALUE: _i.i2c_master_async_if._chan_yield.get_write_result:clientNotifyFlag <- R1
	#DEBUG_VALUE: _i.i2c_master_async_if._chan_yield.get_write_result:param2 <- R2
	mov r4, r2
	#DEBUG_VALUE: _i.i2c_master_async_if._chan_yield.get_write_result:param2 <- R4
	mov r6, r1
	#DEBUG_VALUE: _i.i2c_master_async_if._chan_yield.get_write_result:clientNotifyFlag <- R6
	ldw r1, r0[0]
	getr r5, 2
	setd res[r5], r1
	add r1, r5, 2
	out res[r5], r1
	outct res[r5], 2
	ldw r7, r0[1]
	mov r0, r5
	mov r1, r7
	bl __interface_wait_and_yield
	chkct res[r5], 1
	out res[r5], r6
	ldw r0, r4[0]
	out res[r5], r0
	outct res[r5], 2
	ldc r1, 0
	mov r0, r5
	mov r2, r7
	bl __interface_client_call_y
	in r0, res[r5]
	stw r0, r4[0]
	in r0, res[r5]
	chkct res[r5], 1
	freer res[r5]
	ldd r7, r6, sp[2]               # 4-byte Folded Reload
	ldd r5, r4, sp[1]               # 4-byte Folded Reload
	retsp 6
	# RETURN_REG_HOLDER
	.cc_bottom _i.i2c_master_async_if._chan_yield.get_write_result.function
	.set	_i.i2c_master_async_if._chan_yield.get_write_result.nstackwords,((($D __interface_wait_and_yield.nstackwords ? __interface_wait_and_yield.nstackwords $: _i.i2c_master_async_if._client_call_y.max.nstackwords) $M _i.i2c_master_async_if._client_call_y.max.nstackwords $M ($D __interface_client_call_y.nstackwords ? __interface_client_call_y.nstackwords $: _i.i2c_master_async_if._client_call_y.max.nstackwords)) + 6)
	.globl	_i.i2c_master_async_if._chan_yield.get_write_result.nstackwords
	.weak	_i.i2c_master_async_if._chan_yield.get_write_result.nstackwords
	.set	_i.i2c_master_async_if._chan_yield.get_write_result.maxcores,($D __interface_client_call_y.maxcores ? __interface_client_call_y.maxcores $: _i.i2c_master_async_if._client_call_y.max.maxcores) $M ($D __interface_wait_and_yield.maxcores ? __interface_wait_and_yield.maxcores $: _i.i2c_master_async_if._client_call_y.max.maxcores) $M 1
	.globl	_i.i2c_master_async_if._chan_yield.get_write_result.maxcores
	.weak	_i.i2c_master_async_if._chan_yield.get_write_result.maxcores
	.set	_i.i2c_master_async_if._chan_yield.get_write_result.maxtimers,($D __interface_client_call_y.maxtimers ? __interface_client_call_y.maxtimers $: _i.i2c_master_async_if._client_call_y.max.maxtimers) $M ($D __interface_wait_and_yield.maxtimers ? __interface_wait_and_yield.maxtimers $: _i.i2c_master_async_if._client_call_y.max.maxtimers) $M 0
	.globl	_i.i2c_master_async_if._chan_yield.get_write_result.maxtimers
	.weak	_i.i2c_master_async_if._chan_yield.get_write_result.maxtimers
	.set	_i.i2c_master_async_if._chan_yield.get_write_result.maxchanends,(1 + ($D __interface_client_call_y.maxchanends ? __interface_client_call_y.maxchanends $: _i.i2c_master_async_if._client_call_y.max.maxchanends)) $M (1 + ($D __interface_wait_and_yield.maxchanends ? __interface_wait_and_yield.maxchanends $: _i.i2c_master_async_if._client_call_y.max.maxchanends)) $M 1
	.globl	_i.i2c_master_async_if._chan_yield.get_write_result.maxchanends
	.weak	_i.i2c_master_async_if._chan_yield.get_write_result.maxchanends
.Ltmp163:
	.size	_i.i2c_master_async_if._chan_yield.get_write_result, .Ltmp163-_i.i2c_master_async_if._chan_yield.get_write_result
	.cfi_endproc

	.weak	_i.i2c_master_async_if._chan_yield.read
	.align	4
	.type	_i.i2c_master_async_if._chan_yield.read,@function
	.cc_top _i.i2c_master_async_if._chan_yield.read.function,_i.i2c_master_async_if._chan_yield.read
_i.i2c_master_async_if._chan_yield.read: # @_i.i2c_master_async_if._chan_yield.read
	.cfi_startproc
	.issue_mode single
# BB#0:                                 # %allocas
	ENTSP_lu6 8
.Ltmp164:
	.cfi_def_cfa_offset 32
.Ltmp165:
	.cfi_offset 15, 0
	std r5, r4, sp[1]               # 4-byte Folded Spill
.Ltmp166:
	.cfi_offset 4, -24
.Ltmp167:
	.cfi_offset 5, -20
	std r7, r6, sp[2]               # 4-byte Folded Spill
.Ltmp168:
	.cfi_offset 6, -16
.Ltmp169:
	.cfi_offset 7, -12
	stw r8, sp[6]                   # 4-byte Folded Spill
.Ltmp170:
	.cfi_offset 8, -8
	#DEBUG_VALUE: _i.i2c_master_async_if._chan_yield.read:s <- R0
	#DEBUG_VALUE: _i.i2c_master_async_if._chan_yield.read:param1 <- R1
	#DEBUG_VALUE: _i.i2c_master_async_if._chan_yield.read:param2 <- R2
	#DEBUG_VALUE: _i.i2c_master_async_if._chan_yield.read:param3 <- R3
	mov r4, r3
	#DEBUG_VALUE: _i.i2c_master_async_if._chan_yield.read:param3 <- R4
	mov r5, r2
	#DEBUG_VALUE: _i.i2c_master_async_if._chan_yield.read:param2 <- R5
	mov r6, r1
	#DEBUG_VALUE: _i.i2c_master_async_if._chan_yield.read:param1 <- R6
	ldw r1, r0[0]
	getr r7, 2
	setd res[r7], r1
	add r1, r7, 1
	out res[r7], r1
	outct res[r7], 2
	ldw r8, r0[1]
	mov r0, r7
	mov r1, r8
	bl __interface_wait_and_yield
	chkct res[r7], 1
	outt res[r7], r6
	out res[r7], r5
	out res[r7], r4
	outct res[r7], 2
	ldc r1, 0
	mov r0, r7
	mov r2, r8
	bl __interface_client_call_y
	chkct res[r7], 1
	freer res[r7]
	ldw r8, sp[6]                   # 4-byte Folded Reload
	ldd r7, r6, sp[2]               # 4-byte Folded Reload
	ldd r5, r4, sp[1]               # 4-byte Folded Reload
	retsp 8
	# RETURN_REG_HOLDER
	.cc_bottom _i.i2c_master_async_if._chan_yield.read.function
	.set	_i.i2c_master_async_if._chan_yield.read.nstackwords,((($D __interface_wait_and_yield.nstackwords ? __interface_wait_and_yield.nstackwords $: _i.i2c_master_async_if._client_call_y.max.nstackwords) $M _i.i2c_master_async_if._client_call_y.max.nstackwords $M ($D __interface_client_call_y.nstackwords ? __interface_client_call_y.nstackwords $: _i.i2c_master_async_if._client_call_y.max.nstackwords)) + 8)
	.globl	_i.i2c_master_async_if._chan_yield.read.nstackwords
	.weak	_i.i2c_master_async_if._chan_yield.read.nstackwords
	.set	_i.i2c_master_async_if._chan_yield.read.maxcores,($D __interface_client_call_y.maxcores ? __interface_client_call_y.maxcores $: _i.i2c_master_async_if._client_call_y.max.maxcores) $M ($D __interface_wait_and_yield.maxcores ? __interface_wait_and_yield.maxcores $: _i.i2c_master_async_if._client_call_y.max.maxcores) $M 1
	.globl	_i.i2c_master_async_if._chan_yield.read.maxcores
	.weak	_i.i2c_master_async_if._chan_yield.read.maxcores
	.set	_i.i2c_master_async_if._chan_yield.read.maxtimers,($D __interface_client_call_y.maxtimers ? __interface_client_call_y.maxtimers $: _i.i2c_master_async_if._client_call_y.max.maxtimers) $M ($D __interface_wait_and_yield.maxtimers ? __interface_wait_and_yield.maxtimers $: _i.i2c_master_async_if._client_call_y.max.maxtimers) $M 0
	.globl	_i.i2c_master_async_if._chan_yield.read.maxtimers
	.weak	_i.i2c_master_async_if._chan_yield.read.maxtimers
	.set	_i.i2c_master_async_if._chan_yield.read.maxchanends,(1 + ($D __interface_client_call_y.maxchanends ? __interface_client_call_y.maxchanends $: _i.i2c_master_async_if._client_call_y.max.maxchanends)) $M (1 + ($D __interface_wait_and_yield.maxchanends ? __interface_wait_and_yield.maxchanends $: _i.i2c_master_async_if._client_call_y.max.maxchanends)) $M 1
	.globl	_i.i2c_master_async_if._chan_yield.read.maxchanends
	.weak	_i.i2c_master_async_if._chan_yield.read.maxchanends
.Ltmp171:
	.size	_i.i2c_master_async_if._chan_yield.read, .Ltmp171-_i.i2c_master_async_if._chan_yield.read
	.cfi_endproc

	.weak	_i.i2c_master_async_if._chan_yield.write
	.align	4
	.type	_i.i2c_master_async_if._chan_yield.write,@function
	.cc_top _i.i2c_master_async_if._chan_yield.write.function,_i.i2c_master_async_if._chan_yield.write
_i.i2c_master_async_if._chan_yield.write: # @_i.i2c_master_async_if._chan_yield.write
	.cfi_startproc
	.issue_mode single
# BB#0:                                 # %allocas
	ENTSP_lu6 8
.Ltmp172:
	.cfi_def_cfa_offset 32
.Ltmp173:
	.cfi_offset 15, 0
	std r5, r4, sp[1]               # 4-byte Folded Spill
.Ltmp174:
	.cfi_offset 4, -24
.Ltmp175:
	.cfi_offset 5, -20
	std r7, r6, sp[2]               # 4-byte Folded Spill
.Ltmp176:
	.cfi_offset 6, -16
.Ltmp177:
	.cfi_offset 7, -12
	std r9, r8, sp[3]               # 4-byte Folded Spill
.Ltmp178:
	.cfi_offset 8, -8
.Ltmp179:
	.cfi_offset 9, -4
	#DEBUG_VALUE: _i.i2c_master_async_if._chan_yield.write:s <- R0
	#DEBUG_VALUE: _i.i2c_master_async_if._chan_yield.write:param1 <- R1
	#DEBUG_VALUE: _i.i2c_master_async_if._chan_yield.write:param2 <- R2
	#DEBUG_VALUE: _i.i2c_master_async_if._chan_yield.write:param3 <- R3
	#DEBUG_VALUE: _i.i2c_master_async_if._chan_yield.write:param4 <- [SP+36]
	mov r4, r3
	#DEBUG_VALUE: _i.i2c_master_async_if._chan_yield.write:param3 <- R4
	mov r5, r2
	#DEBUG_VALUE: _i.i2c_master_async_if._chan_yield.write:param2 <- R5
	mov r6, r1
	#DEBUG_VALUE: _i.i2c_master_async_if._chan_yield.write:param1 <- R6
	ldw r9, sp[9]
	ldw r1, r0[0]
	getr r7, 2
	setd res[r7], r1
	out res[r7], r7
	outct res[r7], 2
	ldw r8, r0[1]
	mov r0, r7
	mov r1, r8
	bl __interface_wait_and_yield
	chkct res[r7], 1
	outt res[r7], r6
	stw r5, sp[1]
	out res[r7], r4
	out res[r7], r9
	outct res[r7], 2
	ldaw r1, sp[1]
	mov r0, r7
	mov r2, r8
	bl __interface_client_call_y
	chkct res[r7], 1
	freer res[r7]
	ldd r9, r8, sp[3]               # 4-byte Folded Reload
	ldd r7, r6, sp[2]               # 4-byte Folded Reload
	ldd r5, r4, sp[1]               # 4-byte Folded Reload
	retsp 8
	# RETURN_REG_HOLDER
	.cc_bottom _i.i2c_master_async_if._chan_yield.write.function
	.set	_i.i2c_master_async_if._chan_yield.write.nstackwords,((($D __interface_wait_and_yield.nstackwords ? __interface_wait_and_yield.nstackwords $: _i.i2c_master_async_if._client_call_y.max.nstackwords) $M _i.i2c_master_async_if._client_call_y.max.nstackwords $M ($D __interface_client_call_y.nstackwords ? __interface_client_call_y.nstackwords $: _i.i2c_master_async_if._client_call_y.max.nstackwords)) + 8)
	.globl	_i.i2c_master_async_if._chan_yield.write.nstackwords
	.weak	_i.i2c_master_async_if._chan_yield.write.nstackwords
	.set	_i.i2c_master_async_if._chan_yield.write.maxcores,($D __interface_client_call_y.maxcores ? __interface_client_call_y.maxcores $: _i.i2c_master_async_if._client_call_y.max.maxcores) $M ($D __interface_wait_and_yield.maxcores ? __interface_wait_and_yield.maxcores $: _i.i2c_master_async_if._client_call_y.max.maxcores) $M 1
	.globl	_i.i2c_master_async_if._chan_yield.write.maxcores
	.weak	_i.i2c_master_async_if._chan_yield.write.maxcores
	.set	_i.i2c_master_async_if._chan_yield.write.maxtimers,($D __interface_client_call_y.maxtimers ? __interface_client_call_y.maxtimers $: _i.i2c_master_async_if._client_call_y.max.maxtimers) $M ($D __interface_wait_and_yield.maxtimers ? __interface_wait_and_yield.maxtimers $: _i.i2c_master_async_if._client_call_y.max.maxtimers) $M 0
	.globl	_i.i2c_master_async_if._chan_yield.write.maxtimers
	.weak	_i.i2c_master_async_if._chan_yield.write.maxtimers
	.set	_i.i2c_master_async_if._chan_yield.write.maxchanends,(1 + ($D __interface_client_call_y.maxchanends ? __interface_client_call_y.maxchanends $: _i.i2c_master_async_if._client_call_y.max.maxchanends)) $M (1 + ($D __interface_wait_and_yield.maxchanends ? __interface_wait_and_yield.maxchanends $: _i.i2c_master_async_if._client_call_y.max.maxchanends)) $M 1
	.globl	_i.i2c_master_async_if._chan_yield.write.maxchanends
	.weak	_i.i2c_master_async_if._chan_yield.write.maxchanends
.Ltmp180:
	.size	_i.i2c_master_async_if._chan_yield.write, .Ltmp180-_i.i2c_master_async_if._chan_yield.write
	.cfi_endproc

	.weak	_i.i2c_slave_callback_if._chan.stop_bit
	.align	4
	.type	_i.i2c_slave_callback_if._chan.stop_bit,@function
	.cc_top _i.i2c_slave_callback_if._chan.stop_bit.function,_i.i2c_slave_callback_if._chan.stop_bit
_i.i2c_slave_callback_if._chan.stop_bit: # @_i.i2c_slave_callback_if._chan.stop_bit
	.cfi_startproc
	.issue_mode single
# BB#0:                                 # %allocas
	ENTSP_lu6 4
.Ltmp181:
	.cfi_def_cfa_offset 16
.Ltmp182:
	.cfi_offset 15, 0
	stw r4, sp[2]                   # 4-byte Folded Spill
.Ltmp183:
	.cfi_offset 4, -8
	#DEBUG_VALUE: _i.i2c_slave_callback_if._chan.stop_bit:dest <- R0
	getr r4, 2
	setd res[r4], r0
	add r0, r4, 4
	out res[r4], r0
	outct res[r4], 2
	ldc r1, 0
	mov r0, r4
	bl __interface_wait_and_yield
	in r0, res[r4]
	chkct res[r4], 1
	freer res[r4]
	ldw r4, sp[2]                   # 4-byte Folded Reload
	retsp 4
	# RETURN_REG_HOLDER
	.cc_bottom _i.i2c_slave_callback_if._chan.stop_bit.function
	.set	_i.i2c_slave_callback_if._chan.stop_bit.nstackwords,((_i.i2c_slave_callback_if._client_call_y.max.nstackwords $M ($D __interface_wait_and_yield.nstackwords ? __interface_wait_and_yield.nstackwords $: _i.i2c_slave_callback_if._client_call_y.max.nstackwords)) + 4)
	.globl	_i.i2c_slave_callback_if._chan.stop_bit.nstackwords
	.weak	_i.i2c_slave_callback_if._chan.stop_bit.nstackwords
	.set	_i.i2c_slave_callback_if._chan.stop_bit.maxcores,($D __interface_wait_and_yield.maxcores ? __interface_wait_and_yield.maxcores $: _i.i2c_slave_callback_if._client_call_y.max.maxcores) $M 1
	.globl	_i.i2c_slave_callback_if._chan.stop_bit.maxcores
	.weak	_i.i2c_slave_callback_if._chan.stop_bit.maxcores
	.set	_i.i2c_slave_callback_if._chan.stop_bit.maxtimers,($D __interface_wait_and_yield.maxtimers ? __interface_wait_and_yield.maxtimers $: _i.i2c_slave_callback_if._client_call_y.max.maxtimers) $M 0
	.globl	_i.i2c_slave_callback_if._chan.stop_bit.maxtimers
	.weak	_i.i2c_slave_callback_if._chan.stop_bit.maxtimers
	.set	_i.i2c_slave_callback_if._chan.stop_bit.maxchanends,(1 + ($D __interface_wait_and_yield.maxchanends ? __interface_wait_and_yield.maxchanends $: _i.i2c_slave_callback_if._client_call_y.max.maxchanends)) $M 1
	.globl	_i.i2c_slave_callback_if._chan.stop_bit.maxchanends
	.weak	_i.i2c_slave_callback_if._chan.stop_bit.maxchanends
.Ltmp184:
	.size	_i.i2c_slave_callback_if._chan.stop_bit, .Ltmp184-_i.i2c_slave_callback_if._chan.stop_bit
	.cfi_endproc

	.weak	_i.i2c_slave_callback_if._chan.master_sent_data
	.align	4
	.type	_i.i2c_slave_callback_if._chan.master_sent_data,@function
	.cc_top _i.i2c_slave_callback_if._chan.master_sent_data.function,_i.i2c_slave_callback_if._chan.master_sent_data
_i.i2c_slave_callback_if._chan.master_sent_data: # @_i.i2c_slave_callback_if._chan.master_sent_data
	.cfi_startproc
	.issue_mode single
# BB#0:                                 # %allocas
	ENTSP_lu6 4
.Ltmp185:
	.cfi_def_cfa_offset 16
.Ltmp186:
	.cfi_offset 15, 0
	std r5, r4, sp[1]               # 4-byte Folded Spill
.Ltmp187:
	.cfi_offset 4, -8
.Ltmp188:
	.cfi_offset 5, -4
	#DEBUG_VALUE: _i.i2c_slave_callback_if._chan.master_sent_data:dest <- R0
	#DEBUG_VALUE: _i.i2c_slave_callback_if._chan.master_sent_data:param1 <- R1
	mov r4, r1
	#DEBUG_VALUE: _i.i2c_slave_callback_if._chan.master_sent_data:param1 <- R4
	getr r5, 2
	setd res[r5], r0
	add r0, r5, 3
	out res[r5], r0
	outct res[r5], 2
	ldc r1, 0
	mov r0, r5
	bl __interface_wait_and_yield
	chkct res[r5], 1
	outt res[r5], r4
	outct res[r5], 2
	in r0, res[r5]
	in r0, res[r5]
	chkct res[r5], 1
	freer res[r5]
	ldd r5, r4, sp[1]               # 4-byte Folded Reload
	retsp 4
	# RETURN_REG_HOLDER
	.cc_bottom _i.i2c_slave_callback_if._chan.master_sent_data.function
	.set	_i.i2c_slave_callback_if._chan.master_sent_data.nstackwords,((_i.i2c_slave_callback_if._client_call_y.max.nstackwords $M ($D __interface_wait_and_yield.nstackwords ? __interface_wait_and_yield.nstackwords $: _i.i2c_slave_callback_if._client_call_y.max.nstackwords)) + 4)
	.globl	_i.i2c_slave_callback_if._chan.master_sent_data.nstackwords
	.weak	_i.i2c_slave_callback_if._chan.master_sent_data.nstackwords
	.set	_i.i2c_slave_callback_if._chan.master_sent_data.maxcores,($D __interface_wait_and_yield.maxcores ? __interface_wait_and_yield.maxcores $: _i.i2c_slave_callback_if._client_call_y.max.maxcores) $M 1
	.globl	_i.i2c_slave_callback_if._chan.master_sent_data.maxcores
	.weak	_i.i2c_slave_callback_if._chan.master_sent_data.maxcores
	.set	_i.i2c_slave_callback_if._chan.master_sent_data.maxtimers,($D __interface_wait_and_yield.maxtimers ? __interface_wait_and_yield.maxtimers $: _i.i2c_slave_callback_if._client_call_y.max.maxtimers) $M 0
	.globl	_i.i2c_slave_callback_if._chan.master_sent_data.maxtimers
	.weak	_i.i2c_slave_callback_if._chan.master_sent_data.maxtimers
	.set	_i.i2c_slave_callback_if._chan.master_sent_data.maxchanends,(1 + ($D __interface_wait_and_yield.maxchanends ? __interface_wait_and_yield.maxchanends $: _i.i2c_slave_callback_if._client_call_y.max.maxchanends)) $M 1
	.globl	_i.i2c_slave_callback_if._chan.master_sent_data.maxchanends
	.weak	_i.i2c_slave_callback_if._chan.master_sent_data.maxchanends
.Ltmp189:
	.size	_i.i2c_slave_callback_if._chan.master_sent_data, .Ltmp189-_i.i2c_slave_callback_if._chan.master_sent_data
	.cfi_endproc

	.weak	_i.i2c_slave_callback_if._chan.master_requires_data
	.align	4
	.type	_i.i2c_slave_callback_if._chan.master_requires_data,@function
	.cc_top _i.i2c_slave_callback_if._chan.master_requires_data.function,_i.i2c_slave_callback_if._chan.master_requires_data
_i.i2c_slave_callback_if._chan.master_requires_data: # @_i.i2c_slave_callback_if._chan.master_requires_data
	.cfi_startproc
	.issue_mode single
# BB#0:                                 # %allocas
	ENTSP_lu6 4
.Ltmp190:
	.cfi_def_cfa_offset 16
.Ltmp191:
	.cfi_offset 15, 0
	stw r4, sp[2]                   # 4-byte Folded Spill
.Ltmp192:
	.cfi_offset 4, -8
	#DEBUG_VALUE: _i.i2c_slave_callback_if._chan.master_requires_data:dest <- R0
	getr r4, 2
	setd res[r4], r0
	add r0, r4, 2
	out res[r4], r0
	outct res[r4], 2
	ldc r1, 0
	mov r0, r4
	bl __interface_wait_and_yield
	in r0, res[r4]
	int r0, res[r4]
	chkct res[r4], 1
	freer res[r4]
	ldw r4, sp[2]                   # 4-byte Folded Reload
	retsp 4
	# RETURN_REG_HOLDER
	.cc_bottom _i.i2c_slave_callback_if._chan.master_requires_data.function
	.set	_i.i2c_slave_callback_if._chan.master_requires_data.nstackwords,((_i.i2c_slave_callback_if._client_call_y.max.nstackwords $M ($D __interface_wait_and_yield.nstackwords ? __interface_wait_and_yield.nstackwords $: _i.i2c_slave_callback_if._client_call_y.max.nstackwords)) + 4)
	.globl	_i.i2c_slave_callback_if._chan.master_requires_data.nstackwords
	.weak	_i.i2c_slave_callback_if._chan.master_requires_data.nstackwords
	.set	_i.i2c_slave_callback_if._chan.master_requires_data.maxcores,($D __interface_wait_and_yield.maxcores ? __interface_wait_and_yield.maxcores $: _i.i2c_slave_callback_if._client_call_y.max.maxcores) $M 1
	.globl	_i.i2c_slave_callback_if._chan.master_requires_data.maxcores
	.weak	_i.i2c_slave_callback_if._chan.master_requires_data.maxcores
	.set	_i.i2c_slave_callback_if._chan.master_requires_data.maxtimers,($D __interface_wait_and_yield.maxtimers ? __interface_wait_and_yield.maxtimers $: _i.i2c_slave_callback_if._client_call_y.max.maxtimers) $M 0
	.globl	_i.i2c_slave_callback_if._chan.master_requires_data.maxtimers
	.weak	_i.i2c_slave_callback_if._chan.master_requires_data.maxtimers
	.set	_i.i2c_slave_callback_if._chan.master_requires_data.maxchanends,(1 + ($D __interface_wait_and_yield.maxchanends ? __interface_wait_and_yield.maxchanends $: _i.i2c_slave_callback_if._client_call_y.max.maxchanends)) $M 1
	.globl	_i.i2c_slave_callback_if._chan.master_requires_data.maxchanends
	.weak	_i.i2c_slave_callback_if._chan.master_requires_data.maxchanends
.Ltmp193:
	.size	_i.i2c_slave_callback_if._chan.master_requires_data, .Ltmp193-_i.i2c_slave_callback_if._chan.master_requires_data
	.cfi_endproc

	.weak	_i.i2c_slave_callback_if._chan.ack_write_request
	.align	4
	.type	_i.i2c_slave_callback_if._chan.ack_write_request,@function
	.cc_top _i.i2c_slave_callback_if._chan.ack_write_request.function,_i.i2c_slave_callback_if._chan.ack_write_request
_i.i2c_slave_callback_if._chan.ack_write_request: # @_i.i2c_slave_callback_if._chan.ack_write_request
	.cfi_startproc
	.issue_mode single
# BB#0:                                 # %allocas
	ENTSP_lu6 4
.Ltmp194:
	.cfi_def_cfa_offset 16
.Ltmp195:
	.cfi_offset 15, 0
	stw r4, sp[2]                   # 4-byte Folded Spill
.Ltmp196:
	.cfi_offset 4, -8
	#DEBUG_VALUE: _i.i2c_slave_callback_if._chan.ack_write_request:dest <- R0
	getr r4, 2
	setd res[r4], r0
	add r0, r4, 1
	out res[r4], r0
	outct res[r4], 2
	ldc r1, 0
	mov r0, r4
	bl __interface_wait_and_yield
	in r0, res[r4]
	in r0, res[r4]
	chkct res[r4], 1
	freer res[r4]
	ldw r4, sp[2]                   # 4-byte Folded Reload
	retsp 4
	# RETURN_REG_HOLDER
	.cc_bottom _i.i2c_slave_callback_if._chan.ack_write_request.function
	.set	_i.i2c_slave_callback_if._chan.ack_write_request.nstackwords,((_i.i2c_slave_callback_if._client_call_y.max.nstackwords $M ($D __interface_wait_and_yield.nstackwords ? __interface_wait_and_yield.nstackwords $: _i.i2c_slave_callback_if._client_call_y.max.nstackwords)) + 4)
	.globl	_i.i2c_slave_callback_if._chan.ack_write_request.nstackwords
	.weak	_i.i2c_slave_callback_if._chan.ack_write_request.nstackwords
	.set	_i.i2c_slave_callback_if._chan.ack_write_request.maxcores,($D __interface_wait_and_yield.maxcores ? __interface_wait_and_yield.maxcores $: _i.i2c_slave_callback_if._client_call_y.max.maxcores) $M 1
	.globl	_i.i2c_slave_callback_if._chan.ack_write_request.maxcores
	.weak	_i.i2c_slave_callback_if._chan.ack_write_request.maxcores
	.set	_i.i2c_slave_callback_if._chan.ack_write_request.maxtimers,($D __interface_wait_and_yield.maxtimers ? __interface_wait_and_yield.maxtimers $: _i.i2c_slave_callback_if._client_call_y.max.maxtimers) $M 0
	.globl	_i.i2c_slave_callback_if._chan.ack_write_request.maxtimers
	.weak	_i.i2c_slave_callback_if._chan.ack_write_request.maxtimers
	.set	_i.i2c_slave_callback_if._chan.ack_write_request.maxchanends,(1 + ($D __interface_wait_and_yield.maxchanends ? __interface_wait_and_yield.maxchanends $: _i.i2c_slave_callback_if._client_call_y.max.maxchanends)) $M 1
	.globl	_i.i2c_slave_callback_if._chan.ack_write_request.maxchanends
	.weak	_i.i2c_slave_callback_if._chan.ack_write_request.maxchanends
.Ltmp197:
	.size	_i.i2c_slave_callback_if._chan.ack_write_request, .Ltmp197-_i.i2c_slave_callback_if._chan.ack_write_request
	.cfi_endproc

	.weak	_i.i2c_slave_callback_if._chan.ack_read_request
	.align	4
	.type	_i.i2c_slave_callback_if._chan.ack_read_request,@function
	.cc_top _i.i2c_slave_callback_if._chan.ack_read_request.function,_i.i2c_slave_callback_if._chan.ack_read_request
_i.i2c_slave_callback_if._chan.ack_read_request: # @_i.i2c_slave_callback_if._chan.ack_read_request
	.cfi_startproc
	.issue_mode single
# BB#0:                                 # %allocas
	ENTSP_lu6 4
.Ltmp198:
	.cfi_def_cfa_offset 16
.Ltmp199:
	.cfi_offset 15, 0
	stw r4, sp[2]                   # 4-byte Folded Spill
.Ltmp200:
	.cfi_offset 4, -8
	#DEBUG_VALUE: _i.i2c_slave_callback_if._chan.ack_read_request:dest <- R0
	getr r4, 2
	setd res[r4], r0
	out res[r4], r4
	outct res[r4], 2
	ldc r1, 0
	mov r0, r4
	bl __interface_wait_and_yield
	in r0, res[r4]
	in r0, res[r4]
	chkct res[r4], 1
	freer res[r4]
	ldw r4, sp[2]                   # 4-byte Folded Reload
	retsp 4
	# RETURN_REG_HOLDER
	.cc_bottom _i.i2c_slave_callback_if._chan.ack_read_request.function
	.set	_i.i2c_slave_callback_if._chan.ack_read_request.nstackwords,((_i.i2c_slave_callback_if._client_call_y.max.nstackwords $M ($D __interface_wait_and_yield.nstackwords ? __interface_wait_and_yield.nstackwords $: _i.i2c_slave_callback_if._client_call_y.max.nstackwords)) + 4)
	.globl	_i.i2c_slave_callback_if._chan.ack_read_request.nstackwords
	.weak	_i.i2c_slave_callback_if._chan.ack_read_request.nstackwords
	.set	_i.i2c_slave_callback_if._chan.ack_read_request.maxcores,($D __interface_wait_and_yield.maxcores ? __interface_wait_and_yield.maxcores $: _i.i2c_slave_callback_if._client_call_y.max.maxcores) $M 1
	.globl	_i.i2c_slave_callback_if._chan.ack_read_request.maxcores
	.weak	_i.i2c_slave_callback_if._chan.ack_read_request.maxcores
	.set	_i.i2c_slave_callback_if._chan.ack_read_request.maxtimers,($D __interface_wait_and_yield.maxtimers ? __interface_wait_and_yield.maxtimers $: _i.i2c_slave_callback_if._client_call_y.max.maxtimers) $M 0
	.globl	_i.i2c_slave_callback_if._chan.ack_read_request.maxtimers
	.weak	_i.i2c_slave_callback_if._chan.ack_read_request.maxtimers
	.set	_i.i2c_slave_callback_if._chan.ack_read_request.maxchanends,(1 + ($D __interface_wait_and_yield.maxchanends ? __interface_wait_and_yield.maxchanends $: _i.i2c_slave_callback_if._client_call_y.max.maxchanends)) $M 1
	.globl	_i.i2c_slave_callback_if._chan.ack_read_request.maxchanends
	.weak	_i.i2c_slave_callback_if._chan.ack_read_request.maxchanends
.Ltmp201:
	.size	_i.i2c_slave_callback_if._chan.ack_read_request, .Ltmp201-_i.i2c_slave_callback_if._chan.ack_read_request
	.cfi_endproc

	.weak	_i.i2c_slave_callback_if._chan_yield.stop_bit
	.align	4
	.type	_i.i2c_slave_callback_if._chan_yield.stop_bit,@function
	.cc_top _i.i2c_slave_callback_if._chan_yield.stop_bit.function,_i.i2c_slave_callback_if._chan_yield.stop_bit
_i.i2c_slave_callback_if._chan_yield.stop_bit: # @_i.i2c_slave_callback_if._chan_yield.stop_bit
	.cfi_startproc
	.issue_mode single
# BB#0:                                 # %allocas
	ENTSP_lu6 4
.Ltmp202:
	.cfi_def_cfa_offset 16
.Ltmp203:
	.cfi_offset 15, 0
	std r5, r4, sp[1]               # 4-byte Folded Spill
.Ltmp204:
	.cfi_offset 4, -8
.Ltmp205:
	.cfi_offset 5, -4
	#DEBUG_VALUE: _i.i2c_slave_callback_if._chan_yield.stop_bit:s <- R0
	ldw r1, r0[0]
	getr r4, 2
	setd res[r4], r1
	add r1, r4, 4
	out res[r4], r1
	outct res[r4], 2
	ldw r5, r0[1]
	mov r0, r4
	mov r1, r5
	bl __interface_wait_and_yield
	ldc r1, 0
	mov r0, r4
	mov r2, r5
	bl __interface_client_call_y
	chkct res[r4], 1
	freer res[r4]
	ldd r5, r4, sp[1]               # 4-byte Folded Reload
	retsp 4
	# RETURN_REG_HOLDER
	.cc_bottom _i.i2c_slave_callback_if._chan_yield.stop_bit.function
	.set	_i.i2c_slave_callback_if._chan_yield.stop_bit.nstackwords,((($D __interface_wait_and_yield.nstackwords ? __interface_wait_and_yield.nstackwords $: _i.i2c_slave_callback_if._client_call_y.max.nstackwords) $M _i.i2c_slave_callback_if._client_call_y.max.nstackwords $M ($D __interface_client_call_y.nstackwords ? __interface_client_call_y.nstackwords $: _i.i2c_slave_callback_if._client_call_y.max.nstackwords)) + 4)
	.globl	_i.i2c_slave_callback_if._chan_yield.stop_bit.nstackwords
	.weak	_i.i2c_slave_callback_if._chan_yield.stop_bit.nstackwords
	.set	_i.i2c_slave_callback_if._chan_yield.stop_bit.maxcores,($D __interface_client_call_y.maxcores ? __interface_client_call_y.maxcores $: _i.i2c_slave_callback_if._client_call_y.max.maxcores) $M ($D __interface_wait_and_yield.maxcores ? __interface_wait_and_yield.maxcores $: _i.i2c_slave_callback_if._client_call_y.max.maxcores) $M 1
	.globl	_i.i2c_slave_callback_if._chan_yield.stop_bit.maxcores
	.weak	_i.i2c_slave_callback_if._chan_yield.stop_bit.maxcores
	.set	_i.i2c_slave_callback_if._chan_yield.stop_bit.maxtimers,($D __interface_client_call_y.maxtimers ? __interface_client_call_y.maxtimers $: _i.i2c_slave_callback_if._client_call_y.max.maxtimers) $M ($D __interface_wait_and_yield.maxtimers ? __interface_wait_and_yield.maxtimers $: _i.i2c_slave_callback_if._client_call_y.max.maxtimers) $M 0
	.globl	_i.i2c_slave_callback_if._chan_yield.stop_bit.maxtimers
	.weak	_i.i2c_slave_callback_if._chan_yield.stop_bit.maxtimers
	.set	_i.i2c_slave_callback_if._chan_yield.stop_bit.maxchanends,(1 + ($D __interface_client_call_y.maxchanends ? __interface_client_call_y.maxchanends $: _i.i2c_slave_callback_if._client_call_y.max.maxchanends)) $M (1 + ($D __interface_wait_and_yield.maxchanends ? __interface_wait_and_yield.maxchanends $: _i.i2c_slave_callback_if._client_call_y.max.maxchanends)) $M 1
	.globl	_i.i2c_slave_callback_if._chan_yield.stop_bit.maxchanends
	.weak	_i.i2c_slave_callback_if._chan_yield.stop_bit.maxchanends
.Ltmp206:
	.size	_i.i2c_slave_callback_if._chan_yield.stop_bit, .Ltmp206-_i.i2c_slave_callback_if._chan_yield.stop_bit
	.cfi_endproc

	.weak	_i.i2c_slave_callback_if._chan_yield.master_sent_data
	.align	4
	.type	_i.i2c_slave_callback_if._chan_yield.master_sent_data,@function
	.cc_top _i.i2c_slave_callback_if._chan_yield.master_sent_data.function,_i.i2c_slave_callback_if._chan_yield.master_sent_data
_i.i2c_slave_callback_if._chan_yield.master_sent_data: # @_i.i2c_slave_callback_if._chan_yield.master_sent_data
	.cfi_startproc
	.issue_mode single
# BB#0:                                 # %allocas
	ENTSP_lu6 6
.Ltmp207:
	.cfi_def_cfa_offset 24
.Ltmp208:
	.cfi_offset 15, 0
	std r5, r4, sp[1]               # 4-byte Folded Spill
.Ltmp209:
	.cfi_offset 4, -16
.Ltmp210:
	.cfi_offset 5, -12
	stw r6, sp[4]                   # 4-byte Folded Spill
.Ltmp211:
	.cfi_offset 6, -8
	#DEBUG_VALUE: _i.i2c_slave_callback_if._chan_yield.master_sent_data:s <- R0
	#DEBUG_VALUE: _i.i2c_slave_callback_if._chan_yield.master_sent_data:param1 <- R1
	mov r4, r1
	#DEBUG_VALUE: _i.i2c_slave_callback_if._chan_yield.master_sent_data:param1 <- R4
	ldw r1, r0[0]
	getr r5, 2
	setd res[r5], r1
	add r1, r5, 3
	out res[r5], r1
	outct res[r5], 2
	ldw r6, r0[1]
	mov r0, r5
	mov r1, r6
	bl __interface_wait_and_yield
	chkct res[r5], 1
	outt res[r5], r4
	outct res[r5], 2
	ldc r1, 0
	mov r0, r5
	mov r2, r6
	bl __interface_client_call_y
	in r0, res[r5]
	chkct res[r5], 1
	freer res[r5]
	ldw r6, sp[4]                   # 4-byte Folded Reload
	ldd r5, r4, sp[1]               # 4-byte Folded Reload
	retsp 6
	# RETURN_REG_HOLDER
	.cc_bottom _i.i2c_slave_callback_if._chan_yield.master_sent_data.function
	.set	_i.i2c_slave_callback_if._chan_yield.master_sent_data.nstackwords,((($D __interface_wait_and_yield.nstackwords ? __interface_wait_and_yield.nstackwords $: _i.i2c_slave_callback_if._client_call_y.max.nstackwords) $M _i.i2c_slave_callback_if._client_call_y.max.nstackwords $M ($D __interface_client_call_y.nstackwords ? __interface_client_call_y.nstackwords $: _i.i2c_slave_callback_if._client_call_y.max.nstackwords)) + 6)
	.globl	_i.i2c_slave_callback_if._chan_yield.master_sent_data.nstackwords
	.weak	_i.i2c_slave_callback_if._chan_yield.master_sent_data.nstackwords
	.set	_i.i2c_slave_callback_if._chan_yield.master_sent_data.maxcores,($D __interface_client_call_y.maxcores ? __interface_client_call_y.maxcores $: _i.i2c_slave_callback_if._client_call_y.max.maxcores) $M ($D __interface_wait_and_yield.maxcores ? __interface_wait_and_yield.maxcores $: _i.i2c_slave_callback_if._client_call_y.max.maxcores) $M 1
	.globl	_i.i2c_slave_callback_if._chan_yield.master_sent_data.maxcores
	.weak	_i.i2c_slave_callback_if._chan_yield.master_sent_data.maxcores
	.set	_i.i2c_slave_callback_if._chan_yield.master_sent_data.maxtimers,($D __interface_client_call_y.maxtimers ? __interface_client_call_y.maxtimers $: _i.i2c_slave_callback_if._client_call_y.max.maxtimers) $M ($D __interface_wait_and_yield.maxtimers ? __interface_wait_and_yield.maxtimers $: _i.i2c_slave_callback_if._client_call_y.max.maxtimers) $M 0
	.globl	_i.i2c_slave_callback_if._chan_yield.master_sent_data.maxtimers
	.weak	_i.i2c_slave_callback_if._chan_yield.master_sent_data.maxtimers
	.set	_i.i2c_slave_callback_if._chan_yield.master_sent_data.maxchanends,(1 + ($D __interface_client_call_y.maxchanends ? __interface_client_call_y.maxchanends $: _i.i2c_slave_callback_if._client_call_y.max.maxchanends)) $M (1 + ($D __interface_wait_and_yield.maxchanends ? __interface_wait_and_yield.maxchanends $: _i.i2c_slave_callback_if._client_call_y.max.maxchanends)) $M 1
	.globl	_i.i2c_slave_callback_if._chan_yield.master_sent_data.maxchanends
	.weak	_i.i2c_slave_callback_if._chan_yield.master_sent_data.maxchanends
.Ltmp212:
	.size	_i.i2c_slave_callback_if._chan_yield.master_sent_data, .Ltmp212-_i.i2c_slave_callback_if._chan_yield.master_sent_data
	.cfi_endproc

	.weak	_i.i2c_slave_callback_if._chan_yield.master_requires_data
	.align	4
	.type	_i.i2c_slave_callback_if._chan_yield.master_requires_data,@function
	.cc_top _i.i2c_slave_callback_if._chan_yield.master_requires_data.function,_i.i2c_slave_callback_if._chan_yield.master_requires_data
_i.i2c_slave_callback_if._chan_yield.master_requires_data: # @_i.i2c_slave_callback_if._chan_yield.master_requires_data
	.cfi_startproc
	.issue_mode single
# BB#0:                                 # %allocas
	ENTSP_lu6 4
.Ltmp213:
	.cfi_def_cfa_offset 16
.Ltmp214:
	.cfi_offset 15, 0
	std r5, r4, sp[1]               # 4-byte Folded Spill
.Ltmp215:
	.cfi_offset 4, -8
.Ltmp216:
	.cfi_offset 5, -4
	#DEBUG_VALUE: _i.i2c_slave_callback_if._chan_yield.master_requires_data:s <- R0
	ldw r1, r0[0]
	getr r4, 2
	setd res[r4], r1
	add r1, r4, 2
	out res[r4], r1
	outct res[r4], 2
	ldw r5, r0[1]
	mov r0, r4
	mov r1, r5
	bl __interface_wait_and_yield
	ldc r1, 0
	mov r0, r4
	mov r2, r5
	bl __interface_client_call_y
	int r0, res[r4]
	chkct res[r4], 1
	freer res[r4]
	ldd r5, r4, sp[1]               # 4-byte Folded Reload
	retsp 4
	# RETURN_REG_HOLDER
	.cc_bottom _i.i2c_slave_callback_if._chan_yield.master_requires_data.function
	.set	_i.i2c_slave_callback_if._chan_yield.master_requires_data.nstackwords,((($D __interface_wait_and_yield.nstackwords ? __interface_wait_and_yield.nstackwords $: _i.i2c_slave_callback_if._client_call_y.max.nstackwords) $M _i.i2c_slave_callback_if._client_call_y.max.nstackwords $M ($D __interface_client_call_y.nstackwords ? __interface_client_call_y.nstackwords $: _i.i2c_slave_callback_if._client_call_y.max.nstackwords)) + 4)
	.globl	_i.i2c_slave_callback_if._chan_yield.master_requires_data.nstackwords
	.weak	_i.i2c_slave_callback_if._chan_yield.master_requires_data.nstackwords
	.set	_i.i2c_slave_callback_if._chan_yield.master_requires_data.maxcores,($D __interface_client_call_y.maxcores ? __interface_client_call_y.maxcores $: _i.i2c_slave_callback_if._client_call_y.max.maxcores) $M ($D __interface_wait_and_yield.maxcores ? __interface_wait_and_yield.maxcores $: _i.i2c_slave_callback_if._client_call_y.max.maxcores) $M 1
	.globl	_i.i2c_slave_callback_if._chan_yield.master_requires_data.maxcores
	.weak	_i.i2c_slave_callback_if._chan_yield.master_requires_data.maxcores
	.set	_i.i2c_slave_callback_if._chan_yield.master_requires_data.maxtimers,($D __interface_client_call_y.maxtimers ? __interface_client_call_y.maxtimers $: _i.i2c_slave_callback_if._client_call_y.max.maxtimers) $M ($D __interface_wait_and_yield.maxtimers ? __interface_wait_and_yield.maxtimers $: _i.i2c_slave_callback_if._client_call_y.max.maxtimers) $M 0
	.globl	_i.i2c_slave_callback_if._chan_yield.master_requires_data.maxtimers
	.weak	_i.i2c_slave_callback_if._chan_yield.master_requires_data.maxtimers
	.set	_i.i2c_slave_callback_if._chan_yield.master_requires_data.maxchanends,(1 + ($D __interface_client_call_y.maxchanends ? __interface_client_call_y.maxchanends $: _i.i2c_slave_callback_if._client_call_y.max.maxchanends)) $M (1 + ($D __interface_wait_and_yield.maxchanends ? __interface_wait_and_yield.maxchanends $: _i.i2c_slave_callback_if._client_call_y.max.maxchanends)) $M 1
	.globl	_i.i2c_slave_callback_if._chan_yield.master_requires_data.maxchanends
	.weak	_i.i2c_slave_callback_if._chan_yield.master_requires_data.maxchanends
.Ltmp217:
	.size	_i.i2c_slave_callback_if._chan_yield.master_requires_data, .Ltmp217-_i.i2c_slave_callback_if._chan_yield.master_requires_data
	.cfi_endproc

	.weak	_i.i2c_slave_callback_if._chan_yield.ack_write_request
	.align	4
	.type	_i.i2c_slave_callback_if._chan_yield.ack_write_request,@function
	.cc_top _i.i2c_slave_callback_if._chan_yield.ack_write_request.function,_i.i2c_slave_callback_if._chan_yield.ack_write_request
_i.i2c_slave_callback_if._chan_yield.ack_write_request: # @_i.i2c_slave_callback_if._chan_yield.ack_write_request
	.cfi_startproc
	.issue_mode single
# BB#0:                                 # %allocas
	ENTSP_lu6 4
.Ltmp218:
	.cfi_def_cfa_offset 16
.Ltmp219:
	.cfi_offset 15, 0
	std r5, r4, sp[1]               # 4-byte Folded Spill
.Ltmp220:
	.cfi_offset 4, -8
.Ltmp221:
	.cfi_offset 5, -4
	#DEBUG_VALUE: _i.i2c_slave_callback_if._chan_yield.ack_write_request:s <- R0
	ldw r1, r0[0]
	getr r4, 2
	setd res[r4], r1
	add r1, r4, 1
	out res[r4], r1
	outct res[r4], 2
	ldw r5, r0[1]
	mov r0, r4
	mov r1, r5
	bl __interface_wait_and_yield
	ldc r1, 0
	mov r0, r4
	mov r2, r5
	bl __interface_client_call_y
	in r0, res[r4]
	chkct res[r4], 1
	freer res[r4]
	ldd r5, r4, sp[1]               # 4-byte Folded Reload
	retsp 4
	# RETURN_REG_HOLDER
	.cc_bottom _i.i2c_slave_callback_if._chan_yield.ack_write_request.function
	.set	_i.i2c_slave_callback_if._chan_yield.ack_write_request.nstackwords,((($D __interface_wait_and_yield.nstackwords ? __interface_wait_and_yield.nstackwords $: _i.i2c_slave_callback_if._client_call_y.max.nstackwords) $M _i.i2c_slave_callback_if._client_call_y.max.nstackwords $M ($D __interface_client_call_y.nstackwords ? __interface_client_call_y.nstackwords $: _i.i2c_slave_callback_if._client_call_y.max.nstackwords)) + 4)
	.globl	_i.i2c_slave_callback_if._chan_yield.ack_write_request.nstackwords
	.weak	_i.i2c_slave_callback_if._chan_yield.ack_write_request.nstackwords
	.set	_i.i2c_slave_callback_if._chan_yield.ack_write_request.maxcores,($D __interface_client_call_y.maxcores ? __interface_client_call_y.maxcores $: _i.i2c_slave_callback_if._client_call_y.max.maxcores) $M ($D __interface_wait_and_yield.maxcores ? __interface_wait_and_yield.maxcores $: _i.i2c_slave_callback_if._client_call_y.max.maxcores) $M 1
	.globl	_i.i2c_slave_callback_if._chan_yield.ack_write_request.maxcores
	.weak	_i.i2c_slave_callback_if._chan_yield.ack_write_request.maxcores
	.set	_i.i2c_slave_callback_if._chan_yield.ack_write_request.maxtimers,($D __interface_client_call_y.maxtimers ? __interface_client_call_y.maxtimers $: _i.i2c_slave_callback_if._client_call_y.max.maxtimers) $M ($D __interface_wait_and_yield.maxtimers ? __interface_wait_and_yield.maxtimers $: _i.i2c_slave_callback_if._client_call_y.max.maxtimers) $M 0
	.globl	_i.i2c_slave_callback_if._chan_yield.ack_write_request.maxtimers
	.weak	_i.i2c_slave_callback_if._chan_yield.ack_write_request.maxtimers
	.set	_i.i2c_slave_callback_if._chan_yield.ack_write_request.maxchanends,(1 + ($D __interface_client_call_y.maxchanends ? __interface_client_call_y.maxchanends $: _i.i2c_slave_callback_if._client_call_y.max.maxchanends)) $M (1 + ($D __interface_wait_and_yield.maxchanends ? __interface_wait_and_yield.maxchanends $: _i.i2c_slave_callback_if._client_call_y.max.maxchanends)) $M 1
	.globl	_i.i2c_slave_callback_if._chan_yield.ack_write_request.maxchanends
	.weak	_i.i2c_slave_callback_if._chan_yield.ack_write_request.maxchanends
.Ltmp222:
	.size	_i.i2c_slave_callback_if._chan_yield.ack_write_request, .Ltmp222-_i.i2c_slave_callback_if._chan_yield.ack_write_request
	.cfi_endproc

	.weak	_i.i2c_slave_callback_if._chan_yield.ack_read_request
	.align	4
	.type	_i.i2c_slave_callback_if._chan_yield.ack_read_request,@function
	.cc_top _i.i2c_slave_callback_if._chan_yield.ack_read_request.function,_i.i2c_slave_callback_if._chan_yield.ack_read_request
_i.i2c_slave_callback_if._chan_yield.ack_read_request: # @_i.i2c_slave_callback_if._chan_yield.ack_read_request
	.cfi_startproc
	.issue_mode single
# BB#0:                                 # %allocas
	ENTSP_lu6 4
.Ltmp223:
	.cfi_def_cfa_offset 16
.Ltmp224:
	.cfi_offset 15, 0
	std r5, r4, sp[1]               # 4-byte Folded Spill
.Ltmp225:
	.cfi_offset 4, -8
.Ltmp226:
	.cfi_offset 5, -4
	#DEBUG_VALUE: _i.i2c_slave_callback_if._chan_yield.ack_read_request:s <- R0
	ldw r1, r0[0]
	getr r4, 2
	setd res[r4], r1
	out res[r4], r4
	outct res[r4], 2
	ldw r5, r0[1]
	mov r0, r4
	mov r1, r5
	bl __interface_wait_and_yield
	ldc r1, 0
	mov r0, r4
	mov r2, r5
	bl __interface_client_call_y
	in r0, res[r4]
	chkct res[r4], 1
	freer res[r4]
	ldd r5, r4, sp[1]               # 4-byte Folded Reload
	retsp 4
	# RETURN_REG_HOLDER
	.cc_bottom _i.i2c_slave_callback_if._chan_yield.ack_read_request.function
	.set	_i.i2c_slave_callback_if._chan_yield.ack_read_request.nstackwords,((($D __interface_wait_and_yield.nstackwords ? __interface_wait_and_yield.nstackwords $: _i.i2c_slave_callback_if._client_call_y.max.nstackwords) $M _i.i2c_slave_callback_if._client_call_y.max.nstackwords $M ($D __interface_client_call_y.nstackwords ? __interface_client_call_y.nstackwords $: _i.i2c_slave_callback_if._client_call_y.max.nstackwords)) + 4)
	.globl	_i.i2c_slave_callback_if._chan_yield.ack_read_request.nstackwords
	.weak	_i.i2c_slave_callback_if._chan_yield.ack_read_request.nstackwords
	.set	_i.i2c_slave_callback_if._chan_yield.ack_read_request.maxcores,($D __interface_client_call_y.maxcores ? __interface_client_call_y.maxcores $: _i.i2c_slave_callback_if._client_call_y.max.maxcores) $M ($D __interface_wait_and_yield.maxcores ? __interface_wait_and_yield.maxcores $: _i.i2c_slave_callback_if._client_call_y.max.maxcores) $M 1
	.globl	_i.i2c_slave_callback_if._chan_yield.ack_read_request.maxcores
	.weak	_i.i2c_slave_callback_if._chan_yield.ack_read_request.maxcores
	.set	_i.i2c_slave_callback_if._chan_yield.ack_read_request.maxtimers,($D __interface_client_call_y.maxtimers ? __interface_client_call_y.maxtimers $: _i.i2c_slave_callback_if._client_call_y.max.maxtimers) $M ($D __interface_wait_and_yield.maxtimers ? __interface_wait_and_yield.maxtimers $: _i.i2c_slave_callback_if._client_call_y.max.maxtimers) $M 0
	.globl	_i.i2c_slave_callback_if._chan_yield.ack_read_request.maxtimers
	.weak	_i.i2c_slave_callback_if._chan_yield.ack_read_request.maxtimers
	.set	_i.i2c_slave_callback_if._chan_yield.ack_read_request.maxchanends,(1 + ($D __interface_client_call_y.maxchanends ? __interface_client_call_y.maxchanends $: _i.i2c_slave_callback_if._client_call_y.max.maxchanends)) $M (1 + ($D __interface_wait_and_yield.maxchanends ? __interface_wait_and_yield.maxchanends $: _i.i2c_slave_callback_if._client_call_y.max.maxchanends)) $M 1
	.globl	_i.i2c_slave_callback_if._chan_yield.ack_read_request.maxchanends
	.weak	_i.i2c_slave_callback_if._chan_yield.ack_read_request.maxchanends
.Ltmp227:
	.size	_i.i2c_slave_callback_if._chan_yield.ack_read_request, .Ltmp227-_i.i2c_slave_callback_if._chan_yield.ack_read_request
	.cfi_endproc

	.section	.cp.rodata.cst4,"aMc",@progbits,4
	.cc_top .LCPI36_0.data,.LCPI36_0
	.align	4
	.type	.LCPI36_0,@object
	.size	.LCPI36_0, 4
.LCPI36_0:
	.long	4294967288              # 0xfffffff8
	.cc_bottom .LCPI36_0.data
	.text
	.globl	i2c_master_async
	.align	4
	.type	i2c_master_async,@function
	.cc_top i2c_master_async.function,i2c_master_async
i2c_master_async:                       # @i2c_master_async
.Lfunc_begin36:
	.loc	2 128 0                 # F:/Projects/UI-01_sw1_hw1/lib_i2c/src/i2c_master_async.xc:128:0
	.cfi_startproc
	.issue_mode single
# BB#0:                                 # %allocas
.Lxtalabel5:
	ENTSP_lu6 8
.Ltmp228:
	.cfi_def_cfa_offset 32
.Ltmp229:
	.cfi_offset 15, 0
	stw r10, sp[2]                  # 4-byte Folded Spill
.Ltmp230:
	.cfi_offset 10, -24
	ldaw r10, sp[0]
.Ltmp231:
	.cfi_def_cfa_register 10
	std r5, r4, r10[2]              # 4-byte Folded Spill
.Ltmp232:
	.cfi_offset 4, -16
.Ltmp233:
	.cfi_offset 5, -12
	std r7, r6, r10[3]              # 4-byte Folded Spill
.Ltmp234:
	.cfi_offset 6, -8
.Ltmp235:
	.cfi_offset 7, -4
	ldw r11, r10[10]
	ldw r4, r10[9]
	ldc r5, i2c_master_async.savedstate
	ldc r6, 71
	ldaw r5, r6[r5]
	ldw r6, cp[.LCPI36_0]
	and r5, r5, r6
	ldaw r7, sp[0]
	sub r5, r7, r5
	set sp, r5
	# ALLOCA 1
	stw r0, r5[0]
	stw r1, r5[1]
	stw r1, r5[2]
	stw r2, r5[3]
	stw r3, r5[4]
	stw r4, r5[5]
	stw r11, r5[6]
	ldc r0, _Si2c_master_0.init.0.savedstate
	mkmsk r1, 4
	ldaw r0, r1[r0]
	and r0, r0, r6
	ldaw r1, sp[0]
	sub r0, r1, r0
	set sp, r0
	# ALLOCA 0
	add r0, r0, 8
	.loc	2 129 0 prologue_end    # F:/Projects/UI-01_sw1_hw1/lib_i2c/src/i2c_master_async.xc:129:0
.Ltmp236:
	ldaw r1, r5[7]
	.loc	2 129 0                 # F:/Projects/UI-01_sw1_hw1/lib_i2c/src/i2c_master_async.xc:129:0
	ldaw r2, r5[11]
	ldc r3, 52
	.loc	2 129 0                 # F:/Projects/UI-01_sw1_hw1/lib_i2c/src/i2c_master_async.xc:129:0
	add r3, r5, r3
	ldc r4, 0
	.loc	2 129 0                 # F:/Projects/UI-01_sw1_hw1/lib_i2c/src/i2c_master_async.xc:129:0
	stw r4, r5[11]
	ldc r11, 48
	.loc	2 129 0                 # F:/Projects/UI-01_sw1_hw1/lib_i2c/src/i2c_master_async.xc:129:0
	add r11, r5, r11
	.loc	2 129 0                 # F:/Projects/UI-01_sw1_hw1/lib_i2c/src/i2c_master_async.xc:129:0
	stw r4, r11[0]
	.loc	2 129 0                 # F:/Projects/UI-01_sw1_hw1/lib_i2c/src/i2c_master_async.xc:129:0
	stw r2, r3[0]
	ldc r11, 56
	.loc	2 129 0                 # F:/Projects/UI-01_sw1_hw1/lib_i2c/src/i2c_master_async.xc:129:0
	add r6, r5, r11
	.loc	2 129 0                 # F:/Projects/UI-01_sw1_hw1/lib_i2c/src/i2c_master_async.xc:129:0
	ldaw r11, cp[.vtable]
	stw r11, r6[0]
	.loc	2 129 0                 # F:/Projects/UI-01_sw1_hw1/lib_i2c/src/i2c_master_async.xc:129:0
	stw r3, r5[8]
	.loc	2 129 0                 # F:/Projects/UI-01_sw1_hw1/lib_i2c/src/i2c_master_async.xc:129:0
	ldaw r3, r5[9]
	.loc	2 129 0                 # F:/Projects/UI-01_sw1_hw1/lib_i2c/src/i2c_master_async.xc:129:0
	stw r4, r5[9]
	.loc	2 129 0                 # F:/Projects/UI-01_sw1_hw1/lib_i2c/src/i2c_master_async.xc:129:0
	stw r2, r5[10]
	.loc	2 129 0                 # F:/Projects/UI-01_sw1_hw1/lib_i2c/src/i2c_master_async.xc:129:0
	stw r3, r5[7]
	stw r0, r10[3]
	ldaw r6, r10[3]
	#init allocation
	ldw r4, r10[3]
	ldw r2, r5[3]
	ldw r3, r5[4]
	ldw r0, r5[5]
	# STACKUP 
	# ALLOCA 2
	extsp 2
	stw r0, sp[1]
	mov r0, r4
.Lxta.call_labels0:
	bl _Si2c_master_0.init.0
	ldaw sp, sp[2]
	# STACKDOWN
	# STACKUP 
	# ALLOCA 3
	extsp 2
	mov r0, r4
	bl _Si2c_master_0.init.1
	ldaw sp, sp[2]
	# STACKDOWN
.Ltmp237:
	.loc	2 134 0                 # F:/Projects/UI-01_sw1_hw1/lib_i2c/src/i2c_master_async.xc:134:0
	ldw r0, r5[1]
	.loc	2 134 0                 # F:/Projects/UI-01_sw1_hw1/lib_i2c/src/i2c_master_async.xc:134:0
	ldw r1, r5[2]
	.loc	2 134 0                 # F:/Projects/UI-01_sw1_hw1/lib_i2c/src/i2c_master_async.xc:134:0
	lsu r0, r0, r1
.Ltrap_info2:
	ecallt r0
	.loc	2 134 0                 # F:/Projects/UI-01_sw1_hw1/lib_i2c/src/i2c_master_async.xc:134:0
	ldw r3, r5[6]
	.loc	2 134 0                 # F:/Projects/UI-01_sw1_hw1/lib_i2c/src/i2c_master_async.xc:134:0
	ldw r2, r5[8]
	.loc	2 134 0                 # F:/Projects/UI-01_sw1_hw1/lib_i2c/src/i2c_master_async.xc:134:0
	ldw r0, r5[0]
	.loc	2 134 0                 # F:/Projects/UI-01_sw1_hw1/lib_i2c/src/i2c_master_async.xc:134:0
	# STACKUP 
	# ALLOCA 4
	extsp 2
.Lxta.call_labels1:
	bl _Si2c_master_async_aux_0
	ldaw sp, sp[2]
	# STACKDOWN
	# STACKUP 
	# ALLOCA 5
	extsp 2
	mov r0, r4
	bl _Si2c_master_0.fini
	ldaw sp, sp[2]
	# STACKDOWN
	#completed deallocation
	ldd r7, r6, r10[3]              # 4-byte Folded Reload
	ldd r5, r4, r10[2]              # 4-byte Folded Reload
	set sp, r10
	ldw r10, sp[2]                  # 4-byte Folded Reload
	retsp 8
	# RETURN_REG_HOLDER
	.cc_bottom i2c_master_async.function
	.set	i2c_master_async.nstackwords,(((((((i2c_master_async.savedstate << 2) + 71) & -8) >> 2) + ((((_Si2c_master_0.init.0.savedstate << 2) + 15) & -8) >> 2)) + ((2 + _Si2c_master_0.init.0.nstackwords) $M (2 + _Si2c_master_0.init.1.nstackwords) $M (2 + _Si2c_master_async_aux_0.nstackwords) $M (2 + _Si2c_master_0.fini.nstackwords))) + 8)
	.globl	i2c_master_async.nstackwords
	.set	i2c_master_async.maxcores,((1 * _Si2c_master_0.dynalloc_maxcores) + _Si2c_master_0.fini.maxcores) $M ((1 * _Si2c_master_0.dynalloc_maxcores) + _Si2c_master_0.init.0.maxcores) $M ((1 * _Si2c_master_0.dynalloc_maxcores) + _Si2c_master_0.init.1.maxcores) $M ((1 * _Si2c_master_0.dynalloc_maxcores) + _Si2c_master_async_aux_0.maxcores) $M ((1 * _Si2c_master_0.dynalloc_maxcores) + 1)
	.globl	i2c_master_async.maxcores
	.set	i2c_master_async.maxtimers,((1 * _Si2c_master_0.dynalloc_maxtimers) + _Si2c_master_0.fini.maxtimers) $M ((1 * _Si2c_master_0.dynalloc_maxtimers) + _Si2c_master_0.init.0.maxtimers) $M ((1 * _Si2c_master_0.dynalloc_maxtimers) + _Si2c_master_0.init.1.maxtimers) $M ((1 * _Si2c_master_0.dynalloc_maxtimers) + _Si2c_master_async_aux_0.maxtimers) $M ((1 * _Si2c_master_0.dynalloc_maxtimers) + 0)
	.globl	i2c_master_async.maxtimers
	.set	i2c_master_async.maxchanends,((1 * _Si2c_master_0.dynalloc_maxchanends) + _Si2c_master_0.fini.maxchanends) $M ((1 * _Si2c_master_0.dynalloc_maxchanends) + _Si2c_master_0.init.0.maxchanends) $M ((1 * _Si2c_master_0.dynalloc_maxchanends) + _Si2c_master_0.init.1.maxchanends) $M ((1 * _Si2c_master_0.dynalloc_maxchanends) + _Si2c_master_async_aux_0.maxchanends) $M ((1 * _Si2c_master_0.dynalloc_maxchanends) + 0)
	.globl	i2c_master_async.maxchanends
.Ltmp238:
	.size	i2c_master_async, .Ltmp238-i2c_master_async
.Lfunc_end36:
	.cfi_endproc

	.section	.cp.rodata.cst4,"aMc",@progbits,4
	.cc_top .LCPI37_0.data,.LCPI37_0
	.align	4
	.type	.LCPI37_0,@object
	.size	.LCPI37_0, 4
.LCPI37_0:
	.long	4294967288              # 0xfffffff8
	.cc_bottom .LCPI37_0.data
	.cc_top .LCPI37_1.data,.LCPI37_1
	.align	4
	.type	.LCPI37_1,@object
	.size	.LCPI37_1, 4
.LCPI37_1:
	.long	100000                  # 0x186a0
	.cc_bottom .LCPI37_1.data
	.text
	.globl	i2c_master_async_comb
	.align	4
	.type	i2c_master_async_comb,@function
	.cc_top i2c_master_async_comb.function,i2c_master_async_comb
i2c_master_async_comb:                  # @i2c_master_async_comb
.Lfunc_begin37:
	.loc	2 185 0                 # F:/Projects/UI-01_sw1_hw1/lib_i2c/src/i2c_master_async.xc:185:0
	.cfi_startproc
	.issue_mode single
# BB#0:                                 # %allocas
.Lxtalabel6:
	ENTSP_lu6 34
.Ltmp239:
	.cfi_def_cfa_offset 136
.Ltmp240:
	.cfi_offset 15, 0
	stw r10, sp[2]                  # 4-byte Folded Spill
.Ltmp241:
	.cfi_offset 10, -128
	ldaw r10, sp[0]
.Ltmp242:
	.cfi_def_cfa_register 10
	ldc r11, 14
	std r5, r4, r10[r11]            # 4-byte Folded Spill
.Ltmp243:
	.cfi_offset 4, -24
.Ltmp244:
	.cfi_offset 5, -20
	mkmsk r4, 4
	std r7, r6, r10[r4]             # 4-byte Folded Spill
.Ltmp245:
	.cfi_offset 6, -16
.Ltmp246:
	.cfi_offset 7, -12
	ldc r4, 16
	std r9, r8, r10[r4]             # 4-byte Folded Spill
.Ltmp247:
	.cfi_offset 8, -8
.Ltmp248:
	.cfi_offset 9, -4
	#DEBUG_VALUE: i2c_master_async_comb:i <- R0
	#DEBUG_VALUE: i2c_master_async_comb:n <- R1
	#DEBUG_VALUE: i2c_master_async_comb:p_scl <- R2
	#DEBUG_VALUE: i2c_master_async_comb:p_sda <- R3
	#DEBUG_VALUE: i2c_master_async_comb:kbits_per_second <- [R10+140]
	stw r3, r10[8]                  # 4-byte Folded Spill
.Ltmp249:
	#DEBUG_VALUE: i2c_master_async_comb:p_sda <- [R10+32]
	ldc r4, 26
	stw r2, r10[r4]                 # 4-byte Folded Spill
.Ltmp250:
	#DEBUG_VALUE: i2c_master_async_comb:p_scl <- [R10+104]
	#DEBUG_VALUE: i2c_master_async_comb:p_scl <- undef
	mov r6, r1
.Ltmp251:
	#DEBUG_VALUE: i2c_master_async_comb:n <- R6
	mov r7, r0
.Ltmp252:
	#DEBUG_VALUE: i2c_master_async_comb:i <- R7
	ldc r4, 36
	ldw r2, r10[r4]
	#DEBUG_VALUE: i2c_master_async_comb:max_transaction_size <- R2
	ldc r4, 35
	ldw r11, r10[r4]
	.loc	2 188 0 prologue_end    # F:/Projects/UI-01_sw1_hw1/lib_i2c/src/i2c_master_async.xc:188:0
.Ltmp253:
	ldc r1, i2c_master_async_comb.5.maxargsize
	.loc	2 188 0                 # F:/Projects/UI-01_sw1_hw1/lib_i2c/src/i2c_master_async.xc:188:0
	add r1, r1, 7
	ldw r3, cp[.LCPI37_0]
	and r1, r1, r3
	ldaw r3, sp[0]
	sub r0, r3, r1
	ldc r4, 14
	stw r0, r10[r4]                 # 4-byte Folded Spill
	set sp, r0
	# ALLOCA 0
	ldw r1, cp[.LCPI37_1]
.Ltmp254:
	.loc	2 186 0                 # F:/Projects/UI-01_sw1_hw1/lib_i2c/src/i2c_master_async.xc:186:0
	divu r8, r1, r11
.Ltmp255:
	#DEBUG_VALUE: bit_time <- R8
	.loc	2 188 0                 # F:/Projects/UI-01_sw1_hw1/lib_i2c/src/i2c_master_async.xc:188:0
	# STACKUP 
	# ALLOCA 1
	extsp 2
	ldc r9, 0
	mov r1, r9
.Ltmp256:
	#DEBUG_VALUE: i2c_master_async_comb:max_transaction_size <- undef
	bl memset
	ldaw sp, sp[2]
	# STACKDOWN
	get r11, id
.Ltmp257:
	#DEBUG_VALUE: res <- 1
	#DEBUG_VALUE: stopped <- 1
	#DEBUG_VALUE: send_stop_bit <- 0
	#DEBUG_VALUE: cur_client <- -1
	#DEBUG_VALUE: event_time <- 0
	#DEBUG_VALUE: adjust_for_slip:event_time <- 0
	#DEBUG_VALUE: adjust_for_slip:event_time <- 0
	#DEBUG_VALUE: adjust_for_slip:event_time <- 0
	#DEBUG_VALUE: adjust_for_slip:event_time <- 0
	#DEBUG_VALUE: adjust_for_slip:event_time <- 0
	#DEBUG_VALUE: adjust_for_slip:event_time <- 0
	#DEBUG_VALUE: adjust_for_slip:event_time <- 0
	#DEBUG_VALUE: adjust_for_slip:event_time <- 0
	#DEBUG_VALUE: adjust_for_slip:event_time <- 0
	#DEBUG_VALUE: adjust_for_slip:event_time <- 0
	#DEBUG_VALUE: adjust_for_slip:event_time <- 0
	#DEBUG_VALUE: adjust_for_slip:event_time <- 0
	#DEBUG_VALUE: num_bytes <- 0
	#DEBUG_VALUE: bytes_sent <- 0
	#DEBUG_VALUE: bitnum <- 0
	#DEBUG_VALUE: data <- 0
	#DEBUG_VALUE: fall_time <- 0
	#DEBUG_VALUE: adjust_for_slip:fall_time <- 0
	#DEBUG_VALUE: adjust_for_slip:fall_time <- 0
	#DEBUG_VALUE: adjust_for_slip:fall_time <- 0
	#DEBUG_VALUE: adjust_for_slip:fall_time <- 0
	#DEBUG_VALUE: adjust_for_slip:fall_time <- 0
	#DEBUG_VALUE: adjust_for_slip:fall_time <- 0
	#DEBUG_VALUE: adjust_for_slip:fall_time <- 0
	#DEBUG_VALUE: adjust_for_slip:fall_time <- 0
	#DEBUG_VALUE: adjust_for_slip:fall_time <- 0
	#DEBUG_VALUE: adjust_for_slip:fall_time <- 0
	#DEBUG_VALUE: adjust_for_slip:fall_time <- 0
	#DEBUG_VALUE: optype <- 0
	#DEBUG_VALUE: timer_enabled <- 0
	#DEBUG_VALUE: waiting_for_clock_release <- 0
	#DEBUG_VALUE: state <- 0
	ldaw r0, dp[__timers]
	.loc	2 232 0                 # F:/Projects/UI-01_sw1_hw1/lib_i2c/src/i2c_master_async.xc:232:0
.Ltmp258:
	shr r2, r8, 1
	ldc r1, 200
	.loc	2 157 3                 # F:/Projects/UI-01_sw1_hw1/lib_i2c/src/i2c_master_async.xc:157:3
.Ltmp259:
	lsu r1, r8, r1
	ldc r3, 100
	bt r1, .LBB37_2
.Ltmp260:
# BB#1:                                 # %allocas
.Lxtalabel7:
	#DEBUG_VALUE: i2c_master_async_comb:i <- R7
	#DEBUG_VALUE: i2c_master_async_comb:n <- R6
	#DEBUG_VALUE: i2c_master_async_comb:p_scl <- [R10+104]
	#DEBUG_VALUE: i2c_master_async_comb:p_sda <- [R10+32]
	#DEBUG_VALUE: i2c_master_async_comb:kbits_per_second <- [R10+140]
	#DEBUG_VALUE: i2c_master_async_comb:max_transaction_size <- undef
	#DEBUG_VALUE: bit_time <- R8
	#DEBUG_VALUE: state <- 0
	#DEBUG_VALUE: waiting_for_clock_release <- 0
	#DEBUG_VALUE: timer_enabled <- 0
	#DEBUG_VALUE: optype <- 0
	#DEBUG_VALUE: fall_time <- 0
	#DEBUG_VALUE: data <- 0
	#DEBUG_VALUE: bitnum <- 0
	#DEBUG_VALUE: bytes_sent <- 0
	#DEBUG_VALUE: num_bytes <- 0
	#DEBUG_VALUE: adjust_for_slip:event_time <- 0
	#DEBUG_VALUE: event_time <- 0
	#DEBUG_VALUE: cur_client <- -1
	#DEBUG_VALUE: send_stop_bit <- 0
	#DEBUG_VALUE: stopped <- 1
	#DEBUG_VALUE: res <- 1
	.loc	2 157 3                 # F:/Projects/UI-01_sw1_hw1/lib_i2c/src/i2c_master_async.xc:157:3
	mov r3, r2
.Ltmp261:
.LBB37_2:                               # %allocas
.Lxtalabel8:
	#DEBUG_VALUE: i2c_master_async_comb:i <- R7
	#DEBUG_VALUE: i2c_master_async_comb:n <- R6
	#DEBUG_VALUE: i2c_master_async_comb:p_scl <- [R10+104]
	#DEBUG_VALUE: i2c_master_async_comb:p_sda <- [R10+32]
	#DEBUG_VALUE: i2c_master_async_comb:kbits_per_second <- [R10+140]
	#DEBUG_VALUE: i2c_master_async_comb:max_transaction_size <- undef
	#DEBUG_VALUE: bit_time <- R8
	#DEBUG_VALUE: state <- 0
	#DEBUG_VALUE: waiting_for_clock_release <- 0
	#DEBUG_VALUE: timer_enabled <- 0
	#DEBUG_VALUE: optype <- 0
	#DEBUG_VALUE: fall_time <- 0
	#DEBUG_VALUE: data <- 0
	#DEBUG_VALUE: bitnum <- 0
	#DEBUG_VALUE: bytes_sent <- 0
	#DEBUG_VALUE: num_bytes <- 0
	#DEBUG_VALUE: event_time <- 0
	#DEBUG_VALUE: cur_client <- -1
	#DEBUG_VALUE: send_stop_bit <- 0
	#DEBUG_VALUE: stopped <- 1
	#DEBUG_VALUE: res <- 1
	stw r3, r10[9]                  # 4-byte Folded Spill
	ldw r5, r0[r11]
	.loc	2 227 0                 # F:/Projects/UI-01_sw1_hw1/lib_i2c/src/i2c_master_async.xc:227:0
	ldc r3, 21
	stw r5, r10[r3]                 # 4-byte Folded Spill
	shr r0, r8, 2
.Ltmp262:
	.loc	2 281 0                 # F:/Projects/UI-01_sw1_hw1/lib_i2c/src/i2c_master_async.xc:281:0
	stw r0, r10[10]                 # 4-byte Folded Spill
	shr r0, r8, 5
	stw r8, r10[11]                 # 4-byte Folded Spill
.Ltmp263:
	#DEBUG_VALUE: bit_time <- [R10+44]
	.loc	2 281 0                 # F:/Projects/UI-01_sw1_hw1/lib_i2c/src/i2c_master_async.xc:281:0
	add r0, r0, r2
	stw r0, r10[7]                  # 4-byte Folded Spill
	stw r2, r10[6]                  # 4-byte Folded Spill
	mkmsk r0, 32
	mkmsk r1, 1
	ldc r2, 23
	stw r9, r10[r2]                 # 4-byte Folded Spill
	ldc r2, 13
	stw r1, r10[r2]                 # 4-byte Folded Spill
	ldc r2, 17
	stw r1, r10[r2]                 # 4-byte Folded Spill
	mkmsk r2, 4
	stw r9, r10[r2]                 # 4-byte Folded Spill
	ldc r2, 19
	stw r0, r10[r2]                 # 4-byte Folded Spill
	ldc r2, 18
	stw r9, r10[r2]                 # 4-byte Folded Spill
	ldc r2, 20
	stw r9, r10[r2]                 # 4-byte Folded Spill
	mov r0, r9
	mov r1, r9
	ldc r2, 16
	stw r9, r10[r2]                 # 4-byte Folded Spill
	ldc r2, 27
	stw r9, r10[r2]                 # 4-byte Folded Spill
	mov r8, r9
	ldc r2, 25
	stw r9, r10[r2]                 # 4-byte Folded Spill
	ldc r2, 12
	stw r9, r10[r2]                 # 4-byte Folded Spill
	bu .LBB37_3
.Ltmp264:
.LBB37_65:                              # %LoopBody
                                        #   in Loop: Header=BB37_3 Depth=1
.Lxtalabel9:
	ldc r2, 22
	ldw r8, r10[r2]                 # 4-byte Folded Reload
.LBB37_3:                               # %LoopBody
                                        # =>This Loop Header: Depth=1
                                        #     Child Loop BB37_15 Depth 2
.Lxtalabel10:
.Ltmp265:
	#DEBUG_VALUE: i2c_master_async_comb:i <- R7
	#DEBUG_VALUE: i2c_master_async_comb:n <- R6
	#DEBUG_VALUE: i2c_master_async_comb:p_scl <- [R10+104]
	#DEBUG_VALUE: i2c_master_async_comb:p_sda <- [R10+32]
	#DEBUG_VALUE: i2c_master_async_comb:kbits_per_second <- [R10+140]
	#DEBUG_VALUE: i2c_master_async_comb:max_transaction_size <- undef
	mov r9, r0
	clre
	bf r8, .LBB37_5
.Ltmp266:
# BB#4:                                 # %selectguardtrue
                                        #   in Loop: Header=BB37_3 Depth=1
	#DEBUG_VALUE: i2c_master_async_comb:i <- R7
	#DEBUG_VALUE: i2c_master_async_comb:n <- R6
	#DEBUG_VALUE: i2c_master_async_comb:p_scl <- [R10+104]
	#DEBUG_VALUE: i2c_master_async_comb:p_sda <- [R10+32]
	#DEBUG_VALUE: i2c_master_async_comb:kbits_per_second <- [R10+140]
	#DEBUG_VALUE: i2c_master_async_comb:max_transaction_size <- undef
	ldc r3, 26
	ldw r0, r10[r3]                 # 4-byte Folded Reload
.Ltmp267:
	#DEBUG_VALUE: i2c_master_async_comb:p_scl <- R0
	mkmsk r2, 1
	setd res[r0], r2
	setc res[r0], 17
	ldap r11, .Ltmp268
	setv res[r0], r11
	eeu res[r0]
.Ltmp269:
	#DEBUG_VALUE: i2c_master_async_comb:p_scl <- [R10+104]
.LBB37_5:                               # %selectguarddone
                                        #   in Loop: Header=BB37_3 Depth=1
	#DEBUG_VALUE: i2c_master_async_comb:i <- R7
	#DEBUG_VALUE: i2c_master_async_comb:n <- R6
	#DEBUG_VALUE: i2c_master_async_comb:p_scl <- [R10+104]
	#DEBUG_VALUE: i2c_master_async_comb:p_sda <- [R10+32]
	#DEBUG_VALUE: i2c_master_async_comb:kbits_per_second <- [R10+140]
	#DEBUG_VALUE: i2c_master_async_comb:max_transaction_size <- undef
	ldc r2, 27
	ldw r0, r10[r2]                 # 4-byte Folded Reload
	bf r0, .LBB37_7
.Ltmp270:
# BB#6:                                 # %selectguardtrue11
                                        #   in Loop: Header=BB37_3 Depth=1
	#DEBUG_VALUE: i2c_master_async_comb:i <- R7
	#DEBUG_VALUE: i2c_master_async_comb:n <- R6
	#DEBUG_VALUE: i2c_master_async_comb:p_scl <- [R10+104]
	#DEBUG_VALUE: i2c_master_async_comb:p_sda <- [R10+32]
	#DEBUG_VALUE: i2c_master_async_comb:kbits_per_second <- [R10+140]
	#DEBUG_VALUE: i2c_master_async_comb:max_transaction_size <- undef
	ldc r2, 23
	ldw r0, r10[r2]                 # 4-byte Folded Reload
	setd res[r5], r0
	setc res[r5], 9
	ldap r11, .Ltmp271
	setv res[r5], r11
	eeu res[r5]
.Ltmp272:
	#DEBUG_VALUE: adjust_fall:event_time <- [R10+92]
.LBB37_7:                               # %iteratortest.preheader
                                        #   in Loop: Header=BB37_3 Depth=1
	#DEBUG_VALUE: i2c_master_async_comb:i <- R7
	#DEBUG_VALUE: i2c_master_async_comb:n <- R6
	#DEBUG_VALUE: i2c_master_async_comb:p_scl <- [R10+104]
	#DEBUG_VALUE: i2c_master_async_comb:p_sda <- [R10+32]
	#DEBUG_VALUE: i2c_master_async_comb:kbits_per_second <- [R10+140]
	#DEBUG_VALUE: i2c_master_async_comb:max_transaction_size <- undef
	mov r4, r1
	ldc r0, 0
	bf r6, .LBB37_8
.Ltmp273:
.LBB37_15:                              # %selectguardtrue17
                                        #   Parent Loop BB37_3 Depth=1
                                        # =>  This Inner Loop Header: Depth=2
	#DEBUG_VALUE: i2c_master_async_comb:i <- R7
	#DEBUG_VALUE: i2c_master_async_comb:n <- R6
	#DEBUG_VALUE: i2c_master_async_comb:p_scl <- [R10+104]
	#DEBUG_VALUE: i2c_master_async_comb:p_sda <- [R10+32]
	#DEBUG_VALUE: i2c_master_async_comb:kbits_per_second <- [R10+140]
	#DEBUG_VALUE: i2c_master_async_comb:max_transaction_size <- undef
	.loc	2 468 0                 # F:/Projects/UI-01_sw1_hw1/lib_i2c/src/i2c_master_async.xc:468:0
	ldw r1, r7[r0]
	.loc	2 468 0                 # F:/Projects/UI-01_sw1_hw1/lib_i2c/src/i2c_master_async.xc:468:0
	ldw r1, r1[0]
	ldap r11, .Ltmp274
	.loc	2 468 0                 # F:/Projects/UI-01_sw1_hw1/lib_i2c/src/i2c_master_async.xc:468:0
	setv res[r1], r11
	.loc	2 468 0                 # F:/Projects/UI-01_sw1_hw1/lib_i2c/src/i2c_master_async.xc:468:0
	mov r11, r0
	setev res[r1], r11
	.loc	2 468 0                 # F:/Projects/UI-01_sw1_hw1/lib_i2c/src/i2c_master_async.xc:468:0
	eeu res[r1]
	.loc	2 468 0                 # F:/Projects/UI-01_sw1_hw1/lib_i2c/src/i2c_master_async.xc:468:0
	add r0, r0, 1
.Ltmp275:
	#DEBUG_VALUE: j <- R0
	.loc	2 468 0                 # F:/Projects/UI-01_sw1_hw1/lib_i2c/src/i2c_master_async.xc:468:0
	eq r1, r6, r0
	bf r1, .LBB37_15
.Ltmp276:
.LBB37_8:                               # %iteratordone
                                        #   in Loop: Header=BB37_3 Depth=1
	#DEBUG_VALUE: i2c_master_async_comb:i <- R7
	#DEBUG_VALUE: i2c_master_async_comb:n <- R6
	#DEBUG_VALUE: i2c_master_async_comb:p_scl <- [R10+104]
	#DEBUG_VALUE: i2c_master_async_comb:p_sda <- [R10+32]
	#DEBUG_VALUE: i2c_master_async_comb:kbits_per_second <- [R10+140]
	#DEBUG_VALUE: i2c_master_async_comb:max_transaction_size <- undef

	.xtabranch .LBB37_9, .LBB37_11, .LBB37_13
	waiteu
.Ltmp277:
.Ltmp268:                               # Block address taken
.LBB37_9:                               # %selectcase
                                        #   in Loop: Header=BB37_3 Depth=1
.Lxtalabel11:
	#DEBUG_VALUE: i2c_master_async_comb:i <- R7
	#DEBUG_VALUE: i2c_master_async_comb:n <- R6
	#DEBUG_VALUE: i2c_master_async_comb:p_scl <- [R10+104]
	#DEBUG_VALUE: i2c_master_async_comb:p_sda <- [R10+32]
	#DEBUG_VALUE: i2c_master_async_comb:kbits_per_second <- [R10+140]
	#DEBUG_VALUE: i2c_master_async_comb:max_transaction_size <- undef
	.loc	2 211 0                 # F:/Projects/UI-01_sw1_hw1/lib_i2c/src/i2c_master_async.xc:211:0
	ldc r8, 26
	ldw r0, r10[r8]                 # 4-byte Folded Reload
.Lxta.endpoint_labels0:
	in r0, res[r0]
.Ltmp278:
	.loc	2 213 0                 # F:/Projects/UI-01_sw1_hw1/lib_i2c/src/i2c_master_async.xc:213:0
	gettime r2
.Ltmp279:
	#DEBUG_VALUE: now <- R2
	#DEBUG_VALUE: adjust_for_slip:now <- R2
	#DEBUG_VALUE: adjust_for_slip:now <- R2
	#DEBUG_VALUE: adjust_for_slip:now <- R2
	#DEBUG_VALUE: adjust_for_slip:now <- R2
	.loc	2 214 0                 # F:/Projects/UI-01_sw1_hw1/lib_i2c/src/i2c_master_async.xc:214:0
	ldc r8, 25
	ldw r0, r10[r8]                 # 4-byte Folded Reload
	sub r3, r0, 2
	ldc r0, 16
	lsu r11, r0, r3
	mov r0, r9
	ldc r8, 24
	stw r9, r10[r8]                 # 4-byte Folded Spill
	mov r9, r4
	mov r1, r9
	mkmsk r4, 1
	ldc r8, 27
	stw r4, r10[r8]                 # 4-byte Folded Spill
	ldc r8, 0
	bt r11, .LBB37_3
.Ltmp280:
# BB#10:                                # %selectcase
                                        #   in Loop: Header=BB37_3 Depth=1
.Lxtalabel12:
	#DEBUG_VALUE: i2c_master_async_comb:i <- R7
	#DEBUG_VALUE: i2c_master_async_comb:n <- R6
	#DEBUG_VALUE: i2c_master_async_comb:p_scl <- [R10+104]
	#DEBUG_VALUE: i2c_master_async_comb:p_sda <- [R10+32]
	#DEBUG_VALUE: i2c_master_async_comb:kbits_per_second <- [R10+140]
	#DEBUG_VALUE: i2c_master_async_comb:max_transaction_size <- undef
	ldc r4, 24
	ldw r0, r10[r4]                 # 4-byte Folded Reload
	mov r1, r9
	mkmsk r11, 1
	ldc r4, 27
	stw r11, r10[r4]                # 4-byte Folded Spill
	ldc r8, 0

	.xtabranch .Ljumptable0+2,.Ljumptable0+4,.Ljumptable0+6,.Ljumptable0+8,.Ljumptable0+10,.Ljumptable0+12,.Ljumptable0+14,.Ljumptable0+16,.Ljumptable0+18,.Ljumptable0+20,.Ljumptable0+22,.Ljumptable0+24,.Ljumptable0+26,.Ljumptable0+28,.Ljumptable0+30,.Ljumptable0+32,.Ljumptable0+34
.Ljumptable0:
		
	bru r3
	.jmptable .LBB37_16,.LBB37_3,.LBB37_3,.LBB37_3,.LBB37_16,.LBB37_3,.LBB37_16,.LBB37_19,.LBB37_3,.LBB37_16,.LBB37_22,.LBB37_3,.LBB37_16,.LBB37_3,.LBB37_16,.LBB37_3,.LBB37_21
.Ltmp281:
.LBB37_16:                              # %switchcase30
                                        #   in Loop: Header=BB37_3 Depth=1
.Lxtalabel13:
	#DEBUG_VALUE: i2c_master_async_comb:i <- R7
	#DEBUG_VALUE: i2c_master_async_comb:n <- R6
	#DEBUG_VALUE: i2c_master_async_comb:p_scl <- [R10+104]
	#DEBUG_VALUE: i2c_master_async_comb:p_sda <- [R10+32]
	#DEBUG_VALUE: i2c_master_async_comb:kbits_per_second <- [R10+140]
	#DEBUG_VALUE: i2c_master_async_comb:max_transaction_size <- undef
	ldc r4, 24
	ldw r11, r10[r4]                # 4-byte Folded Reload
	ldw r0, r10[11]                 # 4-byte Folded Reload
	ldc r4, 12
	ldw r3, r10[r4]                 # 4-byte Folded Reload
	.loc	2 221 0                 # F:/Projects/UI-01_sw1_hw1/lib_i2c/src/i2c_master_async.xc:221:0
	add r3, r3, r0
.Ltmp282:
	#DEBUG_VALUE: SLIP_THRESHOLD <- 100
	#DEBUG_VALUE: event_time <- R3
	#DEBUG_VALUE: adjust_for_slip:event_time <- R3
	#DEBUG_VALUE: adjust_for_slip:event_time <- R3
	#DEBUG_VALUE: adjust_for_slip:event_time <- R3
	#DEBUG_VALUE: adjust_for_slip:event_time <- R3
	#DEBUG_VALUE: adjust_for_slip:event_time <- R3
	#DEBUG_VALUE: adjust_for_slip:event_time <- R3
	#DEBUG_VALUE: adjust_for_slip:event_time <- R3
	#DEBUG_VALUE: adjust_for_slip:event_time <- R3
	#DEBUG_VALUE: adjust_for_slip:event_time <- R3
	#DEBUG_VALUE: adjust_for_slip:event_time <- R3
	#DEBUG_VALUE: adjust_for_slip:event_time <- R3
	#DEBUG_VALUE: adjust_for_slip:event_time <- R3
	#DEBUG_VALUE: fall_time <- R3
	#DEBUG_VALUE: adjust_for_slip:fall_time <- R3
	#DEBUG_VALUE: adjust_for_slip:fall_time <- R3
	#DEBUG_VALUE: adjust_for_slip:fall_time <- R3
	#DEBUG_VALUE: adjust_for_slip:fall_time <- R3
	#DEBUG_VALUE: adjust_for_slip:fall_time <- R3
	#DEBUG_VALUE: adjust_for_slip:fall_time <- R3
	#DEBUG_VALUE: adjust_for_slip:fall_time <- R3
	#DEBUG_VALUE: adjust_for_slip:fall_time <- R3
	#DEBUG_VALUE: adjust_for_slip:fall_time <- R3
	#DEBUG_VALUE: adjust_for_slip:fall_time <- R3
	#DEBUG_VALUE: adjust_for_slip:fall_time <- R3
	.loc	2 157 3                 # F:/Projects/UI-01_sw1_hw1/lib_i2c/src/i2c_master_async.xc:157:3
	sub r0, r3, r2
	ldc r1, 100
	.loc	2 157 3                 # F:/Projects/UI-01_sw1_hw1/lib_i2c/src/i2c_master_async.xc:157:3
	lss r0, r0, r1
	bf r0, .LBB37_18
.Ltmp283:
# BB#17:                                #   in Loop: Header=BB37_3 Depth=1
	#DEBUG_VALUE: i2c_master_async_comb:i <- R7
	#DEBUG_VALUE: i2c_master_async_comb:n <- R6
	#DEBUG_VALUE: i2c_master_async_comb:p_scl <- [R10+104]
	#DEBUG_VALUE: i2c_master_async_comb:p_sda <- [R10+32]
	#DEBUG_VALUE: i2c_master_async_comb:kbits_per_second <- [R10+140]
	#DEBUG_VALUE: i2c_master_async_comb:max_transaction_size <- undef
	#DEBUG_VALUE: SLIP_THRESHOLD <- 100
	.loc	2 158 0                 # F:/Projects/UI-01_sw1_hw1/lib_i2c/src/i2c_master_async.xc:158:0
	add r3, r2, r1
.Ltmp284:
.LBB37_18:                              # %switchcase30
                                        #   in Loop: Header=BB37_3 Depth=1
.Lxtalabel14:
	#DEBUG_VALUE: i2c_master_async_comb:i <- R7
	#DEBUG_VALUE: i2c_master_async_comb:n <- R6
	#DEBUG_VALUE: i2c_master_async_comb:p_scl <- [R10+104]
	#DEBUG_VALUE: i2c_master_async_comb:p_sda <- [R10+32]
	#DEBUG_VALUE: i2c_master_async_comb:kbits_per_second <- [R10+140]
	#DEBUG_VALUE: i2c_master_async_comb:max_transaction_size <- undef
	mov r1, r9
	#DEBUG_VALUE: i2c_master_async_comb:i <- R7
	#DEBUG_VALUE: i2c_master_async_comb:n <- R6
	#DEBUG_VALUE: i2c_master_async_comb:p_scl <- [R10+104]
	#DEBUG_VALUE: i2c_master_async_comb:p_sda <- [R10+32]
	#DEBUG_VALUE: i2c_master_async_comb:kbits_per_second <- [R10+140]
	#DEBUG_VALUE: i2c_master_async_comb:max_transaction_size <- undef
	#DEBUG_VALUE: SLIP_THRESHOLD <- 100
	ldc r4, 12
	stw r3, r10[r4]                 # 4-byte Folded Spill
	ldc r4, 23
	stw r3, r10[r4]                 # 4-byte Folded Spill
	mov r0, r11
	mkmsk r2, 1
	ldc r3, 27
	stw r2, r10[r3]                 # 4-byte Folded Spill
	ldc r8, 0
	bu .LBB37_3
.Ltmp285:
.Ltmp271:                               # Block address taken
.LBB37_11:                              # %selectcase9
                                        #   in Loop: Header=BB37_3 Depth=1
.Lxtalabel15:
	#DEBUG_VALUE: i2c_master_async_comb:i <- R7
	#DEBUG_VALUE: i2c_master_async_comb:n <- R6
	#DEBUG_VALUE: i2c_master_async_comb:p_scl <- [R10+104]
	#DEBUG_VALUE: i2c_master_async_comb:p_sda <- [R10+32]
	#DEBUG_VALUE: i2c_master_async_comb:kbits_per_second <- [R10+140]
	#DEBUG_VALUE: i2c_master_async_comb:max_transaction_size <- undef
	.loc	2 247 0                 # F:/Projects/UI-01_sw1_hw1/lib_i2c/src/i2c_master_async.xc:247:0
.Lxta.endpoint_labels1:
	in r2, res[r5]
.Ltmp286:
	#DEBUG_VALUE: now <- R2
	#DEBUG_VALUE: adjust_fall:now <- R2
	#DEBUG_VALUE: adjust_for_slip:now <- R2
	#DEBUG_VALUE: adjust_fall:now <- R2
	#DEBUG_VALUE: adjust_for_slip:now <- R2
	#DEBUG_VALUE: adjust_for_slip:now <- R2
	#DEBUG_VALUE: adjust_fall:now <- R2
	#DEBUG_VALUE: adjust_for_slip:now <- R2
	#DEBUG_VALUE: adjust_for_slip:now <- R2
	#DEBUG_VALUE: adjust_fall:now <- R2
	#DEBUG_VALUE: adjust_for_slip:now <- R2
	#DEBUG_VALUE: adjust_fall:now <- R2
	#DEBUG_VALUE: adjust_for_slip:now <- R2
	#DEBUG_VALUE: adjust_for_slip:now <- R2
	#DEBUG_VALUE: fall_time <- R2
	#DEBUG_VALUE: adjust_for_slip:fall_time <- R2
	#DEBUG_VALUE: adjust_for_slip:fall_time <- R2
	#DEBUG_VALUE: adjust_for_slip:fall_time <- R2
	#DEBUG_VALUE: adjust_for_slip:fall_time <- R2
	#DEBUG_VALUE: adjust_for_slip:fall_time <- R2
	#DEBUG_VALUE: adjust_for_slip:fall_time <- R2
	#DEBUG_VALUE: adjust_for_slip:fall_time <- R2
	#DEBUG_VALUE: adjust_for_slip:fall_time <- R2
	#DEBUG_VALUE: adjust_for_slip:fall_time <- R2
	#DEBUG_VALUE: adjust_for_slip:fall_time <- R2
	#DEBUG_VALUE: adjust_for_slip:fall_time <- R2
	.loc	2 248 0                 # F:/Projects/UI-01_sw1_hw1/lib_i2c/src/i2c_master_async.xc:248:0
	ldc r11, 25
	ldw r0, r10[r11]                # 4-byte Folded Reload
	shr r0, r0, 1
	ldc r1, 10
	lsu r3, r1, r0
	mov r0, r9
	mov r1, r4
	bt r3, .LBB37_3
.Ltmp287:
# BB#12:                                # %selectcase9
                                        #   in Loop: Header=BB37_3 Depth=1
.Lxtalabel16:
	#DEBUG_VALUE: i2c_master_async_comb:i <- R7
	#DEBUG_VALUE: i2c_master_async_comb:n <- R6
	#DEBUG_VALUE: i2c_master_async_comb:p_scl <- [R10+104]
	#DEBUG_VALUE: i2c_master_async_comb:p_sda <- [R10+32]
	#DEBUG_VALUE: i2c_master_async_comb:kbits_per_second <- [R10+140]
	#DEBUG_VALUE: i2c_master_async_comb:max_transaction_size <- undef
	ldc r1, 24
	stw r9, r10[r1]                 # 4-byte Folded Spill
	mov r9, r4
	ldc r1, 22
	stw r8, r10[r1]                 # 4-byte Folded Spill
	ldc r1, 25
	ldw r0, r10[r1]                 # 4-byte Folded Reload

	.xtabranch .Ljumptable1+2,.Ljumptable1+4,.Ljumptable1+6,.Ljumptable1+8,.Ljumptable1+10,.Ljumptable1+12,.Ljumptable1+14,.Ljumptable1+16,.Ljumptable1+18,.Ljumptable1+20,.Ljumptable1+22,.Ljumptable1+24,.Ljumptable1+26,.Ljumptable1+28,.Ljumptable1+30,.Ljumptable1+32,.Ljumptable1+34,.Ljumptable1+36,.Ljumptable1+38,.Ljumptable1+40,.Ljumptable1+42,.Ljumptable1+44
.Ljumptable1:
		
	bru r0
	.jmptable .LBB37_103,.LBB37_24,.LBB37_25,.LBB37_26,.LBB37_28,.LBB37_29,.LBB37_30,.LBB37_34,.LBB37_37,.LBB37_41,.LBB37_44,.LBB37_53,.LBB37_74,.LBB37_76,.LBB37_80,.LBB37_91,.LBB37_87,.LBB37_95,.LBB37_98,.LBB37_99,.LBB37_101,.LBB37_100
.Ltmp288:
.LBB37_24:                              # %switchcase67
                                        #   in Loop: Header=BB37_3 Depth=1
.Lxtalabel17:
	#DEBUG_VALUE: i2c_master_async_comb:i <- R7
	#DEBUG_VALUE: i2c_master_async_comb:n <- R6
	#DEBUG_VALUE: i2c_master_async_comb:p_scl <- [R10+104]
	#DEBUG_VALUE: i2c_master_async_comb:p_sda <- [R10+32]
	#DEBUG_VALUE: i2c_master_async_comb:kbits_per_second <- [R10+140]
	#DEBUG_VALUE: i2c_master_async_comb:max_transaction_size <- undef
	ldc r0, 0
	.loc	2 251 19                # F:/Projects/UI-01_sw1_hw1/lib_i2c/src/i2c_master_async.xc:251:19
	ldc r3, 26
	ldw r1, r10[r3]                 # 4-byte Folded Reload
.Lxta.endpoint_labels2:
	out res[r1], r0
	.loc	2 252 0                 # F:/Projects/UI-01_sw1_hw1/lib_i2c/src/i2c_master_async.xc:252:0
	ldw r0, r10[6]                  # 4-byte Folded Reload
	add r0, r2, r0
.Ltmp289:
	#DEBUG_VALUE: event_time <- [R10+92]
	#DEBUG_VALUE: adjust_for_slip:event_time <- [R10+92]
	#DEBUG_VALUE: adjust_for_slip:event_time <- [R10+92]
	#DEBUG_VALUE: adjust_for_slip:event_time <- [R10+92]
	#DEBUG_VALUE: adjust_for_slip:event_time <- [R10+92]
	#DEBUG_VALUE: adjust_for_slip:event_time <- [R10+92]
	#DEBUG_VALUE: adjust_for_slip:event_time <- [R10+92]
	#DEBUG_VALUE: adjust_for_slip:event_time <- [R10+92]
	#DEBUG_VALUE: adjust_for_slip:event_time <- [R10+92]
	#DEBUG_VALUE: adjust_for_slip:event_time <- [R10+92]
	#DEBUG_VALUE: adjust_for_slip:event_time <- [R10+92]
	#DEBUG_VALUE: adjust_for_slip:event_time <- [R10+92]
	#DEBUG_VALUE: adjust_for_slip:event_time <- [R10+92]
	#DEBUG_VALUE: state <- 2
	ldc r3, 23
	stw r0, r10[r3]                 # 4-byte Folded Spill
	ldc r3, 24
	ldw r0, r10[r3]                 # 4-byte Folded Reload
	mov r1, r9
	ldc r2, 2
	bu .LBB37_27
.Ltmp290:
.Ltmp274:                               # Block address taken
.LBB37_13:                              # %selectcase15
                                        #   in Loop: Header=BB37_3 Depth=1
.Lxtalabel18:
	#DEBUG_VALUE: i2c_master_async_comb:i <- R7
	#DEBUG_VALUE: i2c_master_async_comb:n <- R6
	#DEBUG_VALUE: i2c_master_async_comb:p_sda <- [R10+32]
	#DEBUG_VALUE: i2c_master_async_comb:kbits_per_second <- [R10+140]
	#DEBUG_VALUE: i2c_master_async_comb:max_transaction_size <- undef
	ldc r2, 24
	stw r9, r10[r2]                 # 4-byte Folded Spill
	ldc r2, 22
	stw r8, r10[r2]                 # 4-byte Folded Spill
	ldc r8, 0
	mkmsk r5, 1
.Ltmp291:
	#DEBUG_VALUE: i2c_master_async_comb:p_scl <- [R10+104]
	.loc	2 468 0                 # F:/Projects/UI-01_sw1_hw1/lib_i2c/src/i2c_master_async.xc:468:0
	get r11, ed
	mov r9, r11
	.loc	2 468 0                 # F:/Projects/UI-01_sw1_hw1/lib_i2c/src/i2c_master_async.xc:468:0
	zext r9, 16
.Ltmp292:
	#DEBUG_VALUE: j <- R9
	#DEBUG_VALUE: cur_client <- R9
	ldw r1, r7[r9]
	ldw r0, r1[0]
	in r3, res[r0]
	ldc r2, 254
	add r2, r3, r2
	zext r2, 8
	sub r3, r3, r2
	setd res[r0], r3
	ldc r3, 4
	lsu r3, r3, r2
	bt r3, .LBB37_104
.Ltmp293:
# BB#14:                                # %selectcase15
                                        #   in Loop: Header=BB37_3 Depth=1
.Lxtalabel19:
	#DEBUG_VALUE: i2c_master_async_comb:i <- R7
	#DEBUG_VALUE: i2c_master_async_comb:n <- R6
	#DEBUG_VALUE: i2c_master_async_comb:p_scl <- [R10+104]
	#DEBUG_VALUE: i2c_master_async_comb:p_sda <- [R10+32]
	#DEBUG_VALUE: i2c_master_async_comb:kbits_per_second <- [R10+140]
	#DEBUG_VALUE: i2c_master_async_comb:max_transaction_size <- undef

	.xtabranch .Ljumptable2+2,.Ljumptable2+4,.Ljumptable2+6,.Ljumptable2+8,.Ljumptable2+10
.Ljumptable2:
		
	bru r2
	.jmptable .LBB37_118,.LBB37_115,.LBB37_111,.LBB37_105,.LBB37_108
.Ltmp294:
.LBB37_118:                             # %switchcase539
                                        #   in Loop: Header=BB37_3 Depth=1
	#DEBUG_VALUE: i2c_master_async_comb:i <- R7
	#DEBUG_VALUE: i2c_master_async_comb:n <- R6
	#DEBUG_VALUE: i2c_master_async_comb:p_scl <- [R10+104]
	#DEBUG_VALUE: i2c_master_async_comb:p_sda <- [R10+32]
	#DEBUG_VALUE: i2c_master_async_comb:kbits_per_second <- [R10+140]
	#DEBUG_VALUE: i2c_master_async_comb:max_transaction_size <- undef
	outct res[r0], 1
	int r4, res[r0]
	in r2, res[r0]
.Ltmp295:
	#DEBUG_VALUE: n <- R2
	#DEBUG_VALUE: num_bytes <- R2
	in r1, res[r0]
.Ltmp296:
	#DEBUG_VALUE: _send_stop_bit <- [R10+60]
	#DEBUG_VALUE: send_stop_bit <- [R10+60]
	#DEBUG_VALUE: bitnum <- 0
	#DEBUG_VALUE: optype <- 0
	mkmsk r3, 4
	stw r1, r10[r3]                 # 4-byte Folded Spill
	ldc r3, 36
	ldw r1, r10[r3]
	.loc	2 475 0                 # F:/Projects/UI-01_sw1_hw1/lib_i2c/src/i2c_master_async.xc:475:0
.Ltmp297:
	lsu r1, r1, r2
.Ltrap_info3:
	ecallt r1
	#DEBUG_VALUE: i2c_master_async_comb:i <- R7
	#DEBUG_VALUE: i2c_master_async_comb:n <- R6
	#DEBUG_VALUE: i2c_master_async_comb:p_scl <- [R10+104]
	#DEBUG_VALUE: i2c_master_async_comb:p_sda <- [R10+32]
	#DEBUG_VALUE: i2c_master_async_comb:kbits_per_second <- [R10+140]
	#DEBUG_VALUE: i2c_master_async_comb:max_transaction_size <- undef
	#DEBUG_VALUE: optype <- 0
	#DEBUG_VALUE: bitnum <- 0
	#DEBUG_VALUE: num_bytes <- R2
	#DEBUG_VALUE: send_stop_bit <- [R10+60]
	#DEBUG_VALUE: n <- R2
	#DEBUG_VALUE: _send_stop_bit <- [R10+60]
	.loc	2 475 0                 # F:/Projects/UI-01_sw1_hw1/lib_i2c/src/i2c_master_async.xc:475:0
	# STACKUP 
	# ALLOCA 3
	extsp 2
	stw r2, sp[1]
	ldc r11, 18
	stw r2, r10[r11]                # 4-byte Folded Spill
.Ltmp298:
	#DEBUG_VALUE: n <- [R10+72]
	#DEBUG_VALUE: num_bytes <- [R10+72]
	mov r1, r8
	ldc r11, 14
	ldw r2, r10[r11]                # 4-byte Folded Reload
	mov r3, r1
                                        # kill: R8<def> R1<kill>
	bl __interface_block_load
	ldaw sp, sp[2]
	# STACKDOWN
.Ltmp299:
	#DEBUG_VALUE: bytes_sent <- -1
	#DEBUG_VALUE: timer_enabled <- 1
	.loc	2 481 0                 # F:/Projects/UI-01_sw1_hw1/lib_i2c/src/i2c_master_async.xc:481:0
	gettime r0
.Ltmp300:
	#DEBUG_VALUE: event_time <- [R10+92]
	#DEBUG_VALUE: adjust_for_slip:event_time <- [R10+92]
	#DEBUG_VALUE: adjust_for_slip:event_time <- [R10+92]
	#DEBUG_VALUE: adjust_for_slip:event_time <- [R10+92]
	#DEBUG_VALUE: adjust_for_slip:event_time <- [R10+92]
	#DEBUG_VALUE: adjust_for_slip:event_time <- [R10+92]
	#DEBUG_VALUE: adjust_for_slip:event_time <- [R10+92]
	#DEBUG_VALUE: adjust_for_slip:event_time <- [R10+92]
	#DEBUG_VALUE: adjust_for_slip:event_time <- [R10+92]
	#DEBUG_VALUE: adjust_for_slip:event_time <- [R10+92]
	#DEBUG_VALUE: adjust_for_slip:event_time <- [R10+92]
	#DEBUG_VALUE: adjust_for_slip:event_time <- [R10+92]
	#DEBUG_VALUE: adjust_for_slip:event_time <- [R10+92]
	ldc r1, 23
	stw r0, r10[r1]                 # 4-byte Folded Spill
	ldc r0, 4
	.loc	2 483 0                 # F:/Projects/UI-01_sw1_hw1/lib_i2c/src/i2c_master_async.xc:483:0
.Ltmp301:
	ldc r1, 25
	stw r0, r10[r1]                 # 4-byte Folded Spill
	ldc r1, 17
	ldw r0, r10[r1]                 # 4-byte Folded Reload
	bt r0, .LBB37_120
.Ltmp302:
# BB#119:                               # %inbounds626
                                        #   in Loop: Header=BB37_3 Depth=1
.Lxtalabel20:
	#DEBUG_VALUE: i2c_master_async_comb:i <- R7
	#DEBUG_VALUE: i2c_master_async_comb:n <- R6
	#DEBUG_VALUE: i2c_master_async_comb:p_scl <- [R10+104]
	#DEBUG_VALUE: i2c_master_async_comb:p_sda <- [R10+32]
	#DEBUG_VALUE: i2c_master_async_comb:kbits_per_second <- [R10+140]
	#DEBUG_VALUE: i2c_master_async_comb:max_transaction_size <- undef
	#DEBUG_VALUE: timer_enabled <- 1
	#DEBUG_VALUE: optype <- 0
	#DEBUG_VALUE: bitnum <- 0
	#DEBUG_VALUE: bytes_sent <- -1
	#DEBUG_VALUE: num_bytes <- [R10+72]
	#DEBUG_VALUE: event_time <- [R10+92]
	#DEBUG_VALUE: send_stop_bit <- [R10+60]
	#DEBUG_VALUE: n <- [R10+72]
	#DEBUG_VALUE: _send_stop_bit <- [R10+60]
	ldc r0, 25
	stw r5, r10[r0]                 # 4-byte Folded Spill
.Ltmp303:
.LBB37_120:                             # %inbounds626
                                        #   in Loop: Header=BB37_3 Depth=1
.Lxtalabel21:
	#DEBUG_VALUE: i2c_master_async_comb:i <- R7
	#DEBUG_VALUE: i2c_master_async_comb:n <- R6
	#DEBUG_VALUE: i2c_master_async_comb:p_scl <- [R10+104]
	#DEBUG_VALUE: i2c_master_async_comb:p_sda <- [R10+32]
	#DEBUG_VALUE: i2c_master_async_comb:kbits_per_second <- [R10+140]
	#DEBUG_VALUE: i2c_master_async_comb:max_transaction_size <- undef
	#DEBUG_VALUE: timer_enabled <- 1
	#DEBUG_VALUE: optype <- 0
	#DEBUG_VALUE: bitnum <- 0
	#DEBUG_VALUE: bytes_sent <- -1
	#DEBUG_VALUE: num_bytes <- [R10+72]
	#DEBUG_VALUE: event_time <- [R10+92]
	#DEBUG_VALUE: send_stop_bit <- [R10+60]
	#DEBUG_VALUE: n <- [R10+72]
	#DEBUG_VALUE: _send_stop_bit <- [R10+60]
	.loc	2 470 0                 # F:/Projects/UI-01_sw1_hw1/lib_i2c/src/i2c_master_async.xc:470:0
	shl r1, r4, 1
	ldw r0, r7[r9]
	ldw r0, r0[0]
	out res[r0], r8
	outct res[r0], 1
	ldc r3, 19
	stw r9, r10[r3]                 # 4-byte Folded Spill
	mkmsk r0, 32
	ldc r3, 20
	stw r0, r10[r3]                 # 4-byte Folded Spill
	mov r0, r8
	ldc r3, 16
	stw r8, r10[r3]                 # 4-byte Folded Spill
	mov r2, r5
	ldc r3, 27
	stw r2, r10[r3]                 # 4-byte Folded Spill
	bu .LBB37_110
.Ltmp304:
.LBB37_115:                             # %switchcase527
                                        #   in Loop: Header=BB37_3 Depth=1
.Lxtalabel22:
	#DEBUG_VALUE: i2c_master_async_comb:i <- R7
	#DEBUG_VALUE: i2c_master_async_comb:n <- R6
	#DEBUG_VALUE: i2c_master_async_comb:p_scl <- [R10+104]
	#DEBUG_VALUE: i2c_master_async_comb:p_sda <- [R10+32]
	#DEBUG_VALUE: i2c_master_async_comb:kbits_per_second <- [R10+140]
	#DEBUG_VALUE: i2c_master_async_comb:max_transaction_size <- undef
	outct res[r0], 1
	int r1, res[r0]
	in r2, res[r0]
.Ltmp305:
	#DEBUG_VALUE: n <- [R10+72]
	#DEBUG_VALUE: num_bytes <- [R10+72]
	ldc r3, 18
	stw r2, r10[r3]                 # 4-byte Folded Spill
	in r2, res[r0]
.Ltmp306:
	#DEBUG_VALUE: _send_stop_bit <- [R10+60]
	#DEBUG_VALUE: send_stop_bit <- [R10+60]
	.loc	2 490 0                 # F:/Projects/UI-01_sw1_hw1/lib_i2c/src/i2c_master_async.xc:490:0
	mkmsk r3, 4
	stw r2, r10[r3]                 # 4-byte Folded Spill
	shl r1, r1, 1
	#DEBUG_VALUE: bytes_sent <- -1
	#DEBUG_VALUE: bitnum <- 0
.Ltmp307:
	#DEBUG_VALUE: optype <- 1
	#DEBUG_VALUE: timer_enabled <- 1
	.loc	2 500 0                 # F:/Projects/UI-01_sw1_hw1/lib_i2c/src/i2c_master_async.xc:500:0
	gettime r2
.Ltmp308:
	#DEBUG_VALUE: event_time <- [R10+92]
	#DEBUG_VALUE: adjust_for_slip:event_time <- [R10+92]
	#DEBUG_VALUE: adjust_for_slip:event_time <- [R10+92]
	#DEBUG_VALUE: adjust_for_slip:event_time <- [R10+92]
	#DEBUG_VALUE: adjust_for_slip:event_time <- [R10+92]
	#DEBUG_VALUE: adjust_for_slip:event_time <- [R10+92]
	#DEBUG_VALUE: adjust_for_slip:event_time <- [R10+92]
	#DEBUG_VALUE: adjust_for_slip:event_time <- [R10+92]
	#DEBUG_VALUE: adjust_for_slip:event_time <- [R10+92]
	#DEBUG_VALUE: adjust_for_slip:event_time <- [R10+92]
	#DEBUG_VALUE: adjust_for_slip:event_time <- [R10+92]
	#DEBUG_VALUE: adjust_for_slip:event_time <- [R10+92]
	#DEBUG_VALUE: adjust_for_slip:event_time <- [R10+92]
	ldc r3, 23
	stw r2, r10[r3]                 # 4-byte Folded Spill
	ldc r2, 4
	.loc	2 502 0                 # F:/Projects/UI-01_sw1_hw1/lib_i2c/src/i2c_master_async.xc:502:0
.Ltmp309:
	ldc r3, 25
	stw r2, r10[r3]                 # 4-byte Folded Spill
	ldc r3, 17
	ldw r2, r10[r3]                 # 4-byte Folded Reload
	bt r2, .LBB37_117
.Ltmp310:
# BB#116:                               # %switchcase527
                                        #   in Loop: Header=BB37_3 Depth=1
.Lxtalabel23:
	#DEBUG_VALUE: i2c_master_async_comb:i <- R7
	#DEBUG_VALUE: i2c_master_async_comb:n <- R6
	#DEBUG_VALUE: i2c_master_async_comb:p_scl <- [R10+104]
	#DEBUG_VALUE: i2c_master_async_comb:p_sda <- [R10+32]
	#DEBUG_VALUE: i2c_master_async_comb:kbits_per_second <- [R10+140]
	#DEBUG_VALUE: i2c_master_async_comb:max_transaction_size <- undef
	#DEBUG_VALUE: timer_enabled <- 1
	#DEBUG_VALUE: optype <- 1
	#DEBUG_VALUE: bitnum <- 0
	#DEBUG_VALUE: bytes_sent <- -1
	#DEBUG_VALUE: num_bytes <- [R10+72]
	#DEBUG_VALUE: event_time <- [R10+92]
	#DEBUG_VALUE: send_stop_bit <- [R10+60]
	#DEBUG_VALUE: n <- [R10+72]
	#DEBUG_VALUE: _send_stop_bit <- [R10+60]
	ldc r2, 25
	stw r5, r10[r2]                 # 4-byte Folded Spill
.Ltmp311:
.LBB37_117:                             # %switchcase527
                                        #   in Loop: Header=BB37_3 Depth=1
.Lxtalabel24:
	#DEBUG_VALUE: i2c_master_async_comb:i <- R7
	#DEBUG_VALUE: i2c_master_async_comb:n <- R6
	#DEBUG_VALUE: i2c_master_async_comb:p_scl <- [R10+104]
	#DEBUG_VALUE: i2c_master_async_comb:p_sda <- [R10+32]
	#DEBUG_VALUE: i2c_master_async_comb:kbits_per_second <- [R10+140]
	#DEBUG_VALUE: i2c_master_async_comb:max_transaction_size <- undef
	#DEBUG_VALUE: timer_enabled <- 1
	#DEBUG_VALUE: optype <- 1
	#DEBUG_VALUE: bitnum <- 0
	#DEBUG_VALUE: bytes_sent <- -1
	#DEBUG_VALUE: num_bytes <- [R10+72]
	#DEBUG_VALUE: event_time <- [R10+92]
	#DEBUG_VALUE: send_stop_bit <- [R10+60]
	#DEBUG_VALUE: n <- [R10+72]
	#DEBUG_VALUE: _send_stop_bit <- [R10+60]
	.loc	2 490 0                 # F:/Projects/UI-01_sw1_hw1/lib_i2c/src/i2c_master_async.xc:490:0
	or r1, r1, r5
.Ltmp312:
	#DEBUG_VALUE: data <- R1
	out res[r0], r8
	outct res[r0], 1
	ldc r2, 19
	stw r9, r10[r2]                 # 4-byte Folded Spill
	mkmsk r0, 32
	ldc r2, 20
	stw r0, r10[r2]                 # 4-byte Folded Spill
	mov r0, r8
	ldc r2, 16
	stw r5, r10[r2]                 # 4-byte Folded Spill
	ldc r2, 27
	stw r5, r10[r2]                 # 4-byte Folded Spill
	bu .LBB37_110
.Ltmp313:
.LBB37_111:                             # %switchcase417
                                        #   in Loop: Header=BB37_3 Depth=1
	#DEBUG_VALUE: i2c_master_async_comb:i <- R7
	#DEBUG_VALUE: i2c_master_async_comb:n <- R6
	#DEBUG_VALUE: i2c_master_async_comb:p_scl <- [R10+104]
	#DEBUG_VALUE: i2c_master_async_comb:p_sda <- [R10+32]
	#DEBUG_VALUE: i2c_master_async_comb:kbits_per_second <- [R10+140]
	#DEBUG_VALUE: i2c_master_async_comb:max_transaction_size <- undef
	outct res[r0], 1
	in r2, res[r0]
	ldw r3, r1[4]
	eq r2, r3, r2
	bt r2, .LBB37_112
.Ltmp314:
# BB#114:                               # %refillchan494
                                        #   in Loop: Header=BB37_3 Depth=1
	#DEBUG_VALUE: i2c_master_async_comb:i <- R7
	#DEBUG_VALUE: i2c_master_async_comb:n <- R6
	#DEBUG_VALUE: i2c_master_async_comb:p_scl <- [R10+104]
	#DEBUG_VALUE: i2c_master_async_comb:p_sda <- [R10+32]
	#DEBUG_VALUE: i2c_master_async_comb:kbits_per_second <- [R10+140]
	#DEBUG_VALUE: i2c_master_async_comb:max_transaction_size <- undef
	ldw r2, r1[2]
	ldw r3, r1[3]
	#APP
	getd r11, res[r2]
	#NO_APP
	setd res[r2], r3
	outct res[r2], 1
	setd res[r2], r11
.Ltmp315:
.LBB37_112:                             # %afternotifycheck493
                                        #   in Loop: Header=BB37_3 Depth=1
	#DEBUG_VALUE: i2c_master_async_comb:i <- R7
	#DEBUG_VALUE: i2c_master_async_comb:n <- R6
	#DEBUG_VALUE: i2c_master_async_comb:p_scl <- [R10+104]
	#DEBUG_VALUE: i2c_master_async_comb:p_sda <- [R10+32]
	#DEBUG_VALUE: i2c_master_async_comb:kbits_per_second <- [R10+140]
	#DEBUG_VALUE: i2c_master_async_comb:max_transaction_size <- undef
	mov r2, r5
	stw r2, r1[4]
	in r1, res[r0]
.Ltmp316:
	#DEBUG_VALUE: num_bytes_sent <- R1
	out res[r0], r8
	ldc r2, 20
	ldw r1, r10[r2]                 # 4-byte Folded Reload
.Ltmp317:
	out res[r0], r1
	bu .LBB37_113
.Ltmp318:
.LBB37_105:                             # %switchcase406
                                        #   in Loop: Header=BB37_3 Depth=1
	#DEBUG_VALUE: i2c_master_async_comb:i <- R7
	#DEBUG_VALUE: i2c_master_async_comb:n <- R6
	#DEBUG_VALUE: i2c_master_async_comb:p_scl <- [R10+104]
	#DEBUG_VALUE: i2c_master_async_comb:p_sda <- [R10+32]
	#DEBUG_VALUE: i2c_master_async_comb:kbits_per_second <- [R10+140]
	#DEBUG_VALUE: i2c_master_async_comb:max_transaction_size <- undef
	outct res[r0], 1
	in r0, res[r0]
	ldw r2, r1[4]
	eq r0, r2, r0
	bt r0, .LBB37_106
.Ltmp319:
# BB#107:                               # %refillchan
                                        #   in Loop: Header=BB37_3 Depth=1
	#DEBUG_VALUE: i2c_master_async_comb:i <- R7
	#DEBUG_VALUE: i2c_master_async_comb:n <- R6
	#DEBUG_VALUE: i2c_master_async_comb:p_scl <- [R10+104]
	#DEBUG_VALUE: i2c_master_async_comb:p_sda <- [R10+32]
	#DEBUG_VALUE: i2c_master_async_comb:kbits_per_second <- [R10+140]
	#DEBUG_VALUE: i2c_master_async_comb:max_transaction_size <- undef
	ldw r0, r1[2]
	ldw r2, r1[3]
	#APP
	getd r3, res[r0]
	#NO_APP
	setd res[r0], r2
	outct res[r0], 1
	setd res[r0], r3
.Ltmp320:
.LBB37_106:                             # %afternotifycheck
                                        #   in Loop: Header=BB37_3 Depth=1
	#DEBUG_VALUE: i2c_master_async_comb:i <- R7
	#DEBUG_VALUE: i2c_master_async_comb:n <- R6
	#DEBUG_VALUE: i2c_master_async_comb:p_scl <- [R10+104]
	#DEBUG_VALUE: i2c_master_async_comb:p_sda <- [R10+32]
	#DEBUG_VALUE: i2c_master_async_comb:kbits_per_second <- [R10+140]
	#DEBUG_VALUE: i2c_master_async_comb:max_transaction_size <- undef
	stw r5, r1[4]
	.loc	2 516 0                 # F:/Projects/UI-01_sw1_hw1/lib_i2c/src/i2c_master_async.xc:516:0
	ldw r0, r7[r9]
	.loc	2 516 0                 # F:/Projects/UI-01_sw1_hw1/lib_i2c/src/i2c_master_async.xc:516:0
	ldw r0, r0[0]
	in r1, res[r0]
.Ltmp321:
	#DEBUG_VALUE: n <- R1
	ldc r3, 36
	ldw r2, r10[r3]
	.loc	2 517 0                 # F:/Projects/UI-01_sw1_hw1/lib_i2c/src/i2c_master_async.xc:517:0
	lsu r2, r2, r1
.Ltrap_info4:
	ecallt r2
	#DEBUG_VALUE: i2c_master_async_comb:i <- R7
	#DEBUG_VALUE: i2c_master_async_comb:n <- R6
	#DEBUG_VALUE: i2c_master_async_comb:p_scl <- [R10+104]
	#DEBUG_VALUE: i2c_master_async_comb:p_sda <- [R10+32]
	#DEBUG_VALUE: i2c_master_async_comb:kbits_per_second <- [R10+140]
	#DEBUG_VALUE: i2c_master_async_comb:max_transaction_size <- undef
	#DEBUG_VALUE: n <- R1
	.loc	2 517 0                 # F:/Projects/UI-01_sw1_hw1/lib_i2c/src/i2c_master_async.xc:517:0
	# STACKUP 
	# ALLOCA 2
	extsp 2
	stw r1, sp[1]
	mov r5, r8
	mov r1, r5
.Ltmp322:
	ldc r8, 14
	ldw r2, r10[r8]                 # 4-byte Folded Reload
	mov r3, r5
	bl __interface_block_store
	ldaw sp, sp[2]
	# STACKDOWN
	ldw r0, r7[r9]
	ldw r0, r0[0]
	out res[r0], r5
.Ltmp323:
.LBB37_113:                             # %LoopBody
                                        #   in Loop: Header=BB37_3 Depth=1
.Lxtalabel25:
	ldc r2, 13
	ldw r1, r10[r2]                 # 4-byte Folded Reload
	out res[r0], r1
	bu .LBB37_109
.LBB37_108:                             # %switchcase474
                                        #   in Loop: Header=BB37_3 Depth=1
.Ltmp324:
	#DEBUG_VALUE: i2c_master_async_comb:i <- R7
	#DEBUG_VALUE: i2c_master_async_comb:n <- R6
	#DEBUG_VALUE: i2c_master_async_comb:p_scl <- [R10+104]
	#DEBUG_VALUE: i2c_master_async_comb:p_sda <- [R10+32]
	#DEBUG_VALUE: i2c_master_async_comb:kbits_per_second <- [R10+140]
	#DEBUG_VALUE: i2c_master_async_comb:max_transaction_size <- undef
	out res[r0], r8
.Ltmp325:
.LBB37_109:                             # %LoopBody
                                        #   in Loop: Header=BB37_3 Depth=1
.Lxtalabel26:
	outct res[r0], 1
	ldc r2, 24
	ldw r0, r10[r2]                 # 4-byte Folded Reload
	mov r1, r4
.LBB37_110:                             # %LoopBody
                                        #   in Loop: Header=BB37_3 Depth=1
.Lxtalabel27:
	ldc r2, 21
	ldw r5, r10[r2]                 # 4-byte Folded Reload
	bu .LBB37_65
.LBB37_19:                              # %switchcase31
                                        #   in Loop: Header=BB37_3 Depth=1
.Lxtalabel28:
.Ltmp326:
	#DEBUG_VALUE: i2c_master_async_comb:i <- R7
	#DEBUG_VALUE: i2c_master_async_comb:n <- R6
	#DEBUG_VALUE: i2c_master_async_comb:p_scl <- [R10+104]
	#DEBUG_VALUE: i2c_master_async_comb:p_sda <- [R10+32]
	#DEBUG_VALUE: i2c_master_async_comb:kbits_per_second <- [R10+140]
	#DEBUG_VALUE: i2c_master_async_comb:max_transaction_size <- undef
	.loc	2 226 0                 # F:/Projects/UI-01_sw1_hw1/lib_i2c/src/i2c_master_async.xc:226:0
	ldw r0, r10[11]                 # 4-byte Folded Reload
	ldc r4, 12
	ldw r1, r10[r4]                 # 4-byte Folded Reload
	add r1, r1, r0
.Ltmp327:
	#DEBUG_VALUE: fall_time <- R1
	#DEBUG_VALUE: adjust_for_slip:fall_time <- R1
	#DEBUG_VALUE: adjust_for_slip:fall_time <- R1
	#DEBUG_VALUE: adjust_for_slip:fall_time <- R1
	#DEBUG_VALUE: adjust_for_slip:fall_time <- R1
	#DEBUG_VALUE: adjust_for_slip:fall_time <- R1
	#DEBUG_VALUE: adjust_for_slip:fall_time <- R1
	#DEBUG_VALUE: adjust_for_slip:fall_time <- R1
	#DEBUG_VALUE: adjust_for_slip:fall_time <- R1
	#DEBUG_VALUE: adjust_for_slip:fall_time <- R1
	#DEBUG_VALUE: adjust_for_slip:fall_time <- R1
	#DEBUG_VALUE: adjust_for_slip:fall_time <- R1
	.loc	2 227 0                 # F:/Projects/UI-01_sw1_hw1/lib_i2c/src/i2c_master_async.xc:227:0
	ldc r4, 12
	stw r1, r10[r4]                 # 4-byte Folded Spill
	ldw r0, r10[10]                 # 4-byte Folded Reload
	sub r0, r1, r0
.Ltmp328:
	#DEBUG_VALUE: SLIP_THRESHOLD <- 100
	#DEBUG_VALUE: event_time <- R0
	#DEBUG_VALUE: adjust_for_slip:event_time <- R0
	#DEBUG_VALUE: adjust_for_slip:event_time <- R0
	#DEBUG_VALUE: adjust_for_slip:event_time <- R0
	#DEBUG_VALUE: adjust_for_slip:event_time <- R0
	#DEBUG_VALUE: adjust_for_slip:event_time <- R0
	#DEBUG_VALUE: adjust_for_slip:event_time <- R0
	#DEBUG_VALUE: adjust_for_slip:event_time <- R0
	#DEBUG_VALUE: adjust_for_slip:event_time <- R0
	#DEBUG_VALUE: adjust_for_slip:event_time <- R0
	#DEBUG_VALUE: adjust_for_slip:event_time <- R0
	#DEBUG_VALUE: adjust_for_slip:event_time <- R0
	#DEBUG_VALUE: adjust_for_slip:event_time <- R0
	.loc	2 157 3                 # F:/Projects/UI-01_sw1_hw1/lib_i2c/src/i2c_master_async.xc:157:3
	ldc r4, 23
	stw r0, r10[r4]                 # 4-byte Folded Spill
.Ltmp329:
	#DEBUG_VALUE: fall_time <- [R10+48]
	#DEBUG_VALUE: adjust_for_slip:fall_time <- [R10+48]
	#DEBUG_VALUE: adjust_for_slip:fall_time <- [R10+48]
	#DEBUG_VALUE: adjust_for_slip:fall_time <- [R10+48]
	#DEBUG_VALUE: adjust_for_slip:fall_time <- [R10+48]
	#DEBUG_VALUE: adjust_for_slip:fall_time <- [R10+48]
	#DEBUG_VALUE: adjust_for_slip:fall_time <- [R10+48]
	#DEBUG_VALUE: adjust_for_slip:fall_time <- [R10+48]
	#DEBUG_VALUE: adjust_for_slip:fall_time <- [R10+48]
	#DEBUG_VALUE: adjust_for_slip:fall_time <- [R10+48]
	#DEBUG_VALUE: adjust_for_slip:fall_time <- [R10+48]
	#DEBUG_VALUE: adjust_for_slip:fall_time <- [R10+48]
	sub r0, r0, r2
.Ltmp330:
	#DEBUG_VALUE: event_time <- [R10+92]
	#DEBUG_VALUE: adjust_for_slip:event_time <- [R10+92]
	#DEBUG_VALUE: adjust_for_slip:event_time <- [R10+92]
	#DEBUG_VALUE: adjust_for_slip:event_time <- [R10+92]
	#DEBUG_VALUE: adjust_for_slip:event_time <- [R10+92]
	#DEBUG_VALUE: adjust_for_slip:event_time <- [R10+92]
	#DEBUG_VALUE: adjust_for_slip:event_time <- [R10+92]
	#DEBUG_VALUE: adjust_for_slip:event_time <- [R10+92]
	#DEBUG_VALUE: adjust_for_slip:event_time <- [R10+92]
	#DEBUG_VALUE: adjust_for_slip:event_time <- [R10+92]
	#DEBUG_VALUE: adjust_for_slip:event_time <- [R10+92]
	#DEBUG_VALUE: adjust_for_slip:event_time <- [R10+92]
	#DEBUG_VALUE: adjust_for_slip:event_time <- [R10+92]
	ldc r1, 99
	.loc	2 157 3                 # F:/Projects/UI-01_sw1_hw1/lib_i2c/src/i2c_master_async.xc:157:3
	lss r3, r1, r0
	ldc r4, 24
	ldw r0, r10[r4]                 # 4-byte Folded Reload
	mov r1, r9
	mkmsk r11, 1
	ldc r4, 27
	stw r11, r10[r4]                # 4-byte Folded Spill
	ldc r8, 0
	ldc r11, 10
	ldc r4, 25
	stw r11, r10[r4]                # 4-byte Folded Spill
	bt r3, .LBB37_3
.Ltmp331:
# BB#20:                                # %iftrue.i670
                                        #   in Loop: Header=BB37_3 Depth=1
.Lxtalabel29:
	#DEBUG_VALUE: i2c_master_async_comb:i <- R7
	#DEBUG_VALUE: i2c_master_async_comb:n <- R6
	#DEBUG_VALUE: i2c_master_async_comb:p_scl <- [R10+104]
	#DEBUG_VALUE: i2c_master_async_comb:p_sda <- [R10+32]
	#DEBUG_VALUE: i2c_master_async_comb:kbits_per_second <- [R10+140]
	#DEBUG_VALUE: i2c_master_async_comb:max_transaction_size <- undef
	#DEBUG_VALUE: SLIP_THRESHOLD <- 100
	ldc r0, 100
	.loc	2 158 0                 # F:/Projects/UI-01_sw1_hw1/lib_i2c/src/i2c_master_async.xc:158:0
.Ltmp332:
	add r1, r2, r0
.Ltmp333:
	#DEBUG_VALUE: new_event_time <- R1
	#DEBUG_VALUE: event_time <- R1
	#DEBUG_VALUE: adjust_for_slip:event_time <- R1
	#DEBUG_VALUE: adjust_for_slip:event_time <- R1
	#DEBUG_VALUE: adjust_for_slip:event_time <- R1
	#DEBUG_VALUE: adjust_for_slip:event_time <- R1
	#DEBUG_VALUE: adjust_for_slip:event_time <- R1
	#DEBUG_VALUE: adjust_for_slip:event_time <- R1
	#DEBUG_VALUE: adjust_for_slip:event_time <- R1
	#DEBUG_VALUE: adjust_for_slip:event_time <- R1
	#DEBUG_VALUE: adjust_for_slip:event_time <- R1
	#DEBUG_VALUE: adjust_for_slip:event_time <- R1
	#DEBUG_VALUE: adjust_for_slip:event_time <- R1
	#DEBUG_VALUE: adjust_for_slip:event_time <- R1
	.loc	2 160 0                 # F:/Projects/UI-01_sw1_hw1/lib_i2c/src/i2c_master_async.xc:160:0
	ldc r3, 23
	stw r1, r10[r3]                 # 4-byte Folded Spill
	ldw r0, r10[10]                 # 4-byte Folded Reload
	add r0, r0, r1
.Ltmp334:
	#DEBUG_VALUE: new_event_time <- [R10+92]
	#DEBUG_VALUE: event_time <- [R10+92]
	#DEBUG_VALUE: adjust_for_slip:event_time <- [R10+92]
	#DEBUG_VALUE: adjust_for_slip:event_time <- [R10+92]
	#DEBUG_VALUE: adjust_for_slip:event_time <- [R10+92]
	#DEBUG_VALUE: adjust_for_slip:event_time <- [R10+92]
	#DEBUG_VALUE: adjust_for_slip:event_time <- [R10+92]
	#DEBUG_VALUE: adjust_for_slip:event_time <- [R10+92]
	#DEBUG_VALUE: adjust_for_slip:event_time <- [R10+92]
	#DEBUG_VALUE: adjust_for_slip:event_time <- [R10+92]
	#DEBUG_VALUE: adjust_for_slip:event_time <- [R10+92]
	#DEBUG_VALUE: adjust_for_slip:event_time <- [R10+92]
	#DEBUG_VALUE: adjust_for_slip:event_time <- [R10+92]
	#DEBUG_VALUE: adjust_for_slip:event_time <- [R10+92]
	#DEBUG_VALUE: fall_time <- [R10+48]
	#DEBUG_VALUE: adjust_for_slip:fall_time <- [R10+48]
	#DEBUG_VALUE: adjust_for_slip:fall_time <- [R10+48]
	#DEBUG_VALUE: adjust_for_slip:fall_time <- [R10+48]
	#DEBUG_VALUE: adjust_for_slip:fall_time <- [R10+48]
	#DEBUG_VALUE: adjust_for_slip:fall_time <- [R10+48]
	#DEBUG_VALUE: adjust_for_slip:fall_time <- [R10+48]
	#DEBUG_VALUE: adjust_for_slip:fall_time <- [R10+48]
	#DEBUG_VALUE: adjust_for_slip:fall_time <- [R10+48]
	#DEBUG_VALUE: adjust_for_slip:fall_time <- [R10+48]
	#DEBUG_VALUE: adjust_for_slip:fall_time <- [R10+48]
	#DEBUG_VALUE: adjust_for_slip:fall_time <- [R10+48]
	ldc r3, 12
	stw r0, r10[r3]                 # 4-byte Folded Spill
	ldc r3, 24
	ldw r0, r10[r3]                 # 4-byte Folded Reload
	mov r1, r9
	mkmsk r2, 1
	ldc r3, 27
	stw r2, r10[r3]                 # 4-byte Folded Spill
	ldc r8, 0
	ldc r2, 10
	bu .LBB37_43
.Ltmp335:
.LBB37_22:                              # %switchcase44
                                        #   in Loop: Header=BB37_3 Depth=1
.Lxtalabel30:
	#DEBUG_VALUE: i2c_master_async_comb:i <- R7
	#DEBUG_VALUE: i2c_master_async_comb:n <- R6
	#DEBUG_VALUE: i2c_master_async_comb:p_scl <- [R10+104]
	#DEBUG_VALUE: i2c_master_async_comb:p_sda <- [R10+32]
	#DEBUG_VALUE: i2c_master_async_comb:kbits_per_second <- [R10+140]
	#DEBUG_VALUE: i2c_master_async_comb:max_transaction_size <- undef
	.loc	2 237 0                 # F:/Projects/UI-01_sw1_hw1/lib_i2c/src/i2c_master_async.xc:237:0
	ldw r0, r10[11]                 # 4-byte Folded Reload
	ldc r4, 12
	ldw r1, r10[r4]                 # 4-byte Folded Reload
	add r1, r1, r0
.Ltmp336:
	#DEBUG_VALUE: fall_time <- R1
	#DEBUG_VALUE: adjust_for_slip:fall_time <- R1
	#DEBUG_VALUE: adjust_for_slip:fall_time <- R1
	#DEBUG_VALUE: adjust_for_slip:fall_time <- R1
	#DEBUG_VALUE: adjust_for_slip:fall_time <- R1
	#DEBUG_VALUE: adjust_for_slip:fall_time <- R1
	#DEBUG_VALUE: adjust_for_slip:fall_time <- R1
	#DEBUG_VALUE: adjust_for_slip:fall_time <- R1
	#DEBUG_VALUE: adjust_for_slip:fall_time <- R1
	#DEBUG_VALUE: adjust_for_slip:fall_time <- R1
	#DEBUG_VALUE: adjust_for_slip:fall_time <- R1
	#DEBUG_VALUE: adjust_for_slip:fall_time <- R1
	.loc	2 238 0                 # F:/Projects/UI-01_sw1_hw1/lib_i2c/src/i2c_master_async.xc:238:0
	ldc r4, 12
	stw r1, r10[r4]                 # 4-byte Folded Spill
	ldw r0, r10[10]                 # 4-byte Folded Reload
	sub r0, r1, r0
.Ltmp337:
	#DEBUG_VALUE: SLIP_THRESHOLD <- 100
	#DEBUG_VALUE: event_time <- R0
	#DEBUG_VALUE: adjust_for_slip:event_time <- R0
	#DEBUG_VALUE: adjust_for_slip:event_time <- R0
	#DEBUG_VALUE: adjust_for_slip:event_time <- R0
	#DEBUG_VALUE: adjust_for_slip:event_time <- R0
	#DEBUG_VALUE: adjust_for_slip:event_time <- R0
	#DEBUG_VALUE: adjust_for_slip:event_time <- R0
	#DEBUG_VALUE: adjust_for_slip:event_time <- R0
	#DEBUG_VALUE: adjust_for_slip:event_time <- R0
	#DEBUG_VALUE: adjust_for_slip:event_time <- R0
	#DEBUG_VALUE: adjust_for_slip:event_time <- R0
	#DEBUG_VALUE: adjust_for_slip:event_time <- R0
	#DEBUG_VALUE: adjust_for_slip:event_time <- R0
	.loc	2 157 3                 # F:/Projects/UI-01_sw1_hw1/lib_i2c/src/i2c_master_async.xc:157:3
	ldc r4, 23
	stw r0, r10[r4]                 # 4-byte Folded Spill
.Ltmp338:
	#DEBUG_VALUE: fall_time <- [R10+48]
	#DEBUG_VALUE: adjust_for_slip:fall_time <- [R10+48]
	#DEBUG_VALUE: adjust_for_slip:fall_time <- [R10+48]
	#DEBUG_VALUE: adjust_for_slip:fall_time <- [R10+48]
	#DEBUG_VALUE: adjust_for_slip:fall_time <- [R10+48]
	#DEBUG_VALUE: adjust_for_slip:fall_time <- [R10+48]
	#DEBUG_VALUE: adjust_for_slip:fall_time <- [R10+48]
	#DEBUG_VALUE: adjust_for_slip:fall_time <- [R10+48]
	#DEBUG_VALUE: adjust_for_slip:fall_time <- [R10+48]
	#DEBUG_VALUE: adjust_for_slip:fall_time <- [R10+48]
	#DEBUG_VALUE: adjust_for_slip:fall_time <- [R10+48]
	#DEBUG_VALUE: adjust_for_slip:fall_time <- [R10+48]
	sub r0, r0, r2
.Ltmp339:
	#DEBUG_VALUE: event_time <- [R10+92]
	#DEBUG_VALUE: adjust_for_slip:event_time <- [R10+92]
	#DEBUG_VALUE: adjust_for_slip:event_time <- [R10+92]
	#DEBUG_VALUE: adjust_for_slip:event_time <- [R10+92]
	#DEBUG_VALUE: adjust_for_slip:event_time <- [R10+92]
	#DEBUG_VALUE: adjust_for_slip:event_time <- [R10+92]
	#DEBUG_VALUE: adjust_for_slip:event_time <- [R10+92]
	#DEBUG_VALUE: adjust_for_slip:event_time <- [R10+92]
	#DEBUG_VALUE: adjust_for_slip:event_time <- [R10+92]
	#DEBUG_VALUE: adjust_for_slip:event_time <- [R10+92]
	#DEBUG_VALUE: adjust_for_slip:event_time <- [R10+92]
	#DEBUG_VALUE: adjust_for_slip:event_time <- [R10+92]
	#DEBUG_VALUE: adjust_for_slip:event_time <- [R10+92]
	ldc r1, 99
	.loc	2 157 3                 # F:/Projects/UI-01_sw1_hw1/lib_i2c/src/i2c_master_async.xc:157:3
	lss r3, r1, r0
	ldc r4, 24
	ldw r0, r10[r4]                 # 4-byte Folded Reload
	mov r1, r9
	mkmsk r11, 1
	ldc r4, 27
	stw r11, r10[r4]                # 4-byte Folded Spill
	ldc r8, 0
	ldc r11, 13
	ldc r4, 25
	stw r11, r10[r4]                # 4-byte Folded Spill
	bt r3, .LBB37_3
.Ltmp340:
# BB#23:                                # %iftrue.i685
                                        #   in Loop: Header=BB37_3 Depth=1
.Lxtalabel31:
	#DEBUG_VALUE: i2c_master_async_comb:i <- R7
	#DEBUG_VALUE: i2c_master_async_comb:n <- R6
	#DEBUG_VALUE: i2c_master_async_comb:p_scl <- [R10+104]
	#DEBUG_VALUE: i2c_master_async_comb:p_sda <- [R10+32]
	#DEBUG_VALUE: i2c_master_async_comb:kbits_per_second <- [R10+140]
	#DEBUG_VALUE: i2c_master_async_comb:max_transaction_size <- undef
	#DEBUG_VALUE: SLIP_THRESHOLD <- 100
	ldc r0, 100
	.loc	2 158 0                 # F:/Projects/UI-01_sw1_hw1/lib_i2c/src/i2c_master_async.xc:158:0
.Ltmp341:
	add r1, r2, r0
.Ltmp342:
	#DEBUG_VALUE: new_event_time <- R1
	#DEBUG_VALUE: event_time <- R1
	#DEBUG_VALUE: adjust_for_slip:event_time <- R1
	#DEBUG_VALUE: adjust_for_slip:event_time <- R1
	#DEBUG_VALUE: adjust_for_slip:event_time <- R1
	#DEBUG_VALUE: adjust_for_slip:event_time <- R1
	#DEBUG_VALUE: adjust_for_slip:event_time <- R1
	#DEBUG_VALUE: adjust_for_slip:event_time <- R1
	#DEBUG_VALUE: adjust_for_slip:event_time <- R1
	#DEBUG_VALUE: adjust_for_slip:event_time <- R1
	#DEBUG_VALUE: adjust_for_slip:event_time <- R1
	#DEBUG_VALUE: adjust_for_slip:event_time <- R1
	#DEBUG_VALUE: adjust_for_slip:event_time <- R1
	#DEBUG_VALUE: adjust_for_slip:event_time <- R1
	.loc	2 160 0                 # F:/Projects/UI-01_sw1_hw1/lib_i2c/src/i2c_master_async.xc:160:0
	ldc r3, 23
	stw r1, r10[r3]                 # 4-byte Folded Spill
	ldw r0, r10[10]                 # 4-byte Folded Reload
	add r0, r0, r1
.Ltmp343:
	#DEBUG_VALUE: new_event_time <- [R10+92]
	#DEBUG_VALUE: event_time <- [R10+92]
	#DEBUG_VALUE: adjust_for_slip:event_time <- [R10+92]
	#DEBUG_VALUE: adjust_for_slip:event_time <- [R10+92]
	#DEBUG_VALUE: adjust_for_slip:event_time <- [R10+92]
	#DEBUG_VALUE: adjust_for_slip:event_time <- [R10+92]
	#DEBUG_VALUE: adjust_for_slip:event_time <- [R10+92]
	#DEBUG_VALUE: adjust_for_slip:event_time <- [R10+92]
	#DEBUG_VALUE: adjust_for_slip:event_time <- [R10+92]
	#DEBUG_VALUE: adjust_for_slip:event_time <- [R10+92]
	#DEBUG_VALUE: adjust_for_slip:event_time <- [R10+92]
	#DEBUG_VALUE: adjust_for_slip:event_time <- [R10+92]
	#DEBUG_VALUE: adjust_for_slip:event_time <- [R10+92]
	#DEBUG_VALUE: adjust_for_slip:event_time <- [R10+92]
	#DEBUG_VALUE: fall_time <- [R10+48]
	#DEBUG_VALUE: adjust_for_slip:fall_time <- [R10+48]
	#DEBUG_VALUE: adjust_for_slip:fall_time <- [R10+48]
	#DEBUG_VALUE: adjust_for_slip:fall_time <- [R10+48]
	#DEBUG_VALUE: adjust_for_slip:fall_time <- [R10+48]
	#DEBUG_VALUE: adjust_for_slip:fall_time <- [R10+48]
	#DEBUG_VALUE: adjust_for_slip:fall_time <- [R10+48]
	#DEBUG_VALUE: adjust_for_slip:fall_time <- [R10+48]
	#DEBUG_VALUE: adjust_for_slip:fall_time <- [R10+48]
	#DEBUG_VALUE: adjust_for_slip:fall_time <- [R10+48]
	#DEBUG_VALUE: adjust_for_slip:fall_time <- [R10+48]
	#DEBUG_VALUE: adjust_for_slip:fall_time <- [R10+48]
	ldc r3, 12
	stw r0, r10[r3]                 # 4-byte Folded Spill
	ldc r3, 24
	ldw r0, r10[r3]                 # 4-byte Folded Reload
	mov r1, r9
	mkmsk r2, 1
	ldc r3, 27
	stw r2, r10[r3]                 # 4-byte Folded Spill
	ldc r8, 0
	ldc r2, 13
	bu .LBB37_43
.Ltmp344:
.LBB37_21:                              # %switchcase34
                                        #   in Loop: Header=BB37_3 Depth=1
.Lxtalabel32:
	#DEBUG_VALUE: i2c_master_async_comb:i <- R7
	#DEBUG_VALUE: i2c_master_async_comb:n <- R6
	#DEBUG_VALUE: i2c_master_async_comb:p_scl <- [R10+104]
	#DEBUG_VALUE: i2c_master_async_comb:p_sda <- [R10+32]
	#DEBUG_VALUE: i2c_master_async_comb:kbits_per_second <- [R10+140]
	#DEBUG_VALUE: i2c_master_async_comb:max_transaction_size <- undef
	#DEBUG_VALUE: SLIP_THRESHOLD <- 100
	.loc	2 157 3                 # F:/Projects/UI-01_sw1_hw1/lib_i2c/src/i2c_master_async.xc:157:3
	ldw r0, r10[9]                  # 4-byte Folded Reload
	add r0, r2, r0
	ldc r3, 23
	stw r0, r10[r3]                 # 4-byte Folded Spill
	ldc r3, 24
	ldw r0, r10[r3]                 # 4-byte Folded Reload
	mov r1, r9
	mkmsk r2, 1
	ldc r3, 27
	stw r2, r10[r3]                 # 4-byte Folded Spill
	ldc r8, 0
	ldc r2, 19
.Ltmp345:
.LBB37_43:                              # %LoopBody
                                        #   in Loop: Header=BB37_3 Depth=1
.Lxtalabel33:
	ldc r3, 25
	stw r2, r10[r3]                 # 4-byte Folded Spill
	bu .LBB37_3
.LBB37_25:                              # %switchcase68
                                        #   in Loop: Header=BB37_3 Depth=1
.Lxtalabel34:
.Ltmp346:
	#DEBUG_VALUE: i2c_master_async_comb:i <- R7
	#DEBUG_VALUE: i2c_master_async_comb:n <- R6
	#DEBUG_VALUE: i2c_master_async_comb:p_scl <- [R10+104]
	#DEBUG_VALUE: i2c_master_async_comb:p_sda <- [R10+32]
	#DEBUG_VALUE: i2c_master_async_comb:kbits_per_second <- [R10+140]
	#DEBUG_VALUE: i2c_master_async_comb:max_transaction_size <- undef
	ldc r3, 26
	ldw r0, r10[r3]                 # 4-byte Folded Reload
.Ltmp347:
	#DEBUG_VALUE: i2c_master_async_comb:p_scl <- R0
	.loc	2 256 0                 # F:/Projects/UI-01_sw1_hw1/lib_i2c/src/i2c_master_async.xc:256:0
	setc res[r0], 1
	.loc	2 256 0                 # F:/Projects/UI-01_sw1_hw1/lib_i2c/src/i2c_master_async.xc:256:0
.Ltmp348:
.Lxta.endpoint_labels3:
	in r0, res[r0]
.Ltmp349:
	#DEBUG_VALUE: timer_enabled <- 0
	#DEBUG_VALUE: waiting_for_clock_release <- 1
	#DEBUG_VALUE: state <- 3
	#DEBUG_VALUE: i2c_master_async_comb:p_scl <- [R10+104]
	ldc r3, 24
	ldw r0, r10[r3]                 # 4-byte Folded Reload
	mov r1, r9
	ldc r2, 0
	ldc r3, 27
	stw r2, r10[r3]                 # 4-byte Folded Spill
	mkmsk r8, 1
	mkmsk r2, 2
	bu .LBB37_43
.Ltmp350:
.LBB37_26:                              # %switchcase74
                                        #   in Loop: Header=BB37_3 Depth=1
.Lxtalabel35:
	#DEBUG_VALUE: i2c_master_async_comb:i <- R7
	#DEBUG_VALUE: i2c_master_async_comb:n <- R6
	#DEBUG_VALUE: i2c_master_async_comb:p_scl <- [R10+104]
	#DEBUG_VALUE: i2c_master_async_comb:p_sda <- [R10+32]
	#DEBUG_VALUE: i2c_master_async_comb:kbits_per_second <- [R10+140]
	#DEBUG_VALUE: i2c_master_async_comb:max_transaction_size <- undef
	.loc	2 262 0                 # F:/Projects/UI-01_sw1_hw1/lib_i2c/src/i2c_master_async.xc:262:0
	ldw r0, r10[6]                  # 4-byte Folded Reload
	add r0, r2, r0
.Ltmp351:
	#DEBUG_VALUE: event_time <- [R10+92]
	#DEBUG_VALUE: adjust_for_slip:event_time <- [R10+92]
	#DEBUG_VALUE: adjust_for_slip:event_time <- [R10+92]
	#DEBUG_VALUE: adjust_for_slip:event_time <- [R10+92]
	#DEBUG_VALUE: adjust_for_slip:event_time <- [R10+92]
	#DEBUG_VALUE: adjust_for_slip:event_time <- [R10+92]
	#DEBUG_VALUE: adjust_for_slip:event_time <- [R10+92]
	#DEBUG_VALUE: adjust_for_slip:event_time <- [R10+92]
	#DEBUG_VALUE: adjust_for_slip:event_time <- [R10+92]
	#DEBUG_VALUE: adjust_for_slip:event_time <- [R10+92]
	#DEBUG_VALUE: adjust_for_slip:event_time <- [R10+92]
	#DEBUG_VALUE: adjust_for_slip:event_time <- [R10+92]
	#DEBUG_VALUE: adjust_for_slip:event_time <- [R10+92]
	#DEBUG_VALUE: state <- 4
	ldc r3, 23
	stw r0, r10[r3]                 # 4-byte Folded Spill
	ldc r3, 24
	ldw r0, r10[r3]                 # 4-byte Folded Reload
	mov r1, r9
	ldc r2, 4
	bu .LBB37_27
.Ltmp352:
.LBB37_28:                              # %switchcase78
                                        #   in Loop: Header=BB37_3 Depth=1
.Lxtalabel36:
	#DEBUG_VALUE: i2c_master_async_comb:i <- R7
	#DEBUG_VALUE: i2c_master_async_comb:n <- R6
	#DEBUG_VALUE: i2c_master_async_comb:p_scl <- [R10+104]
	#DEBUG_VALUE: i2c_master_async_comb:p_sda <- [R10+32]
	#DEBUG_VALUE: i2c_master_async_comb:kbits_per_second <- [R10+140]
	#DEBUG_VALUE: i2c_master_async_comb:max_transaction_size <- undef
	.loc	2 266 19                # F:/Projects/UI-01_sw1_hw1/lib_i2c/src/i2c_master_async.xc:266:19
	ldw r0, r10[8]                  # 4-byte Folded Reload
	ldc r1, 0
.Lxta.endpoint_labels4:
	out res[r0], r1
	.loc	2 267 0                 # F:/Projects/UI-01_sw1_hw1/lib_i2c/src/i2c_master_async.xc:267:0
	ldw r0, r10[6]                  # 4-byte Folded Reload
	add r0, r2, r0
.Ltmp353:
	#DEBUG_VALUE: event_time <- [R10+92]
	#DEBUG_VALUE: adjust_for_slip:event_time <- [R10+92]
	#DEBUG_VALUE: adjust_for_slip:event_time <- [R10+92]
	#DEBUG_VALUE: adjust_for_slip:event_time <- [R10+92]
	#DEBUG_VALUE: adjust_for_slip:event_time <- [R10+92]
	#DEBUG_VALUE: adjust_for_slip:event_time <- [R10+92]
	#DEBUG_VALUE: adjust_for_slip:event_time <- [R10+92]
	#DEBUG_VALUE: adjust_for_slip:event_time <- [R10+92]
	#DEBUG_VALUE: adjust_for_slip:event_time <- [R10+92]
	#DEBUG_VALUE: adjust_for_slip:event_time <- [R10+92]
	#DEBUG_VALUE: adjust_for_slip:event_time <- [R10+92]
	#DEBUG_VALUE: adjust_for_slip:event_time <- [R10+92]
	#DEBUG_VALUE: adjust_for_slip:event_time <- [R10+92]
	#DEBUG_VALUE: state <- 5
	ldc r3, 23
	stw r0, r10[r3]                 # 4-byte Folded Spill
	ldc r3, 24
	ldw r0, r10[r3]                 # 4-byte Folded Reload
	mov r1, r9
	ldc r2, 5
	bu .LBB37_27
.Ltmp354:
.LBB37_29:                              # %switchcase84
                                        #   in Loop: Header=BB37_3 Depth=1
.Lxtalabel37:
	#DEBUG_VALUE: i2c_master_async_comb:i <- R7
	#DEBUG_VALUE: i2c_master_async_comb:n <- R6
	#DEBUG_VALUE: i2c_master_async_comb:p_scl <- [R10+104]
	#DEBUG_VALUE: i2c_master_async_comb:p_sda <- [R10+32]
	#DEBUG_VALUE: i2c_master_async_comb:kbits_per_second <- [R10+140]
	#DEBUG_VALUE: i2c_master_async_comb:max_transaction_size <- undef
	.loc	2 275 19                # F:/Projects/UI-01_sw1_hw1/lib_i2c/src/i2c_master_async.xc:275:19
	ldc r0, 12
	stw r2, r10[r0]                 # 4-byte Folded Spill
.Ltmp355:
.LBB37_30:                              # %switchcase90
                                        #   in Loop: Header=BB37_3 Depth=1
.Lxtalabel38:
	#DEBUG_VALUE: i2c_master_async_comb:i <- R7
	#DEBUG_VALUE: i2c_master_async_comb:n <- R6
	#DEBUG_VALUE: i2c_master_async_comb:p_scl <- [R10+104]
	#DEBUG_VALUE: i2c_master_async_comb:p_sda <- [R10+32]
	#DEBUG_VALUE: i2c_master_async_comb:kbits_per_second <- [R10+140]
	#DEBUG_VALUE: i2c_master_async_comb:max_transaction_size <- undef
	#DEBUG_VALUE: SLIP_THRESHOLD <- 100
	#DEBUG_VALUE: adjust_fall:fall_time <- [R10+48]
	ldc r0, 0
	.loc	2 275 19                # F:/Projects/UI-01_sw1_hw1/lib_i2c/src/i2c_master_async.xc:275:19
	ldc r3, 26
	ldw r1, r10[r3]                 # 4-byte Folded Reload
.Lxta.endpoint_labels5:
	out res[r1], r0
	.loc	2 172 3                 # F:/Projects/UI-01_sw1_hw1/lib_i2c/src/i2c_master_async.xc:172:3
.Ltmp356:
	ldc r3, 23
	ldw r0, r10[r3]                 # 4-byte Folded Reload
	sub r0, r2, r0
	ldc r1, 100
	.loc	2 172 3                 # F:/Projects/UI-01_sw1_hw1/lib_i2c/src/i2c_master_async.xc:172:3
	lss r1, r1, r0
	bt r1, .LBB37_32
.Ltmp357:
# BB#31:                                # %switchcase90
                                        #   in Loop: Header=BB37_3 Depth=1
.Lxtalabel39:
	#DEBUG_VALUE: i2c_master_async_comb:i <- R7
	#DEBUG_VALUE: i2c_master_async_comb:n <- R6
	#DEBUG_VALUE: i2c_master_async_comb:p_scl <- [R10+104]
	#DEBUG_VALUE: i2c_master_async_comb:p_sda <- [R10+32]
	#DEBUG_VALUE: i2c_master_async_comb:kbits_per_second <- [R10+140]
	#DEBUG_VALUE: i2c_master_async_comb:max_transaction_size <- undef
	#DEBUG_VALUE: SLIP_THRESHOLD <- 100
	#DEBUG_VALUE: adjust_fall:fall_time <- [R10+48]
	ldc r0, 0
.Ltmp358:
.LBB37_32:                              # %switchcase90
                                        #   in Loop: Header=BB37_3 Depth=1
.Lxtalabel40:
	#DEBUG_VALUE: i2c_master_async_comb:i <- R7
	#DEBUG_VALUE: i2c_master_async_comb:n <- R6
	#DEBUG_VALUE: i2c_master_async_comb:p_scl <- [R10+104]
	#DEBUG_VALUE: i2c_master_async_comb:p_sda <- [R10+32]
	#DEBUG_VALUE: i2c_master_async_comb:kbits_per_second <- [R10+140]
	#DEBUG_VALUE: i2c_master_async_comb:max_transaction_size <- undef
	#DEBUG_VALUE: SLIP_THRESHOLD <- 100
	#DEBUG_VALUE: adjust_fall:fall_time <- [R10+48]
	ldc r4, 12
	ldw r3, r10[r4]                 # 4-byte Folded Reload
.Ltmp359:
	#DEBUG_VALUE: adjust_fall:fall_time <- R3
	.loc	2 172 3                 # F:/Projects/UI-01_sw1_hw1/lib_i2c/src/i2c_master_async.xc:172:3
	add r3, r3, r0
.Ltmp360:
	#DEBUG_VALUE: fall_time <- R3
	#DEBUG_VALUE: adjust_for_slip:fall_time <- R3
	#DEBUG_VALUE: adjust_for_slip:fall_time <- R3
	#DEBUG_VALUE: adjust_for_slip:fall_time <- R3
	#DEBUG_VALUE: adjust_for_slip:fall_time <- R3
	#DEBUG_VALUE: adjust_for_slip:fall_time <- R3
	#DEBUG_VALUE: adjust_for_slip:fall_time <- R3
	#DEBUG_VALUE: adjust_for_slip:fall_time <- R3
	#DEBUG_VALUE: adjust_for_slip:fall_time <- R3
	#DEBUG_VALUE: adjust_for_slip:fall_time <- R3
	#DEBUG_VALUE: adjust_for_slip:fall_time <- R3
	#DEBUG_VALUE: adjust_for_slip:fall_time <- R3
	.loc	2 277 27                # F:/Projects/UI-01_sw1_hw1/lib_i2c/src/i2c_master_async.xc:277:27
	ldc r4, 12
	stw r3, r10[r4]                 # 4-byte Folded Spill
	ashr r0, r9, 7
	.loc	2 277 27                # F:/Projects/UI-01_sw1_hw1/lib_i2c/src/i2c_master_async.xc:277:27
	ldw r1, r10[8]                  # 4-byte Folded Reload
.Lxta.endpoint_labels6:
	out res[r1], r0
	.loc	2 278 0                 # F:/Projects/UI-01_sw1_hw1/lib_i2c/src/i2c_master_async.xc:278:0
	shl r1, r9, 1
.Ltmp361:
	#DEBUG_VALUE: data <- R1
	.loc	2 279 0                 # F:/Projects/UI-01_sw1_hw1/lib_i2c/src/i2c_master_async.xc:279:0
	ldc r4, 24
	ldw r0, r10[r4]                 # 4-byte Folded Reload
	add r0, r0, 1
.Ltmp362:
	#DEBUG_VALUE: bitnum <- R0
	#DEBUG_VALUE: state <- 7
	.loc	2 281 0                 # F:/Projects/UI-01_sw1_hw1/lib_i2c/src/i2c_master_async.xc:281:0
	ldw r11, r10[7]                 # 4-byte Folded Reload
	add r3, r11, r3
.Ltmp363:
	#DEBUG_VALUE: SLIP_THRESHOLD <- 100
	#DEBUG_VALUE: event_time <- R3
	#DEBUG_VALUE: adjust_for_slip:event_time <- R3
	#DEBUG_VALUE: adjust_for_slip:event_time <- R3
	#DEBUG_VALUE: adjust_for_slip:event_time <- R3
	#DEBUG_VALUE: adjust_for_slip:event_time <- R3
	#DEBUG_VALUE: adjust_for_slip:event_time <- R3
	#DEBUG_VALUE: adjust_for_slip:event_time <- R3
	#DEBUG_VALUE: adjust_for_slip:event_time <- R3
	#DEBUG_VALUE: adjust_for_slip:event_time <- R3
	#DEBUG_VALUE: adjust_for_slip:event_time <- R3
	#DEBUG_VALUE: adjust_for_slip:event_time <- R3
	#DEBUG_VALUE: adjust_for_slip:event_time <- R3
	#DEBUG_VALUE: adjust_for_slip:event_time <- R3
	.loc	2 157 3                 # F:/Projects/UI-01_sw1_hw1/lib_i2c/src/i2c_master_async.xc:157:3
	ldc r4, 23
	stw r3, r10[r4]                 # 4-byte Folded Spill
.Ltmp364:
	#DEBUG_VALUE: fall_time <- [R10+48]
	#DEBUG_VALUE: adjust_for_slip:fall_time <- [R10+48]
	#DEBUG_VALUE: adjust_for_slip:fall_time <- [R10+48]
	#DEBUG_VALUE: adjust_for_slip:fall_time <- [R10+48]
	#DEBUG_VALUE: adjust_for_slip:fall_time <- [R10+48]
	#DEBUG_VALUE: adjust_for_slip:fall_time <- [R10+48]
	#DEBUG_VALUE: adjust_for_slip:fall_time <- [R10+48]
	#DEBUG_VALUE: adjust_for_slip:fall_time <- [R10+48]
	#DEBUG_VALUE: adjust_for_slip:fall_time <- [R10+48]
	#DEBUG_VALUE: adjust_for_slip:fall_time <- [R10+48]
	#DEBUG_VALUE: adjust_for_slip:fall_time <- [R10+48]
	#DEBUG_VALUE: adjust_for_slip:fall_time <- [R10+48]
	sub r3, r3, r2
.Ltmp365:
	#DEBUG_VALUE: event_time <- [R10+92]
	#DEBUG_VALUE: adjust_for_slip:event_time <- [R10+92]
	#DEBUG_VALUE: adjust_for_slip:event_time <- [R10+92]
	#DEBUG_VALUE: adjust_for_slip:event_time <- [R10+92]
	#DEBUG_VALUE: adjust_for_slip:event_time <- [R10+92]
	#DEBUG_VALUE: adjust_for_slip:event_time <- [R10+92]
	#DEBUG_VALUE: adjust_for_slip:event_time <- [R10+92]
	#DEBUG_VALUE: adjust_for_slip:event_time <- [R10+92]
	#DEBUG_VALUE: adjust_for_slip:event_time <- [R10+92]
	#DEBUG_VALUE: adjust_for_slip:event_time <- [R10+92]
	#DEBUG_VALUE: adjust_for_slip:event_time <- [R10+92]
	#DEBUG_VALUE: adjust_for_slip:event_time <- [R10+92]
	#DEBUG_VALUE: adjust_for_slip:event_time <- [R10+92]
	ldc r11, 99
	.loc	2 157 3                 # F:/Projects/UI-01_sw1_hw1/lib_i2c/src/i2c_master_async.xc:157:3
	lss r3, r11, r3
	mkmsk r11, 3
	ldc r4, 25
	stw r11, r10[r4]                # 4-byte Folded Spill
	ldc r4, 22
	ldw r8, r10[r4]                 # 4-byte Folded Reload
	bt r3, .LBB37_3
.Ltmp366:
# BB#33:                                # %iftrue.i771
                                        #   in Loop: Header=BB37_3 Depth=1
.Lxtalabel41:
	#DEBUG_VALUE: i2c_master_async_comb:i <- R7
	#DEBUG_VALUE: i2c_master_async_comb:n <- R6
	#DEBUG_VALUE: i2c_master_async_comb:p_scl <- [R10+104]
	#DEBUG_VALUE: i2c_master_async_comb:p_sda <- [R10+32]
	#DEBUG_VALUE: i2c_master_async_comb:kbits_per_second <- [R10+140]
	#DEBUG_VALUE: i2c_master_async_comb:max_transaction_size <- undef
	#DEBUG_VALUE: state <- 7
	#DEBUG_VALUE: adjust_for_slip:fall_time <- [R10+48]
	#DEBUG_VALUE: fall_time <- [R10+48]
	#DEBUG_VALUE: data <- R1
	#DEBUG_VALUE: bitnum <- R0
	#DEBUG_VALUE: adjust_for_slip:event_time <- [R10+92]
	#DEBUG_VALUE: event_time <- [R10+92]
	#DEBUG_VALUE: SLIP_THRESHOLD <- 100
	ldc r3, 100
	.loc	2 158 0                 # F:/Projects/UI-01_sw1_hw1/lib_i2c/src/i2c_master_async.xc:158:0
.Ltmp367:
	add r2, r2, r3
.Ltmp368:
	#DEBUG_VALUE: new_event_time <- R2
	#DEBUG_VALUE: event_time <- R2
	#DEBUG_VALUE: adjust_for_slip:event_time <- R2
	#DEBUG_VALUE: adjust_for_slip:event_time <- R2
	#DEBUG_VALUE: adjust_for_slip:event_time <- R2
	#DEBUG_VALUE: adjust_for_slip:event_time <- R2
	#DEBUG_VALUE: adjust_for_slip:event_time <- R2
	#DEBUG_VALUE: adjust_for_slip:event_time <- R2
	#DEBUG_VALUE: adjust_for_slip:event_time <- R2
	#DEBUG_VALUE: adjust_for_slip:event_time <- R2
	#DEBUG_VALUE: adjust_for_slip:event_time <- R2
	#DEBUG_VALUE: adjust_for_slip:event_time <- R2
	#DEBUG_VALUE: adjust_for_slip:event_time <- R2
	#DEBUG_VALUE: adjust_for_slip:event_time <- R2
	.loc	2 160 0                 # F:/Projects/UI-01_sw1_hw1/lib_i2c/src/i2c_master_async.xc:160:0
	ldc r4, 12
	ldw r3, r10[r4]                 # 4-byte Folded Reload
	add r3, r3, r2
	.loc	2 160 0                 # F:/Projects/UI-01_sw1_hw1/lib_i2c/src/i2c_master_async.xc:160:0
	ldc r4, 23
	ldw r11, r10[r4]                # 4-byte Folded Reload
	sub r3, r3, r11
	#DEBUG_VALUE: fall_time <- [R10+48]
.Ltmp369:
	#DEBUG_VALUE: adjust_for_slip:fall_time <- [R10+48]
	#DEBUG_VALUE: adjust_for_slip:fall_time <- [R10+48]
	#DEBUG_VALUE: adjust_for_slip:fall_time <- [R10+48]
	#DEBUG_VALUE: adjust_for_slip:fall_time <- [R10+48]
	#DEBUG_VALUE: adjust_for_slip:fall_time <- [R10+48]
	#DEBUG_VALUE: adjust_for_slip:fall_time <- [R10+48]
	#DEBUG_VALUE: adjust_for_slip:fall_time <- [R10+48]
	#DEBUG_VALUE: adjust_for_slip:fall_time <- [R10+48]
	#DEBUG_VALUE: adjust_for_slip:fall_time <- [R10+48]
	#DEBUG_VALUE: adjust_for_slip:fall_time <- [R10+48]
	#DEBUG_VALUE: adjust_for_slip:fall_time <- [R10+48]
	ldc r4, 12
	stw r3, r10[r4]                 # 4-byte Folded Spill
	ldc r3, 23
	stw r2, r10[r3]                 # 4-byte Folded Spill
.Ltmp370:
	#DEBUG_VALUE: new_event_time <- [R10+92]
	#DEBUG_VALUE: event_time <- [R10+92]
	#DEBUG_VALUE: adjust_for_slip:event_time <- [R10+92]
	#DEBUG_VALUE: adjust_for_slip:event_time <- [R10+92]
	#DEBUG_VALUE: adjust_for_slip:event_time <- [R10+92]
	#DEBUG_VALUE: adjust_for_slip:event_time <- [R10+92]
	#DEBUG_VALUE: adjust_for_slip:event_time <- [R10+92]
	#DEBUG_VALUE: adjust_for_slip:event_time <- [R10+92]
	#DEBUG_VALUE: adjust_for_slip:event_time <- [R10+92]
	#DEBUG_VALUE: adjust_for_slip:event_time <- [R10+92]
	#DEBUG_VALUE: adjust_for_slip:event_time <- [R10+92]
	#DEBUG_VALUE: adjust_for_slip:event_time <- [R10+92]
	#DEBUG_VALUE: adjust_for_slip:event_time <- [R10+92]
	#DEBUG_VALUE: adjust_for_slip:event_time <- [R10+92]
	mkmsk r2, 3
	bu .LBB37_43
.Ltmp371:
.LBB37_34:                              # %switchcase92
                                        #   in Loop: Header=BB37_3 Depth=1
.Lxtalabel42:
	#DEBUG_VALUE: i2c_master_async_comb:i <- R7
	#DEBUG_VALUE: i2c_master_async_comb:n <- R6
	#DEBUG_VALUE: i2c_master_async_comb:p_scl <- [R10+104]
	#DEBUG_VALUE: i2c_master_async_comb:p_sda <- [R10+32]
	#DEBUG_VALUE: i2c_master_async_comb:kbits_per_second <- [R10+140]
	#DEBUG_VALUE: i2c_master_async_comb:max_transaction_size <- undef
	ldc r2, 26
	ldw r0, r10[r2]                 # 4-byte Folded Reload
.Ltmp372:
	#DEBUG_VALUE: i2c_master_async_comb:p_scl <- R0
	.loc	2 285 0                 # F:/Projects/UI-01_sw1_hw1/lib_i2c/src/i2c_master_async.xc:285:0
	setc res[r0], 1
	#DEBUG_VALUE: timer_enabled <- 0
	#DEBUG_VALUE: waiting_for_clock_release <- 1
	.loc	2 285 0                 # F:/Projects/UI-01_sw1_hw1/lib_i2c/src/i2c_master_async.xc:285:0
.Ltmp373:
.Lxta.endpoint_labels7:
	in r0, res[r0]
.Ltmp374:
	.loc	2 288 9                 # F:/Projects/UI-01_sw1_hw1/lib_i2c/src/i2c_master_async.xc:288:9
	ldc r2, 24
	ldw r0, r10[r2]                 # 4-byte Folded Reload
.Ltmp375:
	#DEBUG_VALUE: i2c_master_async_comb:p_scl <- [R10+104]
	eq r0, r0, 8
	ldc r1, 8
	.loc	2 289 0                 # F:/Projects/UI-01_sw1_hw1/lib_i2c/src/i2c_master_async.xc:289:0
	ldc r2, 25
	stw r1, r10[r2]                 # 4-byte Folded Spill
	bt r0, .LBB37_36
.Ltmp376:
# BB#35:                                # %switchcase92
                                        #   in Loop: Header=BB37_3 Depth=1
.Lxtalabel43:
	#DEBUG_VALUE: i2c_master_async_comb:i <- R7
	#DEBUG_VALUE: i2c_master_async_comb:n <- R6
	#DEBUG_VALUE: i2c_master_async_comb:p_scl <- [R10+104]
	#DEBUG_VALUE: i2c_master_async_comb:p_sda <- [R10+32]
	#DEBUG_VALUE: i2c_master_async_comb:kbits_per_second <- [R10+140]
	#DEBUG_VALUE: i2c_master_async_comb:max_transaction_size <- undef
	#DEBUG_VALUE: waiting_for_clock_release <- 1
	#DEBUG_VALUE: timer_enabled <- 0
	ldc r0, 6
	ldc r1, 25
	stw r0, r10[r1]                 # 4-byte Folded Spill
.Ltmp377:
.LBB37_36:                              # %switchcase92
                                        #   in Loop: Header=BB37_3 Depth=1
.Lxtalabel44:
	#DEBUG_VALUE: i2c_master_async_comb:i <- R7
	#DEBUG_VALUE: i2c_master_async_comb:n <- R6
	#DEBUG_VALUE: i2c_master_async_comb:p_scl <- [R10+104]
	#DEBUG_VALUE: i2c_master_async_comb:p_sda <- [R10+32]
	#DEBUG_VALUE: i2c_master_async_comb:kbits_per_second <- [R10+140]
	#DEBUG_VALUE: i2c_master_async_comb:max_transaction_size <- undef
	#DEBUG_VALUE: waiting_for_clock_release <- 1
	#DEBUG_VALUE: timer_enabled <- 0
	ldc r3, 24
	ldw r0, r10[r3]                 # 4-byte Folded Reload
	mov r1, r9
	ldc r2, 0
	ldc r3, 27
	stw r2, r10[r3]                 # 4-byte Folded Spill
	mkmsk r8, 1
	bu .LBB37_3
.Ltmp378:
.LBB37_37:                              # %switchcase110
                                        #   in Loop: Header=BB37_3 Depth=1
.Lxtalabel45:
	#DEBUG_VALUE: i2c_master_async_comb:i <- R7
	#DEBUG_VALUE: i2c_master_async_comb:n <- R6
	#DEBUG_VALUE: i2c_master_async_comb:p_scl <- [R10+104]
	#DEBUG_VALUE: i2c_master_async_comb:p_sda <- [R10+32]
	#DEBUG_VALUE: i2c_master_async_comb:kbits_per_second <- [R10+140]
	#DEBUG_VALUE: i2c_master_async_comb:max_transaction_size <- undef
	ldc r0, 0
	.loc	2 295 19                # F:/Projects/UI-01_sw1_hw1/lib_i2c/src/i2c_master_async.xc:295:19
	ldc r3, 26
	ldw r1, r10[r3]                 # 4-byte Folded Reload
.Lxta.endpoint_labels8:
	out res[r1], r0
	ldw r0, r10[8]                  # 4-byte Folded Reload
.Ltmp379:
	#DEBUG_VALUE: i2c_master_async_comb:p_sda <- R0
	.loc	2 296 0                 # F:/Projects/UI-01_sw1_hw1/lib_i2c/src/i2c_master_async.xc:296:0
	setc res[r0], 1
.Ltmp380:
	#DEBUG_VALUE: SLIP_THRESHOLD <- 100
	.loc	2 296 0                 # F:/Projects/UI-01_sw1_hw1/lib_i2c/src/i2c_master_async.xc:296:0
.Lxta.endpoint_labels9:
	in r0, res[r0]
.Ltmp381:
	.loc	2 172 3                 # F:/Projects/UI-01_sw1_hw1/lib_i2c/src/i2c_master_async.xc:172:3
	ldc r3, 23
	ldw r0, r10[r3]                 # 4-byte Folded Reload
.Ltmp382:
	#DEBUG_VALUE: i2c_master_async_comb:p_sda <- [R10+32]
	sub r0, r2, r0
