	.text
	.file	"/home/evgeny/git/104/UI-01_sw1_hw1/lib_i2c/src/i2c_slave.xc"
                                        # Start of file scope inline assembly
	.inline_definition __i_i2c_master_if_read_reg
	.inline_definition __i_i2c_master_if_write_reg
	.inline_definition __i_i2c_master_if_read_reg8_addr16
	.inline_definition __i_i2c_master_if_write_reg8_addr16
	.inline_definition __i_i2c_master_if_read_reg16
	.inline_definition __i_i2c_master_if_write_reg16
	.inline_definition __i_i2c_master_if_read_reg16_addr8
	.inline_definition __i_i2c_master_if_write_reg16_addr8
	.inline_definition delay_seconds
	.inline_definition delay_milliseconds
	.inline_definition delay_microseconds
	.set i2c_slave.dynalloc_maxchanends, 0
	.globl i2c_slave.dynalloc_maxchanends
	.set i2c_slave.dynalloc_maxcores, 0
	.globl i2c_slave.dynalloc_maxcores
	.set i2c_slave.dynalloc_maxtimers, 0
	.globl i2c_slave.dynalloc_maxtimers
	.set i2c_slave.init.0.savedstate,16
	.globl i2c_slave.init.0.savedstate
	.set i2c_slave.select.yield.enable.savedstate,16
	.globl i2c_slave.select.yield.enable.savedstate
	.set i2c_slave.select.yield.enable.cases.maxtimers,0 $M i2c_slave.select.yield.case.2.maxtimers $M i2c_slave.select.yield.case.1.maxtimers $M i2c_slave.select.yield.case.0.maxtimers
	.globl i2c_slave.select.yield.enable.cases.maxtimers
	.set i2c_slave.select.yield.enable.cases.maxcores,0 $M i2c_slave.select.yield.case.2.maxcores $M i2c_slave.select.yield.case.1.maxcores $M i2c_slave.select.yield.case.0.maxcores
	.globl i2c_slave.select.yield.enable.cases.maxcores
	.set i2c_slave.select.yield.enable.cases.maxchanends,0 $M i2c_slave.select.yield.case.2.maxchanends $M i2c_slave.select.yield.case.1.maxchanends $M i2c_slave.select.yield.case.0.maxchanends
	.globl i2c_slave.select.yield.enable.cases.maxchanends
	.set i2c_slave.select.yield.enable.cases,0
	.globl i2c_slave.select.yield.enable.cases
	.set i2c_slave.select.yield.enable.cases.nstackwords, 0 $M (i2c_slave.select.yield.case.2.nstackwords) $M (i2c_slave.select.yield.case.0.nstackwords) $M (i2c_slave.select.yield.case.1.nstackwords)
	.globl i2c_slave.select.yield.enable.cases.nstackwords
	.set i2c_slave.select.enable.savedstate,16
	.globl i2c_slave.select.enable.savedstate
	.set i2c_slave.select.enable.cases.maxtimers,0 $M i2c_slave.select.case.2.maxtimers $M i2c_slave.select.case.1.maxtimers $M i2c_slave.select.case.0.maxtimers
	.globl i2c_slave.select.enable.cases.maxtimers
	.set i2c_slave.select.enable.cases.maxcores,0 $M i2c_slave.select.case.2.maxcores $M i2c_slave.select.case.1.maxcores $M i2c_slave.select.case.0.maxcores
	.globl i2c_slave.select.enable.cases.maxcores
	.set i2c_slave.select.enable.cases.maxchanends,0 $M i2c_slave.select.case.2.maxchanends $M i2c_slave.select.case.1.maxchanends $M i2c_slave.select.case.0.maxchanends
	.globl i2c_slave.select.enable.cases.maxchanends
	.set i2c_slave.select.enable.cases,0
	.globl i2c_slave.select.enable.cases
	.set i2c_slave.select.enable.cases.nstackwords, 0 $M (i2c_slave.select.case.0.nstackwords) $M (i2c_slave.select.case.1.nstackwords) $M (i2c_slave.select.case.2.nstackwords)
	.globl i2c_slave.select.enable.cases.nstackwords
	.weak _i.i2c_slave_callback_if.ack_read_request.maxchanends.group
	.max_reduce _i.i2c_slave_callback_if.ack_read_request.max.maxchanends, _i.i2c_slave_callback_if.ack_read_request.maxchanends.group, 0
	.weak _i.i2c_slave_callback_if.ack_read_request.maxcores.group
	.max_reduce _i.i2c_slave_callback_if.ack_read_request.max.maxcores, _i.i2c_slave_callback_if.ack_read_request.maxcores.group, 0
	.weak _i.i2c_slave_callback_if.ack_read_request.maxtimers.group
	.max_reduce _i.i2c_slave_callback_if.ack_read_request.max.maxtimers, _i.i2c_slave_callback_if.ack_read_request.maxtimers.group, 0
	.weak _i.i2c_slave_callback_if.ack_read_request.nstackwords.group
	.globl _i.i2c_slave_callback_if.ack_read_request.nstackwords.group
	.weak _i.i2c_slave_callback_if.ack_read_request.fns.group
	.globl _i.i2c_slave_callback_if.ack_read_request.fns.group
	.max_reduce _i.i2c_slave_callback_if.ack_read_request.max.nstackwords, _i.i2c_slave_callback_if.ack_read_request.nstackwords.group, 0
	.max_reduce _i.i2c_slave_callback_if.ack_read_request.fns, _i.i2c_slave_callback_if.ack_read_request.fns.group, 0
	.weak _i.i2c_slave_callback_if.ack_write_request.maxchanends.group
	.max_reduce _i.i2c_slave_callback_if.ack_write_request.max.maxchanends, _i.i2c_slave_callback_if.ack_write_request.maxchanends.group, 0
	.weak _i.i2c_slave_callback_if.ack_write_request.maxcores.group
	.max_reduce _i.i2c_slave_callback_if.ack_write_request.max.maxcores, _i.i2c_slave_callback_if.ack_write_request.maxcores.group, 0
	.weak _i.i2c_slave_callback_if.ack_write_request.maxtimers.group
	.max_reduce _i.i2c_slave_callback_if.ack_write_request.max.maxtimers, _i.i2c_slave_callback_if.ack_write_request.maxtimers.group, 0
	.weak _i.i2c_slave_callback_if.ack_write_request.nstackwords.group
	.globl _i.i2c_slave_callback_if.ack_write_request.nstackwords.group
	.weak _i.i2c_slave_callback_if.ack_write_request.fns.group
	.globl _i.i2c_slave_callback_if.ack_write_request.fns.group
	.max_reduce _i.i2c_slave_callback_if.ack_write_request.max.nstackwords, _i.i2c_slave_callback_if.ack_write_request.nstackwords.group, 0
	.max_reduce _i.i2c_slave_callback_if.ack_write_request.fns, _i.i2c_slave_callback_if.ack_write_request.fns.group, 0
	.weak _i.i2c_slave_callback_if.master_requires_data.maxchanends.group
	.max_reduce _i.i2c_slave_callback_if.master_requires_data.max.maxchanends, _i.i2c_slave_callback_if.master_requires_data.maxchanends.group, 0
	.weak _i.i2c_slave_callback_if.master_requires_data.maxcores.group
	.max_reduce _i.i2c_slave_callback_if.master_requires_data.max.maxcores, _i.i2c_slave_callback_if.master_requires_data.maxcores.group, 0
	.weak _i.i2c_slave_callback_if.master_requires_data.maxtimers.group
	.max_reduce _i.i2c_slave_callback_if.master_requires_data.max.maxtimers, _i.i2c_slave_callback_if.master_requires_data.maxtimers.group, 0
	.weak _i.i2c_slave_callback_if.master_requires_data.nstackwords.group
	.globl _i.i2c_slave_callback_if.master_requires_data.nstackwords.group
	.weak _i.i2c_slave_callback_if.master_requires_data.fns.group
	.globl _i.i2c_slave_callback_if.master_requires_data.fns.group
	.max_reduce _i.i2c_slave_callback_if.master_requires_data.max.nstackwords, _i.i2c_slave_callback_if.master_requires_data.nstackwords.group, 0
	.max_reduce _i.i2c_slave_callback_if.master_requires_data.fns, _i.i2c_slave_callback_if.master_requires_data.fns.group, 0
	.weak _i.i2c_slave_callback_if.master_sent_data.maxchanends.group
	.max_reduce _i.i2c_slave_callback_if.master_sent_data.max.maxchanends, _i.i2c_slave_callback_if.master_sent_data.maxchanends.group, 0
	.weak _i.i2c_slave_callback_if.master_sent_data.maxcores.group
	.max_reduce _i.i2c_slave_callback_if.master_sent_data.max.maxcores, _i.i2c_slave_callback_if.master_sent_data.maxcores.group, 0
	.weak _i.i2c_slave_callback_if.master_sent_data.maxtimers.group
	.max_reduce _i.i2c_slave_callback_if.master_sent_data.max.maxtimers, _i.i2c_slave_callback_if.master_sent_data.maxtimers.group, 0
	.weak _i.i2c_slave_callback_if.master_sent_data.nstackwords.group
	.globl _i.i2c_slave_callback_if.master_sent_data.nstackwords.group
	.weak _i.i2c_slave_callback_if.master_sent_data.fns.group
	.globl _i.i2c_slave_callback_if.master_sent_data.fns.group
	.max_reduce _i.i2c_slave_callback_if.master_sent_data.max.nstackwords, _i.i2c_slave_callback_if.master_sent_data.nstackwords.group, 0
	.max_reduce _i.i2c_slave_callback_if.master_sent_data.fns, _i.i2c_slave_callback_if.master_sent_data.fns.group, 0
	.weak _i.i2c_slave_callback_if.stop_bit.maxchanends.group
	.max_reduce _i.i2c_slave_callback_if.stop_bit.max.maxchanends, _i.i2c_slave_callback_if.stop_bit.maxchanends.group, 0
	.weak _i.i2c_slave_callback_if.stop_bit.maxcores.group
	.max_reduce _i.i2c_slave_callback_if.stop_bit.max.maxcores, _i.i2c_slave_callback_if.stop_bit.maxcores.group, 0
	.weak _i.i2c_slave_callback_if.stop_bit.maxtimers.group
	.max_reduce _i.i2c_slave_callback_if.stop_bit.max.maxtimers, _i.i2c_slave_callback_if.stop_bit.maxtimers.group, 0
	.weak _i.i2c_slave_callback_if.stop_bit.nstackwords.group
	.globl _i.i2c_slave_callback_if.stop_bit.nstackwords.group
	.weak _i.i2c_slave_callback_if.stop_bit.fns.group
	.globl _i.i2c_slave_callback_if.stop_bit.fns.group
	.max_reduce _i.i2c_slave_callback_if.stop_bit.max.nstackwords, _i.i2c_slave_callback_if.stop_bit.nstackwords.group, 0
	.max_reduce _i.i2c_slave_callback_if.stop_bit.fns, _i.i2c_slave_callback_if.stop_bit.fns.group, 0
	.weak _i.i2c_slave_callback_if.__interface_init.maxchanends.group
	.max_reduce _i.i2c_slave_callback_if.__interface_init.max.maxchanends, _i.i2c_slave_callback_if.__interface_init.maxchanends.group, 0
	.weak _i.i2c_slave_callback_if.__interface_init.maxcores.group
	.max_reduce _i.i2c_slave_callback_if.__interface_init.max.maxcores, _i.i2c_slave_callback_if.__interface_init.maxcores.group, 0
	.weak _i.i2c_slave_callback_if.__interface_init.maxtimers.group
	.max_reduce _i.i2c_slave_callback_if.__interface_init.max.maxtimers, _i.i2c_slave_callback_if.__interface_init.maxtimers.group, 0
	.weak _i.i2c_slave_callback_if.__interface_init.nstackwords.group
	.globl _i.i2c_slave_callback_if.__interface_init.nstackwords.group
	.weak _i.i2c_slave_callback_if.__interface_init.fns.group
	.globl _i.i2c_slave_callback_if.__interface_init.fns.group
	.max_reduce _i.i2c_slave_callback_if.__interface_init.max.nstackwords, _i.i2c_slave_callback_if.__interface_init.nstackwords.group, 0
	.max_reduce _i.i2c_slave_callback_if.__interface_init.fns, _i.i2c_slave_callback_if.__interface_init.fns.group, 0
	.weak _i.i2c_slave_callback_if._client_call_y.maxchanends.group
	.add_to_set _i.i2c_slave_callback_if._client_call_y.maxchanends.group, (__interface_client_call_y_other.maxchanends + __interface_client_call_y_extra.maxchanends), __interface_client_call_y_other
	.max_reduce _i.i2c_slave_callback_if._client_call_y.max.maxchanends, _i.i2c_slave_callback_if._client_call_y.maxchanends.group, 0
	.weak _i.i2c_slave_callback_if._client_call_y.maxcores.group
	.add_to_set _i.i2c_slave_callback_if._client_call_y.maxcores.group, (__interface_client_call_y_other.maxcores + __interface_client_call_y_extra.maxcores), __interface_client_call_y_other
	.max_reduce _i.i2c_slave_callback_if._client_call_y.max.maxcores, _i.i2c_slave_callback_if._client_call_y.maxcores.group, 0
	.weak _i.i2c_slave_callback_if._client_call_y.maxtimers.group
	.add_to_set _i.i2c_slave_callback_if._client_call_y.maxtimers.group, (__interface_client_call_y_other.maxtimers + __interface_client_call_y_extra.maxtimers), __interface_client_call_y_other
	.max_reduce _i.i2c_slave_callback_if._client_call_y.max.maxtimers, _i.i2c_slave_callback_if._client_call_y.maxtimers.group, 0
	.weak _i.i2c_slave_callback_if._client_call_y.nstackwords.group
	.globl _i.i2c_slave_callback_if._client_call_y.nstackwords.group
	.weak _i.i2c_slave_callback_if._client_call_y.fns.group
	.globl _i.i2c_slave_callback_if._client_call_y.fns.group
	.add_to_set _i.i2c_slave_callback_if._client_call_y.nstackwords.group, (__interface_client_call_y_other.nstackwords + __interface_client_call_y_extra.nstackwords), __interface_client_call_y_other
	.add_to_set _i.i2c_slave_callback_if._client_call_y.fns.group, __interface_client_call_y_other, __interface_client_call_y_other
	.max_reduce _i.i2c_slave_callback_if._client_call_y.max.nstackwords, _i.i2c_slave_callback_if._client_call_y.nstackwords.group, 0
	.max_reduce _i.i2c_slave_callback_if._client_call_y.fns, _i.i2c_slave_callback_if._client_call_y.fns.group, 0
	.weak _i.i2c_master_async_if.write.maxchanends.group
	.max_reduce _i.i2c_master_async_if.write.max.maxchanends, _i.i2c_master_async_if.write.maxchanends.group, 0
	.weak _i.i2c_master_async_if.write.maxcores.group
	.max_reduce _i.i2c_master_async_if.write.max.maxcores, _i.i2c_master_async_if.write.maxcores.group, 0
	.weak _i.i2c_master_async_if.write.maxtimers.group
	.max_reduce _i.i2c_master_async_if.write.max.maxtimers, _i.i2c_master_async_if.write.maxtimers.group, 0
	.weak _i.i2c_master_async_if.write.nstackwords.group
	.globl _i.i2c_master_async_if.write.nstackwords.group
	.weak _i.i2c_master_async_if.write.fns.group
	.globl _i.i2c_master_async_if.write.fns.group
	.max_reduce _i.i2c_master_async_if.write.max.nstackwords, _i.i2c_master_async_if.write.nstackwords.group, 0
	.max_reduce _i.i2c_master_async_if.write.fns, _i.i2c_master_async_if.write.fns.group, 0
	.weak _i.i2c_master_async_if.read.maxchanends.group
	.max_reduce _i.i2c_master_async_if.read.max.maxchanends, _i.i2c_master_async_if.read.maxchanends.group, 0
	.weak _i.i2c_master_async_if.read.maxcores.group
	.max_reduce _i.i2c_master_async_if.read.max.maxcores, _i.i2c_master_async_if.read.maxcores.group, 0
	.weak _i.i2c_master_async_if.read.maxtimers.group
	.max_reduce _i.i2c_master_async_if.read.max.maxtimers, _i.i2c_master_async_if.read.maxtimers.group, 0
	.weak _i.i2c_master_async_if.read.nstackwords.group
	.globl _i.i2c_master_async_if.read.nstackwords.group
	.weak _i.i2c_master_async_if.read.fns.group
	.globl _i.i2c_master_async_if.read.fns.group
	.max_reduce _i.i2c_master_async_if.read.max.nstackwords, _i.i2c_master_async_if.read.nstackwords.group, 0
	.max_reduce _i.i2c_master_async_if.read.fns, _i.i2c_master_async_if.read.fns.group, 0
	.weak _i.i2c_master_async_if.get_write_result.maxchanends.group
	.max_reduce _i.i2c_master_async_if.get_write_result.max.maxchanends, _i.i2c_master_async_if.get_write_result.maxchanends.group, 0
	.weak _i.i2c_master_async_if.get_write_result.maxcores.group
	.max_reduce _i.i2c_master_async_if.get_write_result.max.maxcores, _i.i2c_master_async_if.get_write_result.maxcores.group, 0
	.weak _i.i2c_master_async_if.get_write_result.maxtimers.group
	.max_reduce _i.i2c_master_async_if.get_write_result.max.maxtimers, _i.i2c_master_async_if.get_write_result.maxtimers.group, 0
	.weak _i.i2c_master_async_if.get_write_result.nstackwords.group
	.globl _i.i2c_master_async_if.get_write_result.nstackwords.group
	.weak _i.i2c_master_async_if.get_write_result.fns.group
	.globl _i.i2c_master_async_if.get_write_result.fns.group
	.max_reduce _i.i2c_master_async_if.get_write_result.max.nstackwords, _i.i2c_master_async_if.get_write_result.nstackwords.group, 0
	.max_reduce _i.i2c_master_async_if.get_write_result.fns, _i.i2c_master_async_if.get_write_result.fns.group, 0
	.weak _i.i2c_master_async_if.get_read_data.maxchanends.group
	.max_reduce _i.i2c_master_async_if.get_read_data.max.maxchanends, _i.i2c_master_async_if.get_read_data.maxchanends.group, 0
	.weak _i.i2c_master_async_if.get_read_data.maxcores.group
	.max_reduce _i.i2c_master_async_if.get_read_data.max.maxcores, _i.i2c_master_async_if.get_read_data.maxcores.group, 0
	.weak _i.i2c_master_async_if.get_read_data.maxtimers.group
	.max_reduce _i.i2c_master_async_if.get_read_data.max.maxtimers, _i.i2c_master_async_if.get_read_data.maxtimers.group, 0
	.weak _i.i2c_master_async_if.get_read_data.nstackwords.group
	.globl _i.i2c_master_async_if.get_read_data.nstackwords.group
	.weak _i.i2c_master_async_if.get_read_data.fns.group
	.globl _i.i2c_master_async_if.get_read_data.fns.group
	.max_reduce _i.i2c_master_async_if.get_read_data.max.nstackwords, _i.i2c_master_async_if.get_read_data.nstackwords.group, 0
	.max_reduce _i.i2c_master_async_if.get_read_data.fns, _i.i2c_master_async_if.get_read_data.fns.group, 0
	.weak _i.i2c_master_async_if.send_stop_bit.maxchanends.group
	.max_reduce _i.i2c_master_async_if.send_stop_bit.max.maxchanends, _i.i2c_master_async_if.send_stop_bit.maxchanends.group, 0
	.weak _i.i2c_master_async_if.send_stop_bit.maxcores.group
	.max_reduce _i.i2c_master_async_if.send_stop_bit.max.maxcores, _i.i2c_master_async_if.send_stop_bit.maxcores.group, 0
	.weak _i.i2c_master_async_if.send_stop_bit.maxtimers.group
	.max_reduce _i.i2c_master_async_if.send_stop_bit.max.maxtimers, _i.i2c_master_async_if.send_stop_bit.maxtimers.group, 0
	.weak _i.i2c_master_async_if.send_stop_bit.nstackwords.group
	.globl _i.i2c_master_async_if.send_stop_bit.nstackwords.group
	.weak _i.i2c_master_async_if.send_stop_bit.fns.group
	.globl _i.i2c_master_async_if.send_stop_bit.fns.group
	.max_reduce _i.i2c_master_async_if.send_stop_bit.max.nstackwords, _i.i2c_master_async_if.send_stop_bit.nstackwords.group, 0
	.max_reduce _i.i2c_master_async_if.send_stop_bit.fns, _i.i2c_master_async_if.send_stop_bit.fns.group, 0
	.weak _i.i2c_master_async_if.shutdown.maxchanends.group
	.max_reduce _i.i2c_master_async_if.shutdown.max.maxchanends, _i.i2c_master_async_if.shutdown.maxchanends.group, 0
	.weak _i.i2c_master_async_if.shutdown.maxcores.group
	.max_reduce _i.i2c_master_async_if.shutdown.max.maxcores, _i.i2c_master_async_if.shutdown.maxcores.group, 0
	.weak _i.i2c_master_async_if.shutdown.maxtimers.group
	.max_reduce _i.i2c_master_async_if.shutdown.max.maxtimers, _i.i2c_master_async_if.shutdown.maxtimers.group, 0
	.weak _i.i2c_master_async_if.shutdown.nstackwords.group
	.globl _i.i2c_master_async_if.shutdown.nstackwords.group
	.weak _i.i2c_master_async_if.shutdown.fns.group
	.globl _i.i2c_master_async_if.shutdown.fns.group
	.max_reduce _i.i2c_master_async_if.shutdown.max.nstackwords, _i.i2c_master_async_if.shutdown.nstackwords.group, 0
	.max_reduce _i.i2c_master_async_if.shutdown.fns, _i.i2c_master_async_if.shutdown.fns.group, 0
	.weak _i.i2c_master_async_if.__interface_init.maxchanends.group
	.max_reduce _i.i2c_master_async_if.__interface_init.max.maxchanends, _i.i2c_master_async_if.__interface_init.maxchanends.group, 0
	.weak _i.i2c_master_async_if.__interface_init.maxcores.group
	.max_reduce _i.i2c_master_async_if.__interface_init.max.maxcores, _i.i2c_master_async_if.__interface_init.maxcores.group, 0
	.weak _i.i2c_master_async_if.__interface_init.maxtimers.group
	.max_reduce _i.i2c_master_async_if.__interface_init.max.maxtimers, _i.i2c_master_async_if.__interface_init.maxtimers.group, 0
	.weak _i.i2c_master_async_if.__interface_init.nstackwords.group
	.globl _i.i2c_master_async_if.__interface_init.nstackwords.group
	.weak _i.i2c_master_async_if.__interface_init.fns.group
	.globl _i.i2c_master_async_if.__interface_init.fns.group
	.max_reduce _i.i2c_master_async_if.__interface_init.max.nstackwords, _i.i2c_master_async_if.__interface_init.nstackwords.group, 0
	.max_reduce _i.i2c_master_async_if.__interface_init.fns, _i.i2c_master_async_if.__interface_init.fns.group, 0
	.weak _i.i2c_master_async_if._client_call_y.maxchanends.group
	.add_to_set _i.i2c_master_async_if._client_call_y.maxchanends.group, (__interface_client_call_y_other.maxchanends + __interface_client_call_y_extra.maxchanends), __interface_client_call_y_other
	.max_reduce _i.i2c_master_async_if._client_call_y.max.maxchanends, _i.i2c_master_async_if._client_call_y.maxchanends.group, 0
	.weak _i.i2c_master_async_if._client_call_y.maxcores.group
	.add_to_set _i.i2c_master_async_if._client_call_y.maxcores.group, (__interface_client_call_y_other.maxcores + __interface_client_call_y_extra.maxcores), __interface_client_call_y_other
	.max_reduce _i.i2c_master_async_if._client_call_y.max.maxcores, _i.i2c_master_async_if._client_call_y.maxcores.group, 0
	.weak _i.i2c_master_async_if._client_call_y.maxtimers.group
	.add_to_set _i.i2c_master_async_if._client_call_y.maxtimers.group, (__interface_client_call_y_other.maxtimers + __interface_client_call_y_extra.maxtimers), __interface_client_call_y_other
	.max_reduce _i.i2c_master_async_if._client_call_y.max.maxtimers, _i.i2c_master_async_if._client_call_y.maxtimers.group, 0
	.weak _i.i2c_master_async_if._client_call_y.nstackwords.group
	.globl _i.i2c_master_async_if._client_call_y.nstackwords.group
	.weak _i.i2c_master_async_if._client_call_y.fns.group
	.globl _i.i2c_master_async_if._client_call_y.fns.group
	.add_to_set _i.i2c_master_async_if._client_call_y.nstackwords.group, (__interface_client_call_y_other.nstackwords + __interface_client_call_y_extra.nstackwords), __interface_client_call_y_other
	.add_to_set _i.i2c_master_async_if._client_call_y.fns.group, __interface_client_call_y_other, __interface_client_call_y_other
	.max_reduce _i.i2c_master_async_if._client_call_y.max.nstackwords, _i.i2c_master_async_if._client_call_y.nstackwords.group, 0
	.max_reduce _i.i2c_master_async_if._client_call_y.fns, _i.i2c_master_async_if._client_call_y.fns.group, 0
	.weak _i.i2c_master_if.write.maxchanends.group
	.max_reduce _i.i2c_master_if.write.max.maxchanends, _i.i2c_master_if.write.maxchanends.group, 0
	.weak _i.i2c_master_if.write.maxcores.group
	.max_reduce _i.i2c_master_if.write.max.maxcores, _i.i2c_master_if.write.maxcores.group, 0
	.weak _i.i2c_master_if.write.maxtimers.group
	.max_reduce _i.i2c_master_if.write.max.maxtimers, _i.i2c_master_if.write.maxtimers.group, 0
	.weak _i.i2c_master_if.write.nstackwords.group
	.globl _i.i2c_master_if.write.nstackwords.group
	.weak _i.i2c_master_if.write.fns.group
	.globl _i.i2c_master_if.write.fns.group
	.max_reduce _i.i2c_master_if.write.max.nstackwords, _i.i2c_master_if.write.nstackwords.group, 0
	.max_reduce _i.i2c_master_if.write.fns, _i.i2c_master_if.write.fns.group, 0
	.weak _i.i2c_master_if.read.maxchanends.group
	.max_reduce _i.i2c_master_if.read.max.maxchanends, _i.i2c_master_if.read.maxchanends.group, 0
	.weak _i.i2c_master_if.read.maxcores.group
	.max_reduce _i.i2c_master_if.read.max.maxcores, _i.i2c_master_if.read.maxcores.group, 0
	.weak _i.i2c_master_if.read.maxtimers.group
	.max_reduce _i.i2c_master_if.read.max.maxtimers, _i.i2c_master_if.read.maxtimers.group, 0
	.weak _i.i2c_master_if.read.nstackwords.group
	.globl _i.i2c_master_if.read.nstackwords.group
	.weak _i.i2c_master_if.read.fns.group
	.globl _i.i2c_master_if.read.fns.group
	.max_reduce _i.i2c_master_if.read.max.nstackwords, _i.i2c_master_if.read.nstackwords.group, 0
	.max_reduce _i.i2c_master_if.read.fns, _i.i2c_master_if.read.fns.group, 0
	.weak _i.i2c_master_if.send_stop_bit.maxchanends.group
	.max_reduce _i.i2c_master_if.send_stop_bit.max.maxchanends, _i.i2c_master_if.send_stop_bit.maxchanends.group, 0
	.weak _i.i2c_master_if.send_stop_bit.maxcores.group
	.max_reduce _i.i2c_master_if.send_stop_bit.max.maxcores, _i.i2c_master_if.send_stop_bit.maxcores.group, 0
	.weak _i.i2c_master_if.send_stop_bit.maxtimers.group
	.max_reduce _i.i2c_master_if.send_stop_bit.max.maxtimers, _i.i2c_master_if.send_stop_bit.maxtimers.group, 0
	.weak _i.i2c_master_if.send_stop_bit.nstackwords.group
	.globl _i.i2c_master_if.send_stop_bit.nstackwords.group
	.weak _i.i2c_master_if.send_stop_bit.fns.group
	.globl _i.i2c_master_if.send_stop_bit.fns.group
	.max_reduce _i.i2c_master_if.send_stop_bit.max.nstackwords, _i.i2c_master_if.send_stop_bit.nstackwords.group, 0
	.max_reduce _i.i2c_master_if.send_stop_bit.fns, _i.i2c_master_if.send_stop_bit.fns.group, 0
	.weak _i.i2c_master_if.shutdown.maxchanends.group
	.max_reduce _i.i2c_master_if.shutdown.max.maxchanends, _i.i2c_master_if.shutdown.maxchanends.group, 0
	.weak _i.i2c_master_if.shutdown.maxcores.group
	.max_reduce _i.i2c_master_if.shutdown.max.maxcores, _i.i2c_master_if.shutdown.maxcores.group, 0
	.weak _i.i2c_master_if.shutdown.maxtimers.group
	.max_reduce _i.i2c_master_if.shutdown.max.maxtimers, _i.i2c_master_if.shutdown.maxtimers.group, 0
	.weak _i.i2c_master_if.shutdown.nstackwords.group
	.globl _i.i2c_master_if.shutdown.nstackwords.group
	.weak _i.i2c_master_if.shutdown.fns.group
	.globl _i.i2c_master_if.shutdown.fns.group
	.max_reduce _i.i2c_master_if.shutdown.max.nstackwords, _i.i2c_master_if.shutdown.nstackwords.group, 0
	.max_reduce _i.i2c_master_if.shutdown.fns, _i.i2c_master_if.shutdown.fns.group, 0
	.weak _i.i2c_master_if.__interface_init.maxchanends.group
	.max_reduce _i.i2c_master_if.__interface_init.max.maxchanends, _i.i2c_master_if.__interface_init.maxchanends.group, 0
	.weak _i.i2c_master_if.__interface_init.maxcores.group
	.max_reduce _i.i2c_master_if.__interface_init.max.maxcores, _i.i2c_master_if.__interface_init.maxcores.group, 0
	.weak _i.i2c_master_if.__interface_init.maxtimers.group
	.max_reduce _i.i2c_master_if.__interface_init.max.maxtimers, _i.i2c_master_if.__interface_init.maxtimers.group, 0
	.weak _i.i2c_master_if.__interface_init.nstackwords.group
	.globl _i.i2c_master_if.__interface_init.nstackwords.group
	.weak _i.i2c_master_if.__interface_init.fns.group
	.globl _i.i2c_master_if.__interface_init.fns.group
	.max_reduce _i.i2c_master_if.__interface_init.max.nstackwords, _i.i2c_master_if.__interface_init.nstackwords.group, 0
	.max_reduce _i.i2c_master_if.__interface_init.fns, _i.i2c_master_if.__interface_init.fns.group, 0
	.weak _i.i2c_master_if._client_call_y.maxchanends.group
	.add_to_set _i.i2c_master_if._client_call_y.maxchanends.group, (__interface_client_call_y_other.maxchanends + __interface_client_call_y_extra.maxchanends), __interface_client_call_y_other
	.max_reduce _i.i2c_master_if._client_call_y.max.maxchanends, _i.i2c_master_if._client_call_y.maxchanends.group, 0
	.weak _i.i2c_master_if._client_call_y.maxcores.group
	.add_to_set _i.i2c_master_if._client_call_y.maxcores.group, (__interface_client_call_y_other.maxcores + __interface_client_call_y_extra.maxcores), __interface_client_call_y_other
	.max_reduce _i.i2c_master_if._client_call_y.max.maxcores, _i.i2c_master_if._client_call_y.maxcores.group, 0
	.weak _i.i2c_master_if._client_call_y.maxtimers.group
	.add_to_set _i.i2c_master_if._client_call_y.maxtimers.group, (__interface_client_call_y_other.maxtimers + __interface_client_call_y_extra.maxtimers), __interface_client_call_y_other
	.max_reduce _i.i2c_master_if._client_call_y.max.maxtimers, _i.i2c_master_if._client_call_y.maxtimers.group, 0
	.weak _i.i2c_master_if._client_call_y.nstackwords.group
	.globl _i.i2c_master_if._client_call_y.nstackwords.group
	.weak _i.i2c_master_if._client_call_y.fns.group
	.globl _i.i2c_master_if._client_call_y.fns.group
	.add_to_set _i.i2c_master_if._client_call_y.nstackwords.group, (__interface_client_call_y_other.nstackwords + __interface_client_call_y_extra.nstackwords), __interface_client_call_y_other
	.add_to_set _i.i2c_master_if._client_call_y.fns.group, __interface_client_call_y_other, __interface_client_call_y_other
	.max_reduce _i.i2c_master_if._client_call_y.max.nstackwords, _i.i2c_master_if._client_call_y.nstackwords.group, 0
	.max_reduce _i.i2c_master_if._client_call_y.fns, _i.i2c_master_if._client_call_y.fns.group, 0
	.set usage.anon.0,0
	.set usage.anon.1,0
	.set usage.anon.2,0
	.set usage.anon.3,0
	.set usage.anon.4,0
	.set usage.anon.5,0
	.set usage.anon.6,0
	.set usage.anon.7,0
	.set usage.anon.8,0
	.set usage.anon.9,0
	.set usage.anon.10,0
	.set usage.anon.11,0
	.call i2c_slave,usage.anon.11
	.call usage.anon.11,delay_ticks
	.call usage.anon.10,delay_ticks_longlong
	.call usage.anon.9,delay_ticks_longlong
	.call usage.anon.8,delay_ticks_longlong
	.set usage.anon.0.locnoside, 0
	.set usage.anon.1.locnoside, 0
	.set usage.anon.2.locnoside, 0
	.set usage.anon.3.locnoside, 0
	.set usage.anon.4.locnoside, 0
	.set usage.anon.5.locnoside, 0
	.set usage.anon.6.locnoside, 0
	.set usage.anon.7.locnoside, 0
	.set i2c_slave.locnoside, 0
	.set usage.anon.0.locnointerfaceaccess, 0
	.set usage.anon.1.locnointerfaceaccess, 0
	.set usage.anon.2.locnointerfaceaccess, 0
	.set usage.anon.3.locnointerfaceaccess, 0
	.set usage.anon.4.locnointerfaceaccess, 0
	.set usage.anon.5.locnointerfaceaccess, 0
	.set usage.anon.6.locnointerfaceaccess, 0
	.set usage.anon.7.locnointerfaceaccess, 0
	.set i2c_slave.locnointerfaceaccess, 0
	.set i2c_slave.locnonotificationselect, 0
	.assert 1,usage.anon.11.actnonotificationselect,"/home/evgeny/git/104/UI-01_sw1_hw1/lib_i2c/src/i2c_slave.xc:219:13: error: call to function `ensure_setup_time\' which selects on a notification in a combinable function select case\n            ensure_setup_time();\n            ^~~~~~~~~~~~~~~~~~~"

                                        # End of file scope inline assembly
	.text
	.weak	_i.i2c_master_if._chan.shutdown
	.align	4
	.type	_i.i2c_master_if._chan.shutdown,@function
	.cc_top _i.i2c_master_if._chan.shutdown.function,_i.i2c_master_if._chan.shutdown
_i.i2c_master_if._chan.shutdown:        # @_i.i2c_master_if._chan.shutdown
	.cfi_startproc
	.issue_mode single
# BB#0:                                 # %allocas
	ENTSP_lu6 4
.Ltmp0:
	.cfi_def_cfa_offset 16
.Ltmp1:
	.cfi_offset 15, 0
	stw r4, sp[2]                   # 4-byte Folded Spill
.Ltmp2:
	.cfi_offset 4, -8
	#DEBUG_VALUE: _i.i2c_master_if._chan.shutdown:dest <- R0
	getr r4, 2
	setd res[r4], r0
	add r0, r4, 3
	out res[r4], r0
	outct res[r4], 2
	ldc r1, 0
	mov r0, r4
	bl __interface_wait_and_yield
	in r0, res[r4]
	chkct res[r4], 1
	freer res[r4]
	ldw r4, sp[2]                   # 4-byte Folded Reload
	retsp 4
	# RETURN_REG_HOLDER
	.cc_bottom _i.i2c_master_if._chan.shutdown.function
	.set	_i.i2c_master_if._chan.shutdown.nstackwords,((_i.i2c_master_if._client_call_y.max.nstackwords $M ($D __interface_wait_and_yield.nstackwords ? __interface_wait_and_yield.nstackwords $: _i.i2c_master_if._client_call_y.max.nstackwords)) + 4)
	.globl	_i.i2c_master_if._chan.shutdown.nstackwords
	.weak	_i.i2c_master_if._chan.shutdown.nstackwords
	.set	_i.i2c_master_if._chan.shutdown.maxcores,($D __interface_wait_and_yield.maxcores ? __interface_wait_and_yield.maxcores $: _i.i2c_master_if._client_call_y.max.maxcores) $M 1
	.globl	_i.i2c_master_if._chan.shutdown.maxcores
	.weak	_i.i2c_master_if._chan.shutdown.maxcores
	.set	_i.i2c_master_if._chan.shutdown.maxtimers,($D __interface_wait_and_yield.maxtimers ? __interface_wait_and_yield.maxtimers $: _i.i2c_master_if._client_call_y.max.maxtimers) $M 0
	.globl	_i.i2c_master_if._chan.shutdown.maxtimers
	.weak	_i.i2c_master_if._chan.shutdown.maxtimers
	.set	_i.i2c_master_if._chan.shutdown.maxchanends,(1 + ($D __interface_wait_and_yield.maxchanends ? __interface_wait_and_yield.maxchanends $: _i.i2c_master_if._client_call_y.max.maxchanends)) $M 1
	.globl	_i.i2c_master_if._chan.shutdown.maxchanends
	.weak	_i.i2c_master_if._chan.shutdown.maxchanends
.Ltmp3:
	.size	_i.i2c_master_if._chan.shutdown, .Ltmp3-_i.i2c_master_if._chan.shutdown
	.cfi_endproc

	.weak	_i.i2c_master_if._chan.send_stop_bit
	.align	4
	.type	_i.i2c_master_if._chan.send_stop_bit,@function
	.cc_top _i.i2c_master_if._chan.send_stop_bit.function,_i.i2c_master_if._chan.send_stop_bit
_i.i2c_master_if._chan.send_stop_bit:   # @_i.i2c_master_if._chan.send_stop_bit
	.cfi_startproc
	.issue_mode single
# BB#0:                                 # %allocas
	ENTSP_lu6 4
.Ltmp4:
	.cfi_def_cfa_offset 16
.Ltmp5:
	.cfi_offset 15, 0
	stw r4, sp[2]                   # 4-byte Folded Spill
.Ltmp6:
	.cfi_offset 4, -8
	#DEBUG_VALUE: _i.i2c_master_if._chan.send_stop_bit:dest <- R0
	getr r4, 2
	setd res[r4], r0
	add r0, r4, 2
	out res[r4], r0
	outct res[r4], 2
	ldc r1, 0
	mov r0, r4
	bl __interface_wait_and_yield
	in r0, res[r4]
	chkct res[r4], 1
	freer res[r4]
	ldw r4, sp[2]                   # 4-byte Folded Reload
	retsp 4
	# RETURN_REG_HOLDER
	.cc_bottom _i.i2c_master_if._chan.send_stop_bit.function
	.set	_i.i2c_master_if._chan.send_stop_bit.nstackwords,((_i.i2c_master_if._client_call_y.max.nstackwords $M ($D __interface_wait_and_yield.nstackwords ? __interface_wait_and_yield.nstackwords $: _i.i2c_master_if._client_call_y.max.nstackwords)) + 4)
	.globl	_i.i2c_master_if._chan.send_stop_bit.nstackwords
	.weak	_i.i2c_master_if._chan.send_stop_bit.nstackwords
	.set	_i.i2c_master_if._chan.send_stop_bit.maxcores,($D __interface_wait_and_yield.maxcores ? __interface_wait_and_yield.maxcores $: _i.i2c_master_if._client_call_y.max.maxcores) $M 1
	.globl	_i.i2c_master_if._chan.send_stop_bit.maxcores
	.weak	_i.i2c_master_if._chan.send_stop_bit.maxcores
	.set	_i.i2c_master_if._chan.send_stop_bit.maxtimers,($D __interface_wait_and_yield.maxtimers ? __interface_wait_and_yield.maxtimers $: _i.i2c_master_if._client_call_y.max.maxtimers) $M 0
	.globl	_i.i2c_master_if._chan.send_stop_bit.maxtimers
	.weak	_i.i2c_master_if._chan.send_stop_bit.maxtimers
	.set	_i.i2c_master_if._chan.send_stop_bit.maxchanends,(1 + ($D __interface_wait_and_yield.maxchanends ? __interface_wait_and_yield.maxchanends $: _i.i2c_master_if._client_call_y.max.maxchanends)) $M 1
	.globl	_i.i2c_master_if._chan.send_stop_bit.maxchanends
	.weak	_i.i2c_master_if._chan.send_stop_bit.maxchanends
.Ltmp7:
	.size	_i.i2c_master_if._chan.send_stop_bit, .Ltmp7-_i.i2c_master_if._chan.send_stop_bit
	.cfi_endproc

	.weak	_i.i2c_master_if._chan.read
	.align	4
	.type	_i.i2c_master_if._chan.read,@function
	.cc_top _i.i2c_master_if._chan.read.function,_i.i2c_master_if._chan.read
_i.i2c_master_if._chan.read:            # @_i.i2c_master_if._chan.read
	.cfi_startproc
	.issue_mode single
# BB#0:                                 # %allocas
	ENTSP_lu6 8
.Ltmp8:
	.cfi_def_cfa_offset 32
.Ltmp9:
	.cfi_offset 15, 0
	std r5, r4, sp[1]               # 4-byte Folded Spill
.Ltmp10:
	.cfi_offset 4, -24
.Ltmp11:
	.cfi_offset 5, -20
	std r7, r6, sp[2]               # 4-byte Folded Spill
.Ltmp12:
	.cfi_offset 6, -16
.Ltmp13:
	.cfi_offset 7, -12
	stw r8, sp[6]                   # 4-byte Folded Spill
.Ltmp14:
	.cfi_offset 8, -8
	#DEBUG_VALUE: _i.i2c_master_if._chan.read:dest <- R0
	#DEBUG_VALUE: _i.i2c_master_if._chan.read:param1 <- R1
	#DEBUG_VALUE: _i.i2c_master_if._chan.read:param2 <- R2
	#DEBUG_VALUE: _i.i2c_master_if._chan.read:param3 <- R3
	#DEBUG_VALUE: _i.i2c_master_if._chan.read:param4 <- [SP+36]
	mov r5, r3
	#DEBUG_VALUE: _i.i2c_master_if._chan.read:param3 <- R5
	mov r6, r2
	#DEBUG_VALUE: _i.i2c_master_if._chan.read:param2 <- R6
	mov r7, r1
	#DEBUG_VALUE: _i.i2c_master_if._chan.read:param1 <- R7
	ldw r8, sp[9]
	getr r4, 2
	setd res[r4], r0
	add r0, r4, 1
	out res[r4], r0
	outct res[r4], 2
	ldc r1, 0
	mov r0, r4
	bl __interface_wait_and_yield
	chkct res[r4], 1
	outt res[r4], r7
	stw r6, sp[1]
	out res[r4], r5
	out res[r4], r8
	outct res[r4], 2
	ldaw r1, sp[1]
	mov r0, r4
	bl __interface_client_call
	in r0, res[r4]
	chkct res[r4], 1
	freer res[r4]
	ldw r8, sp[6]                   # 4-byte Folded Reload
	ldd r7, r6, sp[2]               # 4-byte Folded Reload
	ldd r5, r4, sp[1]               # 4-byte Folded Reload
	retsp 8
	# RETURN_REG_HOLDER
	.cc_bottom _i.i2c_master_if._chan.read.function
	.set	_i.i2c_master_if._chan.read.nstackwords,((_i.i2c_master_if._client_call_y.max.nstackwords $M ($D __interface_wait_and_yield.nstackwords ? __interface_wait_and_yield.nstackwords $: _i.i2c_master_if._client_call_y.max.nstackwords) $M __interface_client_call.nstackwords) + 8)
	.globl	_i.i2c_master_if._chan.read.nstackwords
	.weak	_i.i2c_master_if._chan.read.nstackwords
	.set	_i.i2c_master_if._chan.read.maxcores,__interface_client_call.maxcores $M ($D __interface_wait_and_yield.maxcores ? __interface_wait_and_yield.maxcores $: _i.i2c_master_if._client_call_y.max.maxcores) $M 1
	.globl	_i.i2c_master_if._chan.read.maxcores
	.weak	_i.i2c_master_if._chan.read.maxcores
	.set	_i.i2c_master_if._chan.read.maxtimers,__interface_client_call.maxtimers $M ($D __interface_wait_and_yield.maxtimers ? __interface_wait_and_yield.maxtimers $: _i.i2c_master_if._client_call_y.max.maxtimers) $M 0
	.globl	_i.i2c_master_if._chan.read.maxtimers
	.weak	_i.i2c_master_if._chan.read.maxtimers
	.set	_i.i2c_master_if._chan.read.maxchanends,(1 + __interface_client_call.maxchanends) $M (1 + ($D __interface_wait_and_yield.maxchanends ? __interface_wait_and_yield.maxchanends $: _i.i2c_master_if._client_call_y.max.maxchanends)) $M 1
	.globl	_i.i2c_master_if._chan.read.maxchanends
	.weak	_i.i2c_master_if._chan.read.maxchanends
.Ltmp15:
	.size	_i.i2c_master_if._chan.read, .Ltmp15-_i.i2c_master_if._chan.read
	.cfi_endproc

	.weak	_i.i2c_master_if._chan.write
	.align	4
	.type	_i.i2c_master_if._chan.write,@function
	.cc_top _i.i2c_master_if._chan.write.function,_i.i2c_master_if._chan.write
_i.i2c_master_if._chan.write:           # @_i.i2c_master_if._chan.write
	.cfi_startproc
	.issue_mode single
# BB#0:                                 # %allocas
	ENTSP_lu6 8
.Ltmp16:
	.cfi_def_cfa_offset 32
.Ltmp17:
	.cfi_offset 15, 0
	std r5, r4, sp[1]               # 4-byte Folded Spill
.Ltmp18:
	.cfi_offset 4, -24
.Ltmp19:
	.cfi_offset 5, -20
	std r7, r6, sp[2]               # 4-byte Folded Spill
.Ltmp20:
	.cfi_offset 6, -16
.Ltmp21:
	.cfi_offset 7, -12
	std r9, r8, sp[3]               # 4-byte Folded Spill
.Ltmp22:
	.cfi_offset 8, -8
.Ltmp23:
	.cfi_offset 9, -4
	#DEBUG_VALUE: _i.i2c_master_if._chan.write:dest <- R0
	#DEBUG_VALUE: _i.i2c_master_if._chan.write:param1 <- R1
	#DEBUG_VALUE: _i.i2c_master_if._chan.write:param2 <- R2
	#DEBUG_VALUE: _i.i2c_master_if._chan.write:param3 <- R3
	#DEBUG_VALUE: _i.i2c_master_if._chan.write:param4 <- [SP+36]
	#DEBUG_VALUE: _i.i2c_master_if._chan.write:param5 <- [SP+40]
	mov r5, r3
	#DEBUG_VALUE: _i.i2c_master_if._chan.write:param3 <- R5
	mov r6, r2
	#DEBUG_VALUE: _i.i2c_master_if._chan.write:param2 <- R6
	mov r7, r1
	#DEBUG_VALUE: _i.i2c_master_if._chan.write:param1 <- R7
	ldw r9, sp[10]
	ldw r8, sp[9]
	getr r4, 2
	setd res[r4], r0
	out res[r4], r4
	outct res[r4], 2
	ldc r1, 0
	mov r0, r4
	bl __interface_wait_and_yield
	chkct res[r4], 1
	outt res[r4], r7
	stw r6, sp[1]
	out res[r4], r5
	ldw r0, r8[0]
	out res[r4], r0
	out res[r4], r9
	outct res[r4], 2
	ldaw r1, sp[1]
	mov r0, r4
	bl __interface_client_call
	in r0, res[r4]
	stw r0, r8[0]
	in r0, res[r4]
	chkct res[r4], 1
	freer res[r4]
	ldd r9, r8, sp[3]               # 4-byte Folded Reload
	ldd r7, r6, sp[2]               # 4-byte Folded Reload
	ldd r5, r4, sp[1]               # 4-byte Folded Reload
	retsp 8
	# RETURN_REG_HOLDER
	.cc_bottom _i.i2c_master_if._chan.write.function
	.set	_i.i2c_master_if._chan.write.nstackwords,((_i.i2c_master_if._client_call_y.max.nstackwords $M ($D __interface_wait_and_yield.nstackwords ? __interface_wait_and_yield.nstackwords $: _i.i2c_master_if._client_call_y.max.nstackwords) $M __interface_client_call.nstackwords) + 8)
	.globl	_i.i2c_master_if._chan.write.nstackwords
	.weak	_i.i2c_master_if._chan.write.nstackwords
	.set	_i.i2c_master_if._chan.write.maxcores,__interface_client_call.maxcores $M ($D __interface_wait_and_yield.maxcores ? __interface_wait_and_yield.maxcores $: _i.i2c_master_if._client_call_y.max.maxcores) $M 1
	.globl	_i.i2c_master_if._chan.write.maxcores
	.weak	_i.i2c_master_if._chan.write.maxcores
	.set	_i.i2c_master_if._chan.write.maxtimers,__interface_client_call.maxtimers $M ($D __interface_wait_and_yield.maxtimers ? __interface_wait_and_yield.maxtimers $: _i.i2c_master_if._client_call_y.max.maxtimers) $M 0
	.globl	_i.i2c_master_if._chan.write.maxtimers
	.weak	_i.i2c_master_if._chan.write.maxtimers
	.set	_i.i2c_master_if._chan.write.maxchanends,(1 + __interface_client_call.maxchanends) $M (1 + ($D __interface_wait_and_yield.maxchanends ? __interface_wait_and_yield.maxchanends $: _i.i2c_master_if._client_call_y.max.maxchanends)) $M 1
	.globl	_i.i2c_master_if._chan.write.maxchanends
	.weak	_i.i2c_master_if._chan.write.maxchanends
.Ltmp24:
	.size	_i.i2c_master_if._chan.write, .Ltmp24-_i.i2c_master_if._chan.write
	.cfi_endproc

	.weak	_i.i2c_master_if._chan_yield.shutdown
	.align	4
	.type	_i.i2c_master_if._chan_yield.shutdown,@function
	.cc_top _i.i2c_master_if._chan_yield.shutdown.function,_i.i2c_master_if._chan_yield.shutdown
_i.i2c_master_if._chan_yield.shutdown:  # @_i.i2c_master_if._chan_yield.shutdown
	.cfi_startproc
	.issue_mode single
# BB#0:                                 # %allocas
	ENTSP_lu6 4
.Ltmp25:
	.cfi_def_cfa_offset 16
.Ltmp26:
	.cfi_offset 15, 0
	std r5, r4, sp[1]               # 4-byte Folded Spill
.Ltmp27:
	.cfi_offset 4, -8
.Ltmp28:
	.cfi_offset 5, -4
	#DEBUG_VALUE: _i.i2c_master_if._chan_yield.shutdown:s <- R0
	ldw r1, r0[0]
	getr r4, 2
	setd res[r4], r1
	add r1, r4, 3
	out res[r4], r1
	outct res[r4], 2
	ldw r5, r0[1]
	mov r0, r4
	mov r1, r5
	bl __interface_wait_and_yield
	ldc r1, 0
	mov r0, r4
	mov r2, r5
	bl __interface_client_call_y
	chkct res[r4], 1
	freer res[r4]
	ldd r5, r4, sp[1]               # 4-byte Folded Reload
	retsp 4
	# RETURN_REG_HOLDER
	.cc_bottom _i.i2c_master_if._chan_yield.shutdown.function
	.set	_i.i2c_master_if._chan_yield.shutdown.nstackwords,((($D __interface_wait_and_yield.nstackwords ? __interface_wait_and_yield.nstackwords $: _i.i2c_master_if._client_call_y.max.nstackwords) $M _i.i2c_master_if._client_call_y.max.nstackwords $M ($D __interface_client_call_y.nstackwords ? __interface_client_call_y.nstackwords $: _i.i2c_master_if._client_call_y.max.nstackwords)) + 4)
	.globl	_i.i2c_master_if._chan_yield.shutdown.nstackwords
	.weak	_i.i2c_master_if._chan_yield.shutdown.nstackwords
	.set	_i.i2c_master_if._chan_yield.shutdown.maxcores,($D __interface_client_call_y.maxcores ? __interface_client_call_y.maxcores $: _i.i2c_master_if._client_call_y.max.maxcores) $M ($D __interface_wait_and_yield.maxcores ? __interface_wait_and_yield.maxcores $: _i.i2c_master_if._client_call_y.max.maxcores) $M 1
	.globl	_i.i2c_master_if._chan_yield.shutdown.maxcores
	.weak	_i.i2c_master_if._chan_yield.shutdown.maxcores
	.set	_i.i2c_master_if._chan_yield.shutdown.maxtimers,($D __interface_client_call_y.maxtimers ? __interface_client_call_y.maxtimers $: _i.i2c_master_if._client_call_y.max.maxtimers) $M ($D __interface_wait_and_yield.maxtimers ? __interface_wait_and_yield.maxtimers $: _i.i2c_master_if._client_call_y.max.maxtimers) $M 0
	.globl	_i.i2c_master_if._chan_yield.shutdown.maxtimers
	.weak	_i.i2c_master_if._chan_yield.shutdown.maxtimers
	.set	_i.i2c_master_if._chan_yield.shutdown.maxchanends,(1 + ($D __interface_client_call_y.maxchanends ? __interface_client_call_y.maxchanends $: _i.i2c_master_if._client_call_y.max.maxchanends)) $M (1 + ($D __interface_wait_and_yield.maxchanends ? __interface_wait_and_yield.maxchanends $: _i.i2c_master_if._client_call_y.max.maxchanends)) $M 1
	.globl	_i.i2c_master_if._chan_yield.shutdown.maxchanends
	.weak	_i.i2c_master_if._chan_yield.shutdown.maxchanends
.Ltmp29:
	.size	_i.i2c_master_if._chan_yield.shutdown, .Ltmp29-_i.i2c_master_if._chan_yield.shutdown
	.cfi_endproc

	.weak	_i.i2c_master_if._chan_yield.send_stop_bit
	.align	4
	.type	_i.i2c_master_if._chan_yield.send_stop_bit,@function
	.cc_top _i.i2c_master_if._chan_yield.send_stop_bit.function,_i.i2c_master_if._chan_yield.send_stop_bit
_i.i2c_master_if._chan_yield.send_stop_bit: # @_i.i2c_master_if._chan_yield.send_stop_bit
	.cfi_startproc
	.issue_mode single
# BB#0:                                 # %allocas
	ENTSP_lu6 4
.Ltmp30:
	.cfi_def_cfa_offset 16
.Ltmp31:
	.cfi_offset 15, 0
	std r5, r4, sp[1]               # 4-byte Folded Spill
.Ltmp32:
	.cfi_offset 4, -8
.Ltmp33:
	.cfi_offset 5, -4
	#DEBUG_VALUE: _i.i2c_master_if._chan_yield.send_stop_bit:s <- R0
	ldw r1, r0[0]
	getr r4, 2
	setd res[r4], r1
	add r1, r4, 2
	out res[r4], r1
	outct res[r4], 2
	ldw r5, r0[1]
	mov r0, r4
	mov r1, r5
	bl __interface_wait_and_yield
	ldc r1, 0
	mov r0, r4
	mov r2, r5
	bl __interface_client_call_y
	chkct res[r4], 1
	freer res[r4]
	ldd r5, r4, sp[1]               # 4-byte Folded Reload
	retsp 4
	# RETURN_REG_HOLDER
	.cc_bottom _i.i2c_master_if._chan_yield.send_stop_bit.function
	.set	_i.i2c_master_if._chan_yield.send_stop_bit.nstackwords,((($D __interface_wait_and_yield.nstackwords ? __interface_wait_and_yield.nstackwords $: _i.i2c_master_if._client_call_y.max.nstackwords) $M _i.i2c_master_if._client_call_y.max.nstackwords $M ($D __interface_client_call_y.nstackwords ? __interface_client_call_y.nstackwords $: _i.i2c_master_if._client_call_y.max.nstackwords)) + 4)
	.globl	_i.i2c_master_if._chan_yield.send_stop_bit.nstackwords
	.weak	_i.i2c_master_if._chan_yield.send_stop_bit.nstackwords
	.set	_i.i2c_master_if._chan_yield.send_stop_bit.maxcores,($D __interface_client_call_y.maxcores ? __interface_client_call_y.maxcores $: _i.i2c_master_if._client_call_y.max.maxcores) $M ($D __interface_wait_and_yield.maxcores ? __interface_wait_and_yield.maxcores $: _i.i2c_master_if._client_call_y.max.maxcores) $M 1
	.globl	_i.i2c_master_if._chan_yield.send_stop_bit.maxcores
	.weak	_i.i2c_master_if._chan_yield.send_stop_bit.maxcores
	.set	_i.i2c_master_if._chan_yield.send_stop_bit.maxtimers,($D __interface_client_call_y.maxtimers ? __interface_client_call_y.maxtimers $: _i.i2c_master_if._client_call_y.max.maxtimers) $M ($D __interface_wait_and_yield.maxtimers ? __interface_wait_and_yield.maxtimers $: _i.i2c_master_if._client_call_y.max.maxtimers) $M 0
	.globl	_i.i2c_master_if._chan_yield.send_stop_bit.maxtimers
	.weak	_i.i2c_master_if._chan_yield.send_stop_bit.maxtimers
	.set	_i.i2c_master_if._chan_yield.send_stop_bit.maxchanends,(1 + ($D __interface_client_call_y.maxchanends ? __interface_client_call_y.maxchanends $: _i.i2c_master_if._client_call_y.max.maxchanends)) $M (1 + ($D __interface_wait_and_yield.maxchanends ? __interface_wait_and_yield.maxchanends $: _i.i2c_master_if._client_call_y.max.maxchanends)) $M 1
	.globl	_i.i2c_master_if._chan_yield.send_stop_bit.maxchanends
	.weak	_i.i2c_master_if._chan_yield.send_stop_bit.maxchanends
.Ltmp34:
	.size	_i.i2c_master_if._chan_yield.send_stop_bit, .Ltmp34-_i.i2c_master_if._chan_yield.send_stop_bit
	.cfi_endproc

	.weak	_i.i2c_master_if._chan_yield.read
	.align	4
	.type	_i.i2c_master_if._chan_yield.read,@function
	.cc_top _i.i2c_master_if._chan_yield.read.function,_i.i2c_master_if._chan_yield.read
_i.i2c_master_if._chan_yield.read:      # @_i.i2c_master_if._chan_yield.read
	.cfi_startproc
	.issue_mode single
# BB#0:                                 # %allocas
	ENTSP_lu6 8
.Ltmp35:
	.cfi_def_cfa_offset 32
.Ltmp36:
	.cfi_offset 15, 0
	std r5, r4, sp[1]               # 4-byte Folded Spill
.Ltmp37:
	.cfi_offset 4, -24
.Ltmp38:
	.cfi_offset 5, -20
	std r7, r6, sp[2]               # 4-byte Folded Spill
.Ltmp39:
	.cfi_offset 6, -16
.Ltmp40:
	.cfi_offset 7, -12
	std r9, r8, sp[3]               # 4-byte Folded Spill
.Ltmp41:
	.cfi_offset 8, -8
.Ltmp42:
	.cfi_offset 9, -4
	#DEBUG_VALUE: _i.i2c_master_if._chan_yield.read:s <- R0
	#DEBUG_VALUE: _i.i2c_master_if._chan_yield.read:param1 <- R1
	#DEBUG_VALUE: _i.i2c_master_if._chan_yield.read:param2 <- R2
	#DEBUG_VALUE: _i.i2c_master_if._chan_yield.read:param3 <- R3
	#DEBUG_VALUE: _i.i2c_master_if._chan_yield.read:param4 <- [SP+36]
	mov r5, r3
	#DEBUG_VALUE: _i.i2c_master_if._chan_yield.read:param3 <- R5
	mov r6, r2
	#DEBUG_VALUE: _i.i2c_master_if._chan_yield.read:param2 <- R6
	mov r7, r1
	#DEBUG_VALUE: _i.i2c_master_if._chan_yield.read:param1 <- R7
	ldw r9, sp[9]
	ldw r1, r0[0]
	getr r4, 2
	setd res[r4], r1
	add r1, r4, 1
	out res[r4], r1
	outct res[r4], 2
	ldw r8, r0[1]
	mov r0, r4
	mov r1, r8
	bl __interface_wait_and_yield
	chkct res[r4], 1
	outt res[r4], r7
	stw r6, sp[1]
	out res[r4], r5
	out res[r4], r9
	outct res[r4], 2
	ldaw r1, sp[1]
	mov r0, r4
	mov r2, r8
	bl __interface_client_call_y
	in r0, res[r4]
	chkct res[r4], 1
	freer res[r4]
	ldd r9, r8, sp[3]               # 4-byte Folded Reload
	ldd r7, r6, sp[2]               # 4-byte Folded Reload
	ldd r5, r4, sp[1]               # 4-byte Folded Reload
	retsp 8
	# RETURN_REG_HOLDER
	.cc_bottom _i.i2c_master_if._chan_yield.read.function
	.set	_i.i2c_master_if._chan_yield.read.nstackwords,((($D __interface_wait_and_yield.nstackwords ? __interface_wait_and_yield.nstackwords $: _i.i2c_master_if._client_call_y.max.nstackwords) $M _i.i2c_master_if._client_call_y.max.nstackwords $M ($D __interface_client_call_y.nstackwords ? __interface_client_call_y.nstackwords $: _i.i2c_master_if._client_call_y.max.nstackwords)) + 8)
	.globl	_i.i2c_master_if._chan_yield.read.nstackwords
	.weak	_i.i2c_master_if._chan_yield.read.nstackwords
	.set	_i.i2c_master_if._chan_yield.read.maxcores,($D __interface_client_call_y.maxcores ? __interface_client_call_y.maxcores $: _i.i2c_master_if._client_call_y.max.maxcores) $M ($D __interface_wait_and_yield.maxcores ? __interface_wait_and_yield.maxcores $: _i.i2c_master_if._client_call_y.max.maxcores) $M 1
	.globl	_i.i2c_master_if._chan_yield.read.maxcores
	.weak	_i.i2c_master_if._chan_yield.read.maxcores
	.set	_i.i2c_master_if._chan_yield.read.maxtimers,($D __interface_client_call_y.maxtimers ? __interface_client_call_y.maxtimers $: _i.i2c_master_if._client_call_y.max.maxtimers) $M ($D __interface_wait_and_yield.maxtimers ? __interface_wait_and_yield.maxtimers $: _i.i2c_master_if._client_call_y.max.maxtimers) $M 0
	.globl	_i.i2c_master_if._chan_yield.read.maxtimers
	.weak	_i.i2c_master_if._chan_yield.read.maxtimers
	.set	_i.i2c_master_if._chan_yield.read.maxchanends,(1 + ($D __interface_client_call_y.maxchanends ? __interface_client_call_y.maxchanends $: _i.i2c_master_if._client_call_y.max.maxchanends)) $M (1 + ($D __interface_wait_and_yield.maxchanends ? __interface_wait_and_yield.maxchanends $: _i.i2c_master_if._client_call_y.max.maxchanends)) $M 1
	.globl	_i.i2c_master_if._chan_yield.read.maxchanends
	.weak	_i.i2c_master_if._chan_yield.read.maxchanends
.Ltmp43:
	.size	_i.i2c_master_if._chan_yield.read, .Ltmp43-_i.i2c_master_if._chan_yield.read
	.cfi_endproc

	.weak	_i.i2c_master_if._chan_yield.write
	.align	4
	.type	_i.i2c_master_if._chan_yield.write,@function
	.cc_top _i.i2c_master_if._chan_yield.write.function,_i.i2c_master_if._chan_yield.write
_i.i2c_master_if._chan_yield.write:     # @_i.i2c_master_if._chan_yield.write
	.cfi_startproc
	.issue_mode single
# BB#0:                                 # %allocas
	ENTSP_lu6 10
.Ltmp44:
	.cfi_def_cfa_offset 40
.Ltmp45:
	.cfi_offset 15, 0
	std r5, r4, sp[1]               # 4-byte Folded Spill
.Ltmp46:
	.cfi_offset 4, -32
.Ltmp47:
	.cfi_offset 5, -28
	std r7, r6, sp[2]               # 4-byte Folded Spill
.Ltmp48:
	.cfi_offset 6, -24
.Ltmp49:
	.cfi_offset 7, -20
	std r9, r8, sp[3]               # 4-byte Folded Spill
.Ltmp50:
	.cfi_offset 8, -16
.Ltmp51:
	.cfi_offset 9, -12
	stw r10, sp[8]                  # 4-byte Folded Spill
.Ltmp52:
	.cfi_offset 10, -8
	#DEBUG_VALUE: _i.i2c_master_if._chan_yield.write:s <- R0
	#DEBUG_VALUE: _i.i2c_master_if._chan_yield.write:param1 <- R1
	#DEBUG_VALUE: _i.i2c_master_if._chan_yield.write:param2 <- R2
	#DEBUG_VALUE: _i.i2c_master_if._chan_yield.write:param3 <- R3
	#DEBUG_VALUE: _i.i2c_master_if._chan_yield.write:param4 <- [SP+44]
	#DEBUG_VALUE: _i.i2c_master_if._chan_yield.write:param5 <- [SP+48]
	mov r5, r3
	#DEBUG_VALUE: _i.i2c_master_if._chan_yield.write:param3 <- R5
	mov r6, r2
	#DEBUG_VALUE: _i.i2c_master_if._chan_yield.write:param2 <- R6
	mov r7, r1
	#DEBUG_VALUE: _i.i2c_master_if._chan_yield.write:param1 <- R7
	ldw r10, sp[12]
	ldw r9, sp[11]
	ldw r1, r0[0]
	getr r4, 2
	setd res[r4], r1
	out res[r4], r4
	outct res[r4], 2
	ldw r8, r0[1]
	mov r0, r4
	mov r1, r8
	bl __interface_wait_and_yield
	chkct res[r4], 1
	outt res[r4], r7
	stw r6, sp[1]
	out res[r4], r5
	ldw r0, r9[0]
	out res[r4], r0
	out res[r4], r10
	outct res[r4], 2
	ldaw r1, sp[1]
	mov r0, r4
	mov r2, r8
	bl __interface_client_call_y
	in r0, res[r4]
	stw r0, r9[0]
	in r0, res[r4]
	chkct res[r4], 1
	freer res[r4]
	ldw r10, sp[8]                  # 4-byte Folded Reload
	ldd r9, r8, sp[3]               # 4-byte Folded Reload
	ldd r7, r6, sp[2]               # 4-byte Folded Reload
	ldd r5, r4, sp[1]               # 4-byte Folded Reload
	retsp 10
	# RETURN_REG_HOLDER
	.cc_bottom _i.i2c_master_if._chan_yield.write.function
	.set	_i.i2c_master_if._chan_yield.write.nstackwords,((($D __interface_wait_and_yield.nstackwords ? __interface_wait_and_yield.nstackwords $: _i.i2c_master_if._client_call_y.max.nstackwords) $M _i.i2c_master_if._client_call_y.max.nstackwords $M ($D __interface_client_call_y.nstackwords ? __interface_client_call_y.nstackwords $: _i.i2c_master_if._client_call_y.max.nstackwords)) + 10)
	.globl	_i.i2c_master_if._chan_yield.write.nstackwords
	.weak	_i.i2c_master_if._chan_yield.write.nstackwords
	.set	_i.i2c_master_if._chan_yield.write.maxcores,($D __interface_client_call_y.maxcores ? __interface_client_call_y.maxcores $: _i.i2c_master_if._client_call_y.max.maxcores) $M ($D __interface_wait_and_yield.maxcores ? __interface_wait_and_yield.maxcores $: _i.i2c_master_if._client_call_y.max.maxcores) $M 1
	.globl	_i.i2c_master_if._chan_yield.write.maxcores
	.weak	_i.i2c_master_if._chan_yield.write.maxcores
	.set	_i.i2c_master_if._chan_yield.write.maxtimers,($D __interface_client_call_y.maxtimers ? __interface_client_call_y.maxtimers $: _i.i2c_master_if._client_call_y.max.maxtimers) $M ($D __interface_wait_and_yield.maxtimers ? __interface_wait_and_yield.maxtimers $: _i.i2c_master_if._client_call_y.max.maxtimers) $M 0
	.globl	_i.i2c_master_if._chan_yield.write.maxtimers
	.weak	_i.i2c_master_if._chan_yield.write.maxtimers
	.set	_i.i2c_master_if._chan_yield.write.maxchanends,(1 + ($D __interface_client_call_y.maxchanends ? __interface_client_call_y.maxchanends $: _i.i2c_master_if._client_call_y.max.maxchanends)) $M (1 + ($D __interface_wait_and_yield.maxchanends ? __interface_wait_and_yield.maxchanends $: _i.i2c_master_if._client_call_y.max.maxchanends)) $M 1
	.globl	_i.i2c_master_if._chan_yield.write.maxchanends
	.weak	_i.i2c_master_if._chan_yield.write.maxchanends
.Ltmp53:
	.size	_i.i2c_master_if._chan_yield.write, .Ltmp53-_i.i2c_master_if._chan_yield.write
	.cfi_endproc

	.weak	_i.i2c_master_async_if._chan.shutdown
	.align	4
	.type	_i.i2c_master_async_if._chan.shutdown,@function
	.cc_top _i.i2c_master_async_if._chan.shutdown.function,_i.i2c_master_async_if._chan.shutdown
_i.i2c_master_async_if._chan.shutdown:  # @_i.i2c_master_async_if._chan.shutdown
	.cfi_startproc
	.issue_mode single
# BB#0:                                 # %allocas
	ENTSP_lu6 4
.Ltmp54:
	.cfi_def_cfa_offset 16
.Ltmp55:
	.cfi_offset 15, 0
	stw r4, sp[2]                   # 4-byte Folded Spill
.Ltmp56:
	.cfi_offset 4, -8
	#DEBUG_VALUE: _i.i2c_master_async_if._chan.shutdown:dest <- R0
	getr r4, 2
	setd res[r4], r0
	add r0, r4, 5
	out res[r4], r0
	outct res[r4], 2
	ldc r1, 0
	mov r0, r4
	bl __interface_wait_and_yield
	in r0, res[r4]
	chkct res[r4], 1
	freer res[r4]
	ldw r4, sp[2]                   # 4-byte Folded Reload
	retsp 4
	# RETURN_REG_HOLDER
	.cc_bottom _i.i2c_master_async_if._chan.shutdown.function
	.set	_i.i2c_master_async_if._chan.shutdown.nstackwords,((_i.i2c_master_async_if._client_call_y.max.nstackwords $M ($D __interface_wait_and_yield.nstackwords ? __interface_wait_and_yield.nstackwords $: _i.i2c_master_async_if._client_call_y.max.nstackwords)) + 4)
	.globl	_i.i2c_master_async_if._chan.shutdown.nstackwords
	.weak	_i.i2c_master_async_if._chan.shutdown.nstackwords
	.set	_i.i2c_master_async_if._chan.shutdown.maxcores,($D __interface_wait_and_yield.maxcores ? __interface_wait_and_yield.maxcores $: _i.i2c_master_async_if._client_call_y.max.maxcores) $M 1
	.globl	_i.i2c_master_async_if._chan.shutdown.maxcores
	.weak	_i.i2c_master_async_if._chan.shutdown.maxcores
	.set	_i.i2c_master_async_if._chan.shutdown.maxtimers,($D __interface_wait_and_yield.maxtimers ? __interface_wait_and_yield.maxtimers $: _i.i2c_master_async_if._client_call_y.max.maxtimers) $M 0
	.globl	_i.i2c_master_async_if._chan.shutdown.maxtimers
	.weak	_i.i2c_master_async_if._chan.shutdown.maxtimers
	.set	_i.i2c_master_async_if._chan.shutdown.maxchanends,(1 + ($D __interface_wait_and_yield.maxchanends ? __interface_wait_and_yield.maxchanends $: _i.i2c_master_async_if._client_call_y.max.maxchanends)) $M 1
	.globl	_i.i2c_master_async_if._chan.shutdown.maxchanends
	.weak	_i.i2c_master_async_if._chan.shutdown.maxchanends
.Ltmp57:
	.size	_i.i2c_master_async_if._chan.shutdown, .Ltmp57-_i.i2c_master_async_if._chan.shutdown
	.cfi_endproc

	.weak	_i.i2c_master_async_if._chan.send_stop_bit
	.align	4
	.type	_i.i2c_master_async_if._chan.send_stop_bit,@function
	.cc_top _i.i2c_master_async_if._chan.send_stop_bit.function,_i.i2c_master_async_if._chan.send_stop_bit
_i.i2c_master_async_if._chan.send_stop_bit: # @_i.i2c_master_async_if._chan.send_stop_bit
	.cfi_startproc
	.issue_mode single
# BB#0:                                 # %allocas
	ENTSP_lu6 4
.Ltmp58:
	.cfi_def_cfa_offset 16
.Ltmp59:
	.cfi_offset 15, 0
	stw r4, sp[2]                   # 4-byte Folded Spill
.Ltmp60:
	.cfi_offset 4, -8
	#DEBUG_VALUE: _i.i2c_master_async_if._chan.send_stop_bit:dest <- R0
	getr r4, 2
	setd res[r4], r0
	add r0, r4, 4
	out res[r4], r0
	outct res[r4], 2
	ldc r1, 0
	mov r0, r4
	bl __interface_wait_and_yield
	in r0, res[r4]
	chkct res[r4], 1
	freer res[r4]
	ldw r4, sp[2]                   # 4-byte Folded Reload
	retsp 4
	# RETURN_REG_HOLDER
	.cc_bottom _i.i2c_master_async_if._chan.send_stop_bit.function
	.set	_i.i2c_master_async_if._chan.send_stop_bit.nstackwords,((_i.i2c_master_async_if._client_call_y.max.nstackwords $M ($D __interface_wait_and_yield.nstackwords ? __interface_wait_and_yield.nstackwords $: _i.i2c_master_async_if._client_call_y.max.nstackwords)) + 4)
	.globl	_i.i2c_master_async_if._chan.send_stop_bit.nstackwords
	.weak	_i.i2c_master_async_if._chan.send_stop_bit.nstackwords
	.set	_i.i2c_master_async_if._chan.send_stop_bit.maxcores,($D __interface_wait_and_yield.maxcores ? __interface_wait_and_yield.maxcores $: _i.i2c_master_async_if._client_call_y.max.maxcores) $M 1
	.globl	_i.i2c_master_async_if._chan.send_stop_bit.maxcores
	.weak	_i.i2c_master_async_if._chan.send_stop_bit.maxcores
	.set	_i.i2c_master_async_if._chan.send_stop_bit.maxtimers,($D __interface_wait_and_yield.maxtimers ? __interface_wait_and_yield.maxtimers $: _i.i2c_master_async_if._client_call_y.max.maxtimers) $M 0
	.globl	_i.i2c_master_async_if._chan.send_stop_bit.maxtimers
	.weak	_i.i2c_master_async_if._chan.send_stop_bit.maxtimers
	.set	_i.i2c_master_async_if._chan.send_stop_bit.maxchanends,(1 + ($D __interface_wait_and_yield.maxchanends ? __interface_wait_and_yield.maxchanends $: _i.i2c_master_async_if._client_call_y.max.maxchanends)) $M 1
	.globl	_i.i2c_master_async_if._chan.send_stop_bit.maxchanends
	.weak	_i.i2c_master_async_if._chan.send_stop_bit.maxchanends
.Ltmp61:
	.size	_i.i2c_master_async_if._chan.send_stop_bit, .Ltmp61-_i.i2c_master_async_if._chan.send_stop_bit
	.cfi_endproc

	.weak	_i.i2c_master_async_if._chan.get_read_data
	.align	4
	.type	_i.i2c_master_async_if._chan.get_read_data,@function
	.cc_top _i.i2c_master_async_if._chan.get_read_data.function,_i.i2c_master_async_if._chan.get_read_data
_i.i2c_master_async_if._chan.get_read_data: # @_i.i2c_master_async_if._chan.get_read_data
	.cfi_startproc
	.issue_mode single
# BB#0:                                 # %allocas
	ENTSP_lu6 6
.Ltmp62:
	.cfi_def_cfa_offset 24
.Ltmp63:
	.cfi_offset 15, 0
	std r5, r4, sp[1]               # 4-byte Folded Spill
.Ltmp64:
	.cfi_offset 4, -16
.Ltmp65:
	.cfi_offset 5, -12
	std r7, r6, sp[2]               # 4-byte Folded Spill
.Ltmp66:
	.cfi_offset 6, -8
.Ltmp67:
	.cfi_offset 7, -4
	#DEBUG_VALUE: _i.i2c_master_async_if._chan.get_read_data:dest <- R0
	#DEBUG_VALUE: _i.i2c_master_async_if._chan.get_read_data:clientNotifyFlag <- R1
	#DEBUG_VALUE: _i.i2c_master_async_if._chan.get_read_data:param2 <- R2
	#DEBUG_VALUE: _i.i2c_master_async_if._chan.get_read_data:param3 <- R3
	mov r4, r3
	#DEBUG_VALUE: _i.i2c_master_async_if._chan.get_read_data:param3 <- R4
	mov r5, r2
	#DEBUG_VALUE: _i.i2c_master_async_if._chan.get_read_data:param2 <- R5
	mov r6, r1
	#DEBUG_VALUE: _i.i2c_master_async_if._chan.get_read_data:clientNotifyFlag <- R6
	getr r7, 2
	setd res[r7], r0
	add r0, r7, 3
	out res[r7], r0
	outct res[r7], 2
	ldc r1, 0
	mov r0, r7
	bl __interface_wait_and_yield
	chkct res[r7], 1
	out res[r7], r6
	stw r5, sp[1]
	out res[r7], r4
	outct res[r7], 2
	ldaw r1, sp[1]
	mov r0, r7
	bl __interface_client_call
	in r0, res[r7]
	chkct res[r7], 1
	freer res[r7]
	ldd r7, r6, sp[2]               # 4-byte Folded Reload
	ldd r5, r4, sp[1]               # 4-byte Folded Reload
	retsp 6
	# RETURN_REG_HOLDER
	.cc_bottom _i.i2c_master_async_if._chan.get_read_data.function
	.set	_i.i2c_master_async_if._chan.get_read_data.nstackwords,((_i.i2c_master_async_if._client_call_y.max.nstackwords $M ($D __interface_wait_and_yield.nstackwords ? __interface_wait_and_yield.nstackwords $: _i.i2c_master_async_if._client_call_y.max.nstackwords) $M __interface_client_call.nstackwords) + 6)
	.globl	_i.i2c_master_async_if._chan.get_read_data.nstackwords
	.weak	_i.i2c_master_async_if._chan.get_read_data.nstackwords
	.set	_i.i2c_master_async_if._chan.get_read_data.maxcores,__interface_client_call.maxcores $M ($D __interface_wait_and_yield.maxcores ? __interface_wait_and_yield.maxcores $: _i.i2c_master_async_if._client_call_y.max.maxcores) $M 1
	.globl	_i.i2c_master_async_if._chan.get_read_data.maxcores
	.weak	_i.i2c_master_async_if._chan.get_read_data.maxcores
	.set	_i.i2c_master_async_if._chan.get_read_data.maxtimers,__interface_client_call.maxtimers $M ($D __interface_wait_and_yield.maxtimers ? __interface_wait_and_yield.maxtimers $: _i.i2c_master_async_if._client_call_y.max.maxtimers) $M 0
	.globl	_i.i2c_master_async_if._chan.get_read_data.maxtimers
	.weak	_i.i2c_master_async_if._chan.get_read_data.maxtimers
	.set	_i.i2c_master_async_if._chan.get_read_data.maxchanends,(1 + __interface_client_call.maxchanends) $M (1 + ($D __interface_wait_and_yield.maxchanends ? __interface_wait_and_yield.maxchanends $: _i.i2c_master_async_if._client_call_y.max.maxchanends)) $M 1
	.globl	_i.i2c_master_async_if._chan.get_read_data.maxchanends
	.weak	_i.i2c_master_async_if._chan.get_read_data.maxchanends
.Ltmp68:
	.size	_i.i2c_master_async_if._chan.get_read_data, .Ltmp68-_i.i2c_master_async_if._chan.get_read_data
	.cfi_endproc

	.weak	_i.i2c_master_async_if._chan.get_write_result
	.align	4
	.type	_i.i2c_master_async_if._chan.get_write_result,@function
	.cc_top _i.i2c_master_async_if._chan.get_write_result.function,_i.i2c_master_async_if._chan.get_write_result
_i.i2c_master_async_if._chan.get_write_result: # @_i.i2c_master_async_if._chan.get_write_result
	.cfi_startproc
	.issue_mode single
# BB#0:                                 # %allocas
	ENTSP_lu6 6
.Ltmp69:
	.cfi_def_cfa_offset 24
.Ltmp70:
	.cfi_offset 15, 0
	std r5, r4, sp[1]               # 4-byte Folded Spill
.Ltmp71:
	.cfi_offset 4, -16
.Ltmp72:
	.cfi_offset 5, -12
	stw r6, sp[4]                   # 4-byte Folded Spill
.Ltmp73:
	.cfi_offset 6, -8
	#DEBUG_VALUE: _i.i2c_master_async_if._chan.get_write_result:dest <- R0
	#DEBUG_VALUE: _i.i2c_master_async_if._chan.get_write_result:clientNotifyFlag <- R1
	#DEBUG_VALUE: _i.i2c_master_async_if._chan.get_write_result:param2 <- R2
	mov r4, r2
	#DEBUG_VALUE: _i.i2c_master_async_if._chan.get_write_result:param2 <- R4
	mov r5, r1
	#DEBUG_VALUE: _i.i2c_master_async_if._chan.get_write_result:clientNotifyFlag <- R5
	getr r6, 2
	setd res[r6], r0
	add r0, r6, 2
	out res[r6], r0
	outct res[r6], 2
	ldc r1, 0
	mov r0, r6
	bl __interface_wait_and_yield
	chkct res[r6], 1
	out res[r6], r5
	ldw r0, r4[0]
	out res[r6], r0
	outct res[r6], 2
	in r0, res[r6]
	in r0, res[r6]
	stw r0, r4[0]
	in r0, res[r6]
	chkct res[r6], 1
	freer res[r6]
	ldw r6, sp[4]                   # 4-byte Folded Reload
	ldd r5, r4, sp[1]               # 4-byte Folded Reload
	retsp 6
	# RETURN_REG_HOLDER
	.cc_bottom _i.i2c_master_async_if._chan.get_write_result.function
	.set	_i.i2c_master_async_if._chan.get_write_result.nstackwords,((_i.i2c_master_async_if._client_call_y.max.nstackwords $M ($D __interface_wait_and_yield.nstackwords ? __interface_wait_and_yield.nstackwords $: _i.i2c_master_async_if._client_call_y.max.nstackwords)) + 6)
	.globl	_i.i2c_master_async_if._chan.get_write_result.nstackwords
	.weak	_i.i2c_master_async_if._chan.get_write_result.nstackwords
	.set	_i.i2c_master_async_if._chan.get_write_result.maxcores,($D __interface_wait_and_yield.maxcores ? __interface_wait_and_yield.maxcores $: _i.i2c_master_async_if._client_call_y.max.maxcores) $M 1
	.globl	_i.i2c_master_async_if._chan.get_write_result.maxcores
	.weak	_i.i2c_master_async_if._chan.get_write_result.maxcores
	.set	_i.i2c_master_async_if._chan.get_write_result.maxtimers,($D __interface_wait_and_yield.maxtimers ? __interface_wait_and_yield.maxtimers $: _i.i2c_master_async_if._client_call_y.max.maxtimers) $M 0
	.globl	_i.i2c_master_async_if._chan.get_write_result.maxtimers
	.weak	_i.i2c_master_async_if._chan.get_write_result.maxtimers
	.set	_i.i2c_master_async_if._chan.get_write_result.maxchanends,(1 + ($D __interface_wait_and_yield.maxchanends ? __interface_wait_and_yield.maxchanends $: _i.i2c_master_async_if._client_call_y.max.maxchanends)) $M 1
	.globl	_i.i2c_master_async_if._chan.get_write_result.maxchanends
	.weak	_i.i2c_master_async_if._chan.get_write_result.maxchanends
.Ltmp74:
	.size	_i.i2c_master_async_if._chan.get_write_result, .Ltmp74-_i.i2c_master_async_if._chan.get_write_result
	.cfi_endproc

	.weak	_i.i2c_master_async_if._chan.read
	.align	4
	.type	_i.i2c_master_async_if._chan.read,@function
	.cc_top _i.i2c_master_async_if._chan.read.function,_i.i2c_master_async_if._chan.read
_i.i2c_master_async_if._chan.read:      # @_i.i2c_master_async_if._chan.read
	.cfi_startproc
	.issue_mode single
# BB#0:                                 # %allocas
	ENTSP_lu6 6
.Ltmp75:
	.cfi_def_cfa_offset 24
.Ltmp76:
	.cfi_offset 15, 0
	std r5, r4, sp[1]               # 4-byte Folded Spill
.Ltmp77:
	.cfi_offset 4, -16
.Ltmp78:
	.cfi_offset 5, -12
	std r7, r6, sp[2]               # 4-byte Folded Spill
.Ltmp79:
	.cfi_offset 6, -8
.Ltmp80:
	.cfi_offset 7, -4
	#DEBUG_VALUE: _i.i2c_master_async_if._chan.read:dest <- R0
	#DEBUG_VALUE: _i.i2c_master_async_if._chan.read:param1 <- R1
	#DEBUG_VALUE: _i.i2c_master_async_if._chan.read:param2 <- R2
	#DEBUG_VALUE: _i.i2c_master_async_if._chan.read:param3 <- R3
	mov r4, r3
	#DEBUG_VALUE: _i.i2c_master_async_if._chan.read:param3 <- R4
	mov r5, r2
	#DEBUG_VALUE: _i.i2c_master_async_if._chan.read:param2 <- R5
	mov r6, r1
	#DEBUG_VALUE: _i.i2c_master_async_if._chan.read:param1 <- R6
	getr r7, 2
	setd res[r7], r0
	add r0, r7, 1
	out res[r7], r0
	outct res[r7], 2
	ldc r1, 0
	mov r0, r7
	bl __interface_wait_and_yield
	chkct res[r7], 1
	outt res[r7], r6
	out res[r7], r5
	out res[r7], r4
	outct res[r7], 2
	in r0, res[r7]
	chkct res[r7], 1
	freer res[r7]
	ldd r7, r6, sp[2]               # 4-byte Folded Reload
	ldd r5, r4, sp[1]               # 4-byte Folded Reload
	retsp 6
	# RETURN_REG_HOLDER
	.cc_bottom _i.i2c_master_async_if._chan.read.function
	.set	_i.i2c_master_async_if._chan.read.nstackwords,((_i.i2c_master_async_if._client_call_y.max.nstackwords $M ($D __interface_wait_and_yield.nstackwords ? __interface_wait_and_yield.nstackwords $: _i.i2c_master_async_if._client_call_y.max.nstackwords)) + 6)
	.globl	_i.i2c_master_async_if._chan.read.nstackwords
	.weak	_i.i2c_master_async_if._chan.read.nstackwords
	.set	_i.i2c_master_async_if._chan.read.maxcores,($D __interface_wait_and_yield.maxcores ? __interface_wait_and_yield.maxcores $: _i.i2c_master_async_if._client_call_y.max.maxcores) $M 1
	.globl	_i.i2c_master_async_if._chan.read.maxcores
	.weak	_i.i2c_master_async_if._chan.read.maxcores
	.set	_i.i2c_master_async_if._chan.read.maxtimers,($D __interface_wait_and_yield.maxtimers ? __interface_wait_and_yield.maxtimers $: _i.i2c_master_async_if._client_call_y.max.maxtimers) $M 0
	.globl	_i.i2c_master_async_if._chan.read.maxtimers
	.weak	_i.i2c_master_async_if._chan.read.maxtimers
	.set	_i.i2c_master_async_if._chan.read.maxchanends,(1 + ($D __interface_wait_and_yield.maxchanends ? __interface_wait_and_yield.maxchanends $: _i.i2c_master_async_if._client_call_y.max.maxchanends)) $M 1
	.globl	_i.i2c_master_async_if._chan.read.maxchanends
	.weak	_i.i2c_master_async_if._chan.read.maxchanends
.Ltmp81:
	.size	_i.i2c_master_async_if._chan.read, .Ltmp81-_i.i2c_master_async_if._chan.read
	.cfi_endproc

	.weak	_i.i2c_master_async_if._chan.write
	.align	4
	.type	_i.i2c_master_async_if._chan.write,@function
	.cc_top _i.i2c_master_async_if._chan.write.function,_i.i2c_master_async_if._chan.write
_i.i2c_master_async_if._chan.write:     # @_i.i2c_master_async_if._chan.write
	.cfi_startproc
	.issue_mode single
# BB#0:                                 # %allocas
	ENTSP_lu6 8
.Ltmp82:
	.cfi_def_cfa_offset 32
.Ltmp83:
	.cfi_offset 15, 0
	std r5, r4, sp[1]               # 4-byte Folded Spill
.Ltmp84:
	.cfi_offset 4, -24
.Ltmp85:
	.cfi_offset 5, -20
	std r7, r6, sp[2]               # 4-byte Folded Spill
.Ltmp86:
	.cfi_offset 6, -16
.Ltmp87:
	.cfi_offset 7, -12
	stw r8, sp[6]                   # 4-byte Folded Spill
.Ltmp88:
	.cfi_offset 8, -8
	#DEBUG_VALUE: _i.i2c_master_async_if._chan.write:dest <- R0
	#DEBUG_VALUE: _i.i2c_master_async_if._chan.write:param1 <- R1
	#DEBUG_VALUE: _i.i2c_master_async_if._chan.write:param2 <- R2
	#DEBUG_VALUE: _i.i2c_master_async_if._chan.write:param3 <- R3
	#DEBUG_VALUE: _i.i2c_master_async_if._chan.write:param4 <- [SP+36]
	mov r4, r3
	#DEBUG_VALUE: _i.i2c_master_async_if._chan.write:param3 <- R4
	mov r5, r2
	#DEBUG_VALUE: _i.i2c_master_async_if._chan.write:param2 <- R5
	mov r6, r1
	#DEBUG_VALUE: _i.i2c_master_async_if._chan.write:param1 <- R6
	ldw r8, sp[9]
	getr r7, 2
	setd res[r7], r0
	out res[r7], r7
	outct res[r7], 2
	ldc r1, 0
	mov r0, r7
	bl __interface_wait_and_yield
	chkct res[r7], 1
	outt res[r7], r6
	stw r5, sp[1]
	out res[r7], r4
	out res[r7], r8
	outct res[r7], 2
	ldaw r1, sp[1]
	mov r0, r7
	bl __interface_client_call
	chkct res[r7], 1
	freer res[r7]
	ldw r8, sp[6]                   # 4-byte Folded Reload
	ldd r7, r6, sp[2]               # 4-byte Folded Reload
	ldd r5, r4, sp[1]               # 4-byte Folded Reload
	retsp 8
	# RETURN_REG_HOLDER
	.cc_bottom _i.i2c_master_async_if._chan.write.function
	.set	_i.i2c_master_async_if._chan.write.nstackwords,((_i.i2c_master_async_if._client_call_y.max.nstackwords $M ($D __interface_wait_and_yield.nstackwords ? __interface_wait_and_yield.nstackwords $: _i.i2c_master_async_if._client_call_y.max.nstackwords) $M __interface_client_call.nstackwords) + 8)
	.globl	_i.i2c_master_async_if._chan.write.nstackwords
	.weak	_i.i2c_master_async_if._chan.write.nstackwords
	.set	_i.i2c_master_async_if._chan.write.maxcores,__interface_client_call.maxcores $M ($D __interface_wait_and_yield.maxcores ? __interface_wait_and_yield.maxcores $: _i.i2c_master_async_if._client_call_y.max.maxcores) $M 1
	.globl	_i.i2c_master_async_if._chan.write.maxcores
	.weak	_i.i2c_master_async_if._chan.write.maxcores
	.set	_i.i2c_master_async_if._chan.write.maxtimers,__interface_client_call.maxtimers $M ($D __interface_wait_and_yield.maxtimers ? __interface_wait_and_yield.maxtimers $: _i.i2c_master_async_if._client_call_y.max.maxtimers) $M 0
	.globl	_i.i2c_master_async_if._chan.write.maxtimers
	.weak	_i.i2c_master_async_if._chan.write.maxtimers
	.set	_i.i2c_master_async_if._chan.write.maxchanends,(1 + __interface_client_call.maxchanends) $M (1 + ($D __interface_wait_and_yield.maxchanends ? __interface_wait_and_yield.maxchanends $: _i.i2c_master_async_if._client_call_y.max.maxchanends)) $M 1
	.globl	_i.i2c_master_async_if._chan.write.maxchanends
	.weak	_i.i2c_master_async_if._chan.write.maxchanends
.Ltmp89:
	.size	_i.i2c_master_async_if._chan.write, .Ltmp89-_i.i2c_master_async_if._chan.write
	.cfi_endproc

	.weak	_i.i2c_master_async_if._chan_yield.shutdown
	.align	4
	.type	_i.i2c_master_async_if._chan_yield.shutdown,@function
	.cc_top _i.i2c_master_async_if._chan_yield.shutdown.function,_i.i2c_master_async_if._chan_yield.shutdown
_i.i2c_master_async_if._chan_yield.shutdown: # @_i.i2c_master_async_if._chan_yield.shutdown
	.cfi_startproc
	.issue_mode single
# BB#0:                                 # %allocas
	ENTSP_lu6 4
.Ltmp90:
	.cfi_def_cfa_offset 16
.Ltmp91:
	.cfi_offset 15, 0
	std r5, r4, sp[1]               # 4-byte Folded Spill
.Ltmp92:
	.cfi_offset 4, -8
.Ltmp93:
	.cfi_offset 5, -4
	#DEBUG_VALUE: _i.i2c_master_async_if._chan_yield.shutdown:s <- R0
	ldw r1, r0[0]
	getr r4, 2
	setd res[r4], r1
	add r1, r4, 5
	out res[r4], r1
	outct res[r4], 2
	ldw r5, r0[1]
	mov r0, r4
	mov r1, r5
	bl __interface_wait_and_yield
	ldc r1, 0
	mov r0, r4
	mov r2, r5
	bl __interface_client_call_y
	chkct res[r4], 1
	freer res[r4]
	ldd r5, r4, sp[1]               # 4-byte Folded Reload
	retsp 4
	# RETURN_REG_HOLDER
	.cc_bottom _i.i2c_master_async_if._chan_yield.shutdown.function
	.set	_i.i2c_master_async_if._chan_yield.shutdown.nstackwords,((($D __interface_wait_and_yield.nstackwords ? __interface_wait_and_yield.nstackwords $: _i.i2c_master_async_if._client_call_y.max.nstackwords) $M _i.i2c_master_async_if._client_call_y.max.nstackwords $M ($D __interface_client_call_y.nstackwords ? __interface_client_call_y.nstackwords $: _i.i2c_master_async_if._client_call_y.max.nstackwords)) + 4)
	.globl	_i.i2c_master_async_if._chan_yield.shutdown.nstackwords
	.weak	_i.i2c_master_async_if._chan_yield.shutdown.nstackwords
	.set	_i.i2c_master_async_if._chan_yield.shutdown.maxcores,($D __interface_client_call_y.maxcores ? __interface_client_call_y.maxcores $: _i.i2c_master_async_if._client_call_y.max.maxcores) $M ($D __interface_wait_and_yield.maxcores ? __interface_wait_and_yield.maxcores $: _i.i2c_master_async_if._client_call_y.max.maxcores) $M 1
	.globl	_i.i2c_master_async_if._chan_yield.shutdown.maxcores
	.weak	_i.i2c_master_async_if._chan_yield.shutdown.maxcores
	.set	_i.i2c_master_async_if._chan_yield.shutdown.maxtimers,($D __interface_client_call_y.maxtimers ? __interface_client_call_y.maxtimers $: _i.i2c_master_async_if._client_call_y.max.maxtimers) $M ($D __interface_wait_and_yield.maxtimers ? __interface_wait_and_yield.maxtimers $: _i.i2c_master_async_if._client_call_y.max.maxtimers) $M 0
	.globl	_i.i2c_master_async_if._chan_yield.shutdown.maxtimers
	.weak	_i.i2c_master_async_if._chan_yield.shutdown.maxtimers
	.set	_i.i2c_master_async_if._chan_yield.shutdown.maxchanends,(1 + ($D __interface_client_call_y.maxchanends ? __interface_client_call_y.maxchanends $: _i.i2c_master_async_if._client_call_y.max.maxchanends)) $M (1 + ($D __interface_wait_and_yield.maxchanends ? __interface_wait_and_yield.maxchanends $: _i.i2c_master_async_if._client_call_y.max.maxchanends)) $M 1
	.globl	_i.i2c_master_async_if._chan_yield.shutdown.maxchanends
	.weak	_i.i2c_master_async_if._chan_yield.shutdown.maxchanends
.Ltmp94:
	.size	_i.i2c_master_async_if._chan_yield.shutdown, .Ltmp94-_i.i2c_master_async_if._chan_yield.shutdown
	.cfi_endproc

	.weak	_i.i2c_master_async_if._chan_yield.send_stop_bit
	.align	4
	.type	_i.i2c_master_async_if._chan_yield.send_stop_bit,@function
	.cc_top _i.i2c_master_async_if._chan_yield.send_stop_bit.function,_i.i2c_master_async_if._chan_yield.send_stop_bit
_i.i2c_master_async_if._chan_yield.send_stop_bit: # @_i.i2c_master_async_if._chan_yield.send_stop_bit
	.cfi_startproc
	.issue_mode single
# BB#0:                                 # %allocas
	ENTSP_lu6 4
.Ltmp95:
	.cfi_def_cfa_offset 16
.Ltmp96:
	.cfi_offset 15, 0
	std r5, r4, sp[1]               # 4-byte Folded Spill
.Ltmp97:
	.cfi_offset 4, -8
.Ltmp98:
	.cfi_offset 5, -4
	#DEBUG_VALUE: _i.i2c_master_async_if._chan_yield.send_stop_bit:s <- R0
	ldw r1, r0[0]
	getr r4, 2
	setd res[r4], r1
	add r1, r4, 4
	out res[r4], r1
	outct res[r4], 2
	ldw r5, r0[1]
	mov r0, r4
	mov r1, r5
	bl __interface_wait_and_yield
	ldc r1, 0
	mov r0, r4
	mov r2, r5
	bl __interface_client_call_y
	chkct res[r4], 1
	freer res[r4]
	ldd r5, r4, sp[1]               # 4-byte Folded Reload
	retsp 4
	# RETURN_REG_HOLDER
	.cc_bottom _i.i2c_master_async_if._chan_yield.send_stop_bit.function
	.set	_i.i2c_master_async_if._chan_yield.send_stop_bit.nstackwords,((($D __interface_wait_and_yield.nstackwords ? __interface_wait_and_yield.nstackwords $: _i.i2c_master_async_if._client_call_y.max.nstackwords) $M _i.i2c_master_async_if._client_call_y.max.nstackwords $M ($D __interface_client_call_y.nstackwords ? __interface_client_call_y.nstackwords $: _i.i2c_master_async_if._client_call_y.max.nstackwords)) + 4)
	.globl	_i.i2c_master_async_if._chan_yield.send_stop_bit.nstackwords
	.weak	_i.i2c_master_async_if._chan_yield.send_stop_bit.nstackwords
	.set	_i.i2c_master_async_if._chan_yield.send_stop_bit.maxcores,($D __interface_client_call_y.maxcores ? __interface_client_call_y.maxcores $: _i.i2c_master_async_if._client_call_y.max.maxcores) $M ($D __interface_wait_and_yield.maxcores ? __interface_wait_and_yield.maxcores $: _i.i2c_master_async_if._client_call_y.max.maxcores) $M 1
	.globl	_i.i2c_master_async_if._chan_yield.send_stop_bit.maxcores
	.weak	_i.i2c_master_async_if._chan_yield.send_stop_bit.maxcores
	.set	_i.i2c_master_async_if._chan_yield.send_stop_bit.maxtimers,($D __interface_client_call_y.maxtimers ? __interface_client_call_y.maxtimers $: _i.i2c_master_async_if._client_call_y.max.maxtimers) $M ($D __interface_wait_and_yield.maxtimers ? __interface_wait_and_yield.maxtimers $: _i.i2c_master_async_if._client_call_y.max.maxtimers) $M 0
	.globl	_i.i2c_master_async_if._chan_yield.send_stop_bit.maxtimers
	.weak	_i.i2c_master_async_if._chan_yield.send_stop_bit.maxtimers
	.set	_i.i2c_master_async_if._chan_yield.send_stop_bit.maxchanends,(1 + ($D __interface_client_call_y.maxchanends ? __interface_client_call_y.maxchanends $: _i.i2c_master_async_if._client_call_y.max.maxchanends)) $M (1 + ($D __interface_wait_and_yield.maxchanends ? __interface_wait_and_yield.maxchanends $: _i.i2c_master_async_if._client_call_y.max.maxchanends)) $M 1
	.globl	_i.i2c_master_async_if._chan_yield.send_stop_bit.maxchanends
	.weak	_i.i2c_master_async_if._chan_yield.send_stop_bit.maxchanends
.Ltmp99:
	.size	_i.i2c_master_async_if._chan_yield.send_stop_bit, .Ltmp99-_i.i2c_master_async_if._chan_yield.send_stop_bit
	.cfi_endproc

	.weak	_i.i2c_master_async_if._chan_yield.get_read_data
	.align	4
	.type	_i.i2c_master_async_if._chan_yield.get_read_data,@function
	.cc_top _i.i2c_master_async_if._chan_yield.get_read_data.function,_i.i2c_master_async_if._chan_yield.get_read_data
_i.i2c_master_async_if._chan_yield.get_read_data: # @_i.i2c_master_async_if._chan_yield.get_read_data
	.cfi_startproc
	.issue_mode single
# BB#0:                                 # %allocas
	ENTSP_lu6 8
.Ltmp100:
	.cfi_def_cfa_offset 32
.Ltmp101:
	.cfi_offset 15, 0
	std r5, r4, sp[1]               # 4-byte Folded Spill
.Ltmp102:
	.cfi_offset 4, -24
.Ltmp103:
	.cfi_offset 5, -20
	std r7, r6, sp[2]               # 4-byte Folded Spill
.Ltmp104:
	.cfi_offset 6, -16
.Ltmp105:
	.cfi_offset 7, -12
	stw r8, sp[6]                   # 4-byte Folded Spill
.Ltmp106:
	.cfi_offset 8, -8
	#DEBUG_VALUE: _i.i2c_master_async_if._chan_yield.get_read_data:s <- R0
	#DEBUG_VALUE: _i.i2c_master_async_if._chan_yield.get_read_data:clientNotifyFlag <- R1
	#DEBUG_VALUE: _i.i2c_master_async_if._chan_yield.get_read_data:param2 <- R2
	#DEBUG_VALUE: _i.i2c_master_async_if._chan_yield.get_read_data:param3 <- R3
	mov r5, r3
	#DEBUG_VALUE: _i.i2c_master_async_if._chan_yield.get_read_data:param3 <- R5
	mov r6, r2
	#DEBUG_VALUE: _i.i2c_master_async_if._chan_yield.get_read_data:param2 <- R6
	mov r7, r1
	#DEBUG_VALUE: _i.i2c_master_async_if._chan_yield.get_read_data:clientNotifyFlag <- R7
	ldw r1, r0[0]
	getr r4, 2
	setd res[r4], r1
	add r1, r4, 3
	out res[r4], r1
	outct res[r4], 2
	ldw r8, r0[1]
	mov r0, r4
	mov r1, r8
	bl __interface_wait_and_yield
	chkct res[r4], 1
	out res[r4], r7
	stw r6, sp[1]
	out res[r4], r5
	outct res[r4], 2
	ldaw r1, sp[1]
	mov r0, r4
	mov r2, r8
	bl __interface_client_call_y
	in r0, res[r4]
	chkct res[r4], 1
	freer res[r4]
	ldw r8, sp[6]                   # 4-byte Folded Reload
	ldd r7, r6, sp[2]               # 4-byte Folded Reload
	ldd r5, r4, sp[1]               # 4-byte Folded Reload
	retsp 8
	# RETURN_REG_HOLDER
	.cc_bottom _i.i2c_master_async_if._chan_yield.get_read_data.function
	.set	_i.i2c_master_async_if._chan_yield.get_read_data.nstackwords,((($D __interface_wait_and_yield.nstackwords ? __interface_wait_and_yield.nstackwords $: _i.i2c_master_async_if._client_call_y.max.nstackwords) $M _i.i2c_master_async_if._client_call_y.max.nstackwords $M ($D __interface_client_call_y.nstackwords ? __interface_client_call_y.nstackwords $: _i.i2c_master_async_if._client_call_y.max.nstackwords)) + 8)
	.globl	_i.i2c_master_async_if._chan_yield.get_read_data.nstackwords
	.weak	_i.i2c_master_async_if._chan_yield.get_read_data.nstackwords
	.set	_i.i2c_master_async_if._chan_yield.get_read_data.maxcores,($D __interface_client_call_y.maxcores ? __interface_client_call_y.maxcores $: _i.i2c_master_async_if._client_call_y.max.maxcores) $M ($D __interface_wait_and_yield.maxcores ? __interface_wait_and_yield.maxcores $: _i.i2c_master_async_if._client_call_y.max.maxcores) $M 1
	.globl	_i.i2c_master_async_if._chan_yield.get_read_data.maxcores
	.weak	_i.i2c_master_async_if._chan_yield.get_read_data.maxcores
	.set	_i.i2c_master_async_if._chan_yield.get_read_data.maxtimers,($D __interface_client_call_y.maxtimers ? __interface_client_call_y.maxtimers $: _i.i2c_master_async_if._client_call_y.max.maxtimers) $M ($D __interface_wait_and_yield.maxtimers ? __interface_wait_and_yield.maxtimers $: _i.i2c_master_async_if._client_call_y.max.maxtimers) $M 0
	.globl	_i.i2c_master_async_if._chan_yield.get_read_data.maxtimers
	.weak	_i.i2c_master_async_if._chan_yield.get_read_data.maxtimers
	.set	_i.i2c_master_async_if._chan_yield.get_read_data.maxchanends,(1 + ($D __interface_client_call_y.maxchanends ? __interface_client_call_y.maxchanends $: _i.i2c_master_async_if._client_call_y.max.maxchanends)) $M (1 + ($D __interface_wait_and_yield.maxchanends ? __interface_wait_and_yield.maxchanends $: _i.i2c_master_async_if._client_call_y.max.maxchanends)) $M 1
	.globl	_i.i2c_master_async_if._chan_yield.get_read_data.maxchanends
	.weak	_i.i2c_master_async_if._chan_yield.get_read_data.maxchanends
.Ltmp107:
	.size	_i.i2c_master_async_if._chan_yield.get_read_data, .Ltmp107-_i.i2c_master_async_if._chan_yield.get_read_data
	.cfi_endproc

	.weak	_i.i2c_master_async_if._chan_yield.get_write_result
	.align	4
	.type	_i.i2c_master_async_if._chan_yield.get_write_result,@function
	.cc_top _i.i2c_master_async_if._chan_yield.get_write_result.function,_i.i2c_master_async_if._chan_yield.get_write_result
_i.i2c_master_async_if._chan_yield.get_write_result: # @_i.i2c_master_async_if._chan_yield.get_write_result
	.cfi_startproc
	.issue_mode single
# BB#0:                                 # %allocas
	ENTSP_lu6 6
.Ltmp108:
	.cfi_def_cfa_offset 24
.Ltmp109:
	.cfi_offset 15, 0
	std r5, r4, sp[1]               # 4-byte Folded Spill
.Ltmp110:
	.cfi_offset 4, -16
.Ltmp111:
	.cfi_offset 5, -12
	std r7, r6, sp[2]               # 4-byte Folded Spill
.Ltmp112:
	.cfi_offset 6, -8
.Ltmp113:
	.cfi_offset 7, -4
	#DEBUG_VALUE: _i.i2c_master_async_if._chan_yield.get_write_result:s <- R0
	#DEBUG_VALUE: _i.i2c_master_async_if._chan_yield.get_write_result:clientNotifyFlag <- R1
	#DEBUG_VALUE: _i.i2c_master_async_if._chan_yield.get_write_result:param2 <- R2
	mov r4, r2
	#DEBUG_VALUE: _i.i2c_master_async_if._chan_yield.get_write_result:param2 <- R4
	mov r6, r1
	#DEBUG_VALUE: _i.i2c_master_async_if._chan_yield.get_write_result:clientNotifyFlag <- R6
	ldw r1, r0[0]
	getr r5, 2
	setd res[r5], r1
	add r1, r5, 2
	out res[r5], r1
	outct res[r5], 2
	ldw r7, r0[1]
	mov r0, r5
	mov r1, r7
	bl __interface_wait_and_yield
	chkct res[r5], 1
	out res[r5], r6
	ldw r0, r4[0]
	out res[r5], r0
	outct res[r5], 2
	ldc r1, 0
	mov r0, r5
	mov r2, r7
	bl __interface_client_call_y
	in r0, res[r5]
	stw r0, r4[0]
	in r0, res[r5]
	chkct res[r5], 1
	freer res[r5]
	ldd r7, r6, sp[2]               # 4-byte Folded Reload
	ldd r5, r4, sp[1]               # 4-byte Folded Reload
	retsp 6
	# RETURN_REG_HOLDER
	.cc_bottom _i.i2c_master_async_if._chan_yield.get_write_result.function
	.set	_i.i2c_master_async_if._chan_yield.get_write_result.nstackwords,((($D __interface_wait_and_yield.nstackwords ? __interface_wait_and_yield.nstackwords $: _i.i2c_master_async_if._client_call_y.max.nstackwords) $M _i.i2c_master_async_if._client_call_y.max.nstackwords $M ($D __interface_client_call_y.nstackwords ? __interface_client_call_y.nstackwords $: _i.i2c_master_async_if._client_call_y.max.nstackwords)) + 6)
	.globl	_i.i2c_master_async_if._chan_yield.get_write_result.nstackwords
	.weak	_i.i2c_master_async_if._chan_yield.get_write_result.nstackwords
	.set	_i.i2c_master_async_if._chan_yield.get_write_result.maxcores,($D __interface_client_call_y.maxcores ? __interface_client_call_y.maxcores $: _i.i2c_master_async_if._client_call_y.max.maxcores) $M ($D __interface_wait_and_yield.maxcores ? __interface_wait_and_yield.maxcores $: _i.i2c_master_async_if._client_call_y.max.maxcores) $M 1
	.globl	_i.i2c_master_async_if._chan_yield.get_write_result.maxcores
	.weak	_i.i2c_master_async_if._chan_yield.get_write_result.maxcores
	.set	_i.i2c_master_async_if._chan_yield.get_write_result.maxtimers,($D __interface_client_call_y.maxtimers ? __interface_client_call_y.maxtimers $: _i.i2c_master_async_if._client_call_y.max.maxtimers) $M ($D __interface_wait_and_yield.maxtimers ? __interface_wait_and_yield.maxtimers $: _i.i2c_master_async_if._client_call_y.max.maxtimers) $M 0
	.globl	_i.i2c_master_async_if._chan_yield.get_write_result.maxtimers
	.weak	_i.i2c_master_async_if._chan_yield.get_write_result.maxtimers
	.set	_i.i2c_master_async_if._chan_yield.get_write_result.maxchanends,(1 + ($D __interface_client_call_y.maxchanends ? __interface_client_call_y.maxchanends $: _i.i2c_master_async_if._client_call_y.max.maxchanends)) $M (1 + ($D __interface_wait_and_yield.maxchanends ? __interface_wait_and_yield.maxchanends $: _i.i2c_master_async_if._client_call_y.max.maxchanends)) $M 1
	.globl	_i.i2c_master_async_if._chan_yield.get_write_result.maxchanends
	.weak	_i.i2c_master_async_if._chan_yield.get_write_result.maxchanends
.Ltmp114:
	.size	_i.i2c_master_async_if._chan_yield.get_write_result, .Ltmp114-_i.i2c_master_async_if._chan_yield.get_write_result
	.cfi_endproc

	.weak	_i.i2c_master_async_if._chan_yield.read
	.align	4
	.type	_i.i2c_master_async_if._chan_yield.read,@function
	.cc_top _i.i2c_master_async_if._chan_yield.read.function,_i.i2c_master_async_if._chan_yield.read
_i.i2c_master_async_if._chan_yield.read: # @_i.i2c_master_async_if._chan_yield.read
	.cfi_startproc
	.issue_mode single
# BB#0:                                 # %allocas
	ENTSP_lu6 8
.Ltmp115:
	.cfi_def_cfa_offset 32
.Ltmp116:
	.cfi_offset 15, 0
	std r5, r4, sp[1]               # 4-byte Folded Spill
.Ltmp117:
	.cfi_offset 4, -24
.Ltmp118:
	.cfi_offset 5, -20
	std r7, r6, sp[2]               # 4-byte Folded Spill
.Ltmp119:
	.cfi_offset 6, -16
.Ltmp120:
	.cfi_offset 7, -12
	stw r8, sp[6]                   # 4-byte Folded Spill
.Ltmp121:
	.cfi_offset 8, -8
	#DEBUG_VALUE: _i.i2c_master_async_if._chan_yield.read:s <- R0
	#DEBUG_VALUE: _i.i2c_master_async_if._chan_yield.read:param1 <- R1
	#DEBUG_VALUE: _i.i2c_master_async_if._chan_yield.read:param2 <- R2
	#DEBUG_VALUE: _i.i2c_master_async_if._chan_yield.read:param3 <- R3
	mov r4, r3
	#DEBUG_VALUE: _i.i2c_master_async_if._chan_yield.read:param3 <- R4
	mov r5, r2
	#DEBUG_VALUE: _i.i2c_master_async_if._chan_yield.read:param2 <- R5
	mov r6, r1
	#DEBUG_VALUE: _i.i2c_master_async_if._chan_yield.read:param1 <- R6
	ldw r1, r0[0]
	getr r7, 2
	setd res[r7], r1
	add r1, r7, 1
	out res[r7], r1
	outct res[r7], 2
	ldw r8, r0[1]
	mov r0, r7
	mov r1, r8
	bl __interface_wait_and_yield
	chkct res[r7], 1
	outt res[r7], r6
	out res[r7], r5
	out res[r7], r4
	outct res[r7], 2
	ldc r1, 0
	mov r0, r7
	mov r2, r8
	bl __interface_client_call_y
	chkct res[r7], 1
	freer res[r7]
	ldw r8, sp[6]                   # 4-byte Folded Reload
	ldd r7, r6, sp[2]               # 4-byte Folded Reload
	ldd r5, r4, sp[1]               # 4-byte Folded Reload
	retsp 8
	# RETURN_REG_HOLDER
	.cc_bottom _i.i2c_master_async_if._chan_yield.read.function
	.set	_i.i2c_master_async_if._chan_yield.read.nstackwords,((($D __interface_wait_and_yield.nstackwords ? __interface_wait_and_yield.nstackwords $: _i.i2c_master_async_if._client_call_y.max.nstackwords) $M _i.i2c_master_async_if._client_call_y.max.nstackwords $M ($D __interface_client_call_y.nstackwords ? __interface_client_call_y.nstackwords $: _i.i2c_master_async_if._client_call_y.max.nstackwords)) + 8)
	.globl	_i.i2c_master_async_if._chan_yield.read.nstackwords
	.weak	_i.i2c_master_async_if._chan_yield.read.nstackwords
	.set	_i.i2c_master_async_if._chan_yield.read.maxcores,($D __interface_client_call_y.maxcores ? __interface_client_call_y.maxcores $: _i.i2c_master_async_if._client_call_y.max.maxcores) $M ($D __interface_wait_and_yield.maxcores ? __interface_wait_and_yield.maxcores $: _i.i2c_master_async_if._client_call_y.max.maxcores) $M 1
	.globl	_i.i2c_master_async_if._chan_yield.read.maxcores
	.weak	_i.i2c_master_async_if._chan_yield.read.maxcores
	.set	_i.i2c_master_async_if._chan_yield.read.maxtimers,($D __interface_client_call_y.maxtimers ? __interface_client_call_y.maxtimers $: _i.i2c_master_async_if._client_call_y.max.maxtimers) $M ($D __interface_wait_and_yield.maxtimers ? __interface_wait_and_yield.maxtimers $: _i.i2c_master_async_if._client_call_y.max.maxtimers) $M 0
	.globl	_i.i2c_master_async_if._chan_yield.read.maxtimers
	.weak	_i.i2c_master_async_if._chan_yield.read.maxtimers
	.set	_i.i2c_master_async_if._chan_yield.read.maxchanends,(1 + ($D __interface_client_call_y.maxchanends ? __interface_client_call_y.maxchanends $: _i.i2c_master_async_if._client_call_y.max.maxchanends)) $M (1 + ($D __interface_wait_and_yield.maxchanends ? __interface_wait_and_yield.maxchanends $: _i.i2c_master_async_if._client_call_y.max.maxchanends)) $M 1
	.globl	_i.i2c_master_async_if._chan_yield.read.maxchanends
	.weak	_i.i2c_master_async_if._chan_yield.read.maxchanends
.Ltmp122:
	.size	_i.i2c_master_async_if._chan_yield.read, .Ltmp122-_i.i2c_master_async_if._chan_yield.read
	.cfi_endproc

	.weak	_i.i2c_master_async_if._chan_yield.write
	.align	4
	.type	_i.i2c_master_async_if._chan_yield.write,@function
	.cc_top _i.i2c_master_async_if._chan_yield.write.function,_i.i2c_master_async_if._chan_yield.write
_i.i2c_master_async_if._chan_yield.write: # @_i.i2c_master_async_if._chan_yield.write
	.cfi_startproc
	.issue_mode single
# BB#0:                                 # %allocas
	ENTSP_lu6 8
.Ltmp123:
	.cfi_def_cfa_offset 32
.Ltmp124:
	.cfi_offset 15, 0
	std r5, r4, sp[1]               # 4-byte Folded Spill
.Ltmp125:
	.cfi_offset 4, -24
.Ltmp126:
	.cfi_offset 5, -20
	std r7, r6, sp[2]               # 4-byte Folded Spill
.Ltmp127:
	.cfi_offset 6, -16
.Ltmp128:
	.cfi_offset 7, -12
	std r9, r8, sp[3]               # 4-byte Folded Spill
.Ltmp129:
	.cfi_offset 8, -8
.Ltmp130:
	.cfi_offset 9, -4
	#DEBUG_VALUE: _i.i2c_master_async_if._chan_yield.write:s <- R0
	#DEBUG_VALUE: _i.i2c_master_async_if._chan_yield.write:param1 <- R1
	#DEBUG_VALUE: _i.i2c_master_async_if._chan_yield.write:param2 <- R2
	#DEBUG_VALUE: _i.i2c_master_async_if._chan_yield.write:param3 <- R3
	#DEBUG_VALUE: _i.i2c_master_async_if._chan_yield.write:param4 <- [SP+36]
	mov r4, r3
	#DEBUG_VALUE: _i.i2c_master_async_if._chan_yield.write:param3 <- R4
	mov r5, r2
	#DEBUG_VALUE: _i.i2c_master_async_if._chan_yield.write:param2 <- R5
	mov r6, r1
	#DEBUG_VALUE: _i.i2c_master_async_if._chan_yield.write:param1 <- R6
	ldw r9, sp[9]
	ldw r1, r0[0]
	getr r7, 2
	setd res[r7], r1
	out res[r7], r7
	outct res[r7], 2
	ldw r8, r0[1]
	mov r0, r7
	mov r1, r8
	bl __interface_wait_and_yield
	chkct res[r7], 1
	outt res[r7], r6
	stw r5, sp[1]
	out res[r7], r4
	out res[r7], r9
	outct res[r7], 2
	ldaw r1, sp[1]
	mov r0, r7
	mov r2, r8
	bl __interface_client_call_y
	chkct res[r7], 1
	freer res[r7]
	ldd r9, r8, sp[3]               # 4-byte Folded Reload
	ldd r7, r6, sp[2]               # 4-byte Folded Reload
	ldd r5, r4, sp[1]               # 4-byte Folded Reload
	retsp 8
	# RETURN_REG_HOLDER
	.cc_bottom _i.i2c_master_async_if._chan_yield.write.function
	.set	_i.i2c_master_async_if._chan_yield.write.nstackwords,((($D __interface_wait_and_yield.nstackwords ? __interface_wait_and_yield.nstackwords $: _i.i2c_master_async_if._client_call_y.max.nstackwords) $M _i.i2c_master_async_if._client_call_y.max.nstackwords $M ($D __interface_client_call_y.nstackwords ? __interface_client_call_y.nstackwords $: _i.i2c_master_async_if._client_call_y.max.nstackwords)) + 8)
	.globl	_i.i2c_master_async_if._chan_yield.write.nstackwords
	.weak	_i.i2c_master_async_if._chan_yield.write.nstackwords
	.set	_i.i2c_master_async_if._chan_yield.write.maxcores,($D __interface_client_call_y.maxcores ? __interface_client_call_y.maxcores $: _i.i2c_master_async_if._client_call_y.max.maxcores) $M ($D __interface_wait_and_yield.maxcores ? __interface_wait_and_yield.maxcores $: _i.i2c_master_async_if._client_call_y.max.maxcores) $M 1
	.globl	_i.i2c_master_async_if._chan_yield.write.maxcores
	.weak	_i.i2c_master_async_if._chan_yield.write.maxcores
	.set	_i.i2c_master_async_if._chan_yield.write.maxtimers,($D __interface_client_call_y.maxtimers ? __interface_client_call_y.maxtimers $: _i.i2c_master_async_if._client_call_y.max.maxtimers) $M ($D __interface_wait_and_yield.maxtimers ? __interface_wait_and_yield.maxtimers $: _i.i2c_master_async_if._client_call_y.max.maxtimers) $M 0
	.globl	_i.i2c_master_async_if._chan_yield.write.maxtimers
	.weak	_i.i2c_master_async_if._chan_yield.write.maxtimers
	.set	_i.i2c_master_async_if._chan_yield.write.maxchanends,(1 + ($D __interface_client_call_y.maxchanends ? __interface_client_call_y.maxchanends $: _i.i2c_master_async_if._client_call_y.max.maxchanends)) $M (1 + ($D __interface_wait_and_yield.maxchanends ? __interface_wait_and_yield.maxchanends $: _i.i2c_master_async_if._client_call_y.max.maxchanends)) $M 1
	.globl	_i.i2c_master_async_if._chan_yield.write.maxchanends
	.weak	_i.i2c_master_async_if._chan_yield.write.maxchanends
.Ltmp131:
	.size	_i.i2c_master_async_if._chan_yield.write, .Ltmp131-_i.i2c_master_async_if._chan_yield.write
	.cfi_endproc

	.weak	_i.i2c_slave_callback_if._chan.stop_bit
	.align	4
	.type	_i.i2c_slave_callback_if._chan.stop_bit,@function
	.cc_top _i.i2c_slave_callback_if._chan.stop_bit.function,_i.i2c_slave_callback_if._chan.stop_bit
_i.i2c_slave_callback_if._chan.stop_bit: # @_i.i2c_slave_callback_if._chan.stop_bit
	.cfi_startproc
	.issue_mode single
# BB#0:                                 # %allocas
	ENTSP_lu6 4
.Ltmp132:
	.cfi_def_cfa_offset 16
.Ltmp133:
	.cfi_offset 15, 0
	stw r4, sp[2]                   # 4-byte Folded Spill
.Ltmp134:
	.cfi_offset 4, -8
	#DEBUG_VALUE: _i.i2c_slave_callback_if._chan.stop_bit:dest <- R0
	getr r4, 2
	setd res[r4], r0
	add r0, r4, 4
	out res[r4], r0
	outct res[r4], 2
	ldc r1, 0
	mov r0, r4
	bl __interface_wait_and_yield
	in r0, res[r4]
	chkct res[r4], 1
	freer res[r4]
	ldw r4, sp[2]                   # 4-byte Folded Reload
	retsp 4
	# RETURN_REG_HOLDER
	.cc_bottom _i.i2c_slave_callback_if._chan.stop_bit.function
	.set	_i.i2c_slave_callback_if._chan.stop_bit.nstackwords,((_i.i2c_slave_callback_if._client_call_y.max.nstackwords $M ($D __interface_wait_and_yield.nstackwords ? __interface_wait_and_yield.nstackwords $: _i.i2c_slave_callback_if._client_call_y.max.nstackwords)) + 4)
	.globl	_i.i2c_slave_callback_if._chan.stop_bit.nstackwords
	.weak	_i.i2c_slave_callback_if._chan.stop_bit.nstackwords
	.set	_i.i2c_slave_callback_if._chan.stop_bit.maxcores,($D __interface_wait_and_yield.maxcores ? __interface_wait_and_yield.maxcores $: _i.i2c_slave_callback_if._client_call_y.max.maxcores) $M 1
	.globl	_i.i2c_slave_callback_if._chan.stop_bit.maxcores
	.weak	_i.i2c_slave_callback_if._chan.stop_bit.maxcores
	.set	_i.i2c_slave_callback_if._chan.stop_bit.maxtimers,($D __interface_wait_and_yield.maxtimers ? __interface_wait_and_yield.maxtimers $: _i.i2c_slave_callback_if._client_call_y.max.maxtimers) $M 0
	.globl	_i.i2c_slave_callback_if._chan.stop_bit.maxtimers
	.weak	_i.i2c_slave_callback_if._chan.stop_bit.maxtimers
	.set	_i.i2c_slave_callback_if._chan.stop_bit.maxchanends,(1 + ($D __interface_wait_and_yield.maxchanends ? __interface_wait_and_yield.maxchanends $: _i.i2c_slave_callback_if._client_call_y.max.maxchanends)) $M 1
	.globl	_i.i2c_slave_callback_if._chan.stop_bit.maxchanends
	.weak	_i.i2c_slave_callback_if._chan.stop_bit.maxchanends
.Ltmp135:
	.size	_i.i2c_slave_callback_if._chan.stop_bit, .Ltmp135-_i.i2c_slave_callback_if._chan.stop_bit
	.cfi_endproc

	.weak	_i.i2c_slave_callback_if._chan.master_sent_data
	.align	4
	.type	_i.i2c_slave_callback_if._chan.master_sent_data,@function
	.cc_top _i.i2c_slave_callback_if._chan.master_sent_data.function,_i.i2c_slave_callback_if._chan.master_sent_data
_i.i2c_slave_callback_if._chan.master_sent_data: # @_i.i2c_slave_callback_if._chan.master_sent_data
	.cfi_startproc
	.issue_mode single
# BB#0:                                 # %allocas
	ENTSP_lu6 4
.Ltmp136:
	.cfi_def_cfa_offset 16
.Ltmp137:
	.cfi_offset 15, 0
	std r5, r4, sp[1]               # 4-byte Folded Spill
.Ltmp138:
	.cfi_offset 4, -8
.Ltmp139:
	.cfi_offset 5, -4
	#DEBUG_VALUE: _i.i2c_slave_callback_if._chan.master_sent_data:dest <- R0
	#DEBUG_VALUE: _i.i2c_slave_callback_if._chan.master_sent_data:param1 <- R1
	mov r4, r1
	#DEBUG_VALUE: _i.i2c_slave_callback_if._chan.master_sent_data:param1 <- R4
	getr r5, 2
	setd res[r5], r0
	add r0, r5, 3
	out res[r5], r0
	outct res[r5], 2
	ldc r1, 0
	mov r0, r5
	bl __interface_wait_and_yield
	chkct res[r5], 1
	outt res[r5], r4
	outct res[r5], 2
	in r0, res[r5]
	in r0, res[r5]
	chkct res[r5], 1
	freer res[r5]
	ldd r5, r4, sp[1]               # 4-byte Folded Reload
	retsp 4
	# RETURN_REG_HOLDER
	.cc_bottom _i.i2c_slave_callback_if._chan.master_sent_data.function
	.set	_i.i2c_slave_callback_if._chan.master_sent_data.nstackwords,((_i.i2c_slave_callback_if._client_call_y.max.nstackwords $M ($D __interface_wait_and_yield.nstackwords ? __interface_wait_and_yield.nstackwords $: _i.i2c_slave_callback_if._client_call_y.max.nstackwords)) + 4)
	.globl	_i.i2c_slave_callback_if._chan.master_sent_data.nstackwords
	.weak	_i.i2c_slave_callback_if._chan.master_sent_data.nstackwords
	.set	_i.i2c_slave_callback_if._chan.master_sent_data.maxcores,($D __interface_wait_and_yield.maxcores ? __interface_wait_and_yield.maxcores $: _i.i2c_slave_callback_if._client_call_y.max.maxcores) $M 1
	.globl	_i.i2c_slave_callback_if._chan.master_sent_data.maxcores
	.weak	_i.i2c_slave_callback_if._chan.master_sent_data.maxcores
	.set	_i.i2c_slave_callback_if._chan.master_sent_data.maxtimers,($D __interface_wait_and_yield.maxtimers ? __interface_wait_and_yield.maxtimers $: _i.i2c_slave_callback_if._client_call_y.max.maxtimers) $M 0
	.globl	_i.i2c_slave_callback_if._chan.master_sent_data.maxtimers
	.weak	_i.i2c_slave_callback_if._chan.master_sent_data.maxtimers
	.set	_i.i2c_slave_callback_if._chan.master_sent_data.maxchanends,(1 + ($D __interface_wait_and_yield.maxchanends ? __interface_wait_and_yield.maxchanends $: _i.i2c_slave_callback_if._client_call_y.max.maxchanends)) $M 1
	.globl	_i.i2c_slave_callback_if._chan.master_sent_data.maxchanends
	.weak	_i.i2c_slave_callback_if._chan.master_sent_data.maxchanends
.Ltmp140:
	.size	_i.i2c_slave_callback_if._chan.master_sent_data, .Ltmp140-_i.i2c_slave_callback_if._chan.master_sent_data
	.cfi_endproc

	.weak	_i.i2c_slave_callback_if._chan.master_requires_data
	.align	4
	.type	_i.i2c_slave_callback_if._chan.master_requires_data,@function
	.cc_top _i.i2c_slave_callback_if._chan.master_requires_data.function,_i.i2c_slave_callback_if._chan.master_requires_data
_i.i2c_slave_callback_if._chan.master_requires_data: # @_i.i2c_slave_callback_if._chan.master_requires_data
	.cfi_startproc
	.issue_mode single
# BB#0:                                 # %allocas
	ENTSP_lu6 4
.Ltmp141:
	.cfi_def_cfa_offset 16
.Ltmp142:
	.cfi_offset 15, 0
	stw r4, sp[2]                   # 4-byte Folded Spill
.Ltmp143:
	.cfi_offset 4, -8
	#DEBUG_VALUE: _i.i2c_slave_callback_if._chan.master_requires_data:dest <- R0
	getr r4, 2
	setd res[r4], r0
	add r0, r4, 2
	out res[r4], r0
	outct res[r4], 2
	ldc r1, 0
	mov r0, r4
	bl __interface_wait_and_yield
	in r0, res[r4]
	int r0, res[r4]
	chkct res[r4], 1
	freer res[r4]
	ldw r4, sp[2]                   # 4-byte Folded Reload
	retsp 4
	# RETURN_REG_HOLDER
	.cc_bottom _i.i2c_slave_callback_if._chan.master_requires_data.function
	.set	_i.i2c_slave_callback_if._chan.master_requires_data.nstackwords,((_i.i2c_slave_callback_if._client_call_y.max.nstackwords $M ($D __interface_wait_and_yield.nstackwords ? __interface_wait_and_yield.nstackwords $: _i.i2c_slave_callback_if._client_call_y.max.nstackwords)) + 4)
	.globl	_i.i2c_slave_callback_if._chan.master_requires_data.nstackwords
	.weak	_i.i2c_slave_callback_if._chan.master_requires_data.nstackwords
	.set	_i.i2c_slave_callback_if._chan.master_requires_data.maxcores,($D __interface_wait_and_yield.maxcores ? __interface_wait_and_yield.maxcores $: _i.i2c_slave_callback_if._client_call_y.max.maxcores) $M 1
	.globl	_i.i2c_slave_callback_if._chan.master_requires_data.maxcores
	.weak	_i.i2c_slave_callback_if._chan.master_requires_data.maxcores
	.set	_i.i2c_slave_callback_if._chan.master_requires_data.maxtimers,($D __interface_wait_and_yield.maxtimers ? __interface_wait_and_yield.maxtimers $: _i.i2c_slave_callback_if._client_call_y.max.maxtimers) $M 0
	.globl	_i.i2c_slave_callback_if._chan.master_requires_data.maxtimers
	.weak	_i.i2c_slave_callback_if._chan.master_requires_data.maxtimers
	.set	_i.i2c_slave_callback_if._chan.master_requires_data.maxchanends,(1 + ($D __interface_wait_and_yield.maxchanends ? __interface_wait_and_yield.maxchanends $: _i.i2c_slave_callback_if._client_call_y.max.maxchanends)) $M 1
	.globl	_i.i2c_slave_callback_if._chan.master_requires_data.maxchanends
	.weak	_i.i2c_slave_callback_if._chan.master_requires_data.maxchanends
.Ltmp144:
	.size	_i.i2c_slave_callback_if._chan.master_requires_data, .Ltmp144-_i.i2c_slave_callback_if._chan.master_requires_data
	.cfi_endproc

	.weak	_i.i2c_slave_callback_if._chan.ack_write_request
	.align	4
	.type	_i.i2c_slave_callback_if._chan.ack_write_request,@function
	.cc_top _i.i2c_slave_callback_if._chan.ack_write_request.function,_i.i2c_slave_callback_if._chan.ack_write_request
_i.i2c_slave_callback_if._chan.ack_write_request: # @_i.i2c_slave_callback_if._chan.ack_write_request
	.cfi_startproc
	.issue_mode single
# BB#0:                                 # %allocas
	ENTSP_lu6 4
.Ltmp145:
	.cfi_def_cfa_offset 16
.Ltmp146:
	.cfi_offset 15, 0
	stw r4, sp[2]                   # 4-byte Folded Spill
.Ltmp147:
	.cfi_offset 4, -8
	#DEBUG_VALUE: _i.i2c_slave_callback_if._chan.ack_write_request:dest <- R0
	getr r4, 2
	setd res[r4], r0
	add r0, r4, 1
	out res[r4], r0
	outct res[r4], 2
	ldc r1, 0
	mov r0, r4
	bl __interface_wait_and_yield
	in r0, res[r4]
	in r0, res[r4]
	chkct res[r4], 1
	freer res[r4]
	ldw r4, sp[2]                   # 4-byte Folded Reload
	retsp 4
	# RETURN_REG_HOLDER
	.cc_bottom _i.i2c_slave_callback_if._chan.ack_write_request.function
	.set	_i.i2c_slave_callback_if._chan.ack_write_request.nstackwords,((_i.i2c_slave_callback_if._client_call_y.max.nstackwords $M ($D __interface_wait_and_yield.nstackwords ? __interface_wait_and_yield.nstackwords $: _i.i2c_slave_callback_if._client_call_y.max.nstackwords)) + 4)
	.globl	_i.i2c_slave_callback_if._chan.ack_write_request.nstackwords
	.weak	_i.i2c_slave_callback_if._chan.ack_write_request.nstackwords
	.set	_i.i2c_slave_callback_if._chan.ack_write_request.maxcores,($D __interface_wait_and_yield.maxcores ? __interface_wait_and_yield.maxcores $: _i.i2c_slave_callback_if._client_call_y.max.maxcores) $M 1
	.globl	_i.i2c_slave_callback_if._chan.ack_write_request.maxcores
	.weak	_i.i2c_slave_callback_if._chan.ack_write_request.maxcores
	.set	_i.i2c_slave_callback_if._chan.ack_write_request.maxtimers,($D __interface_wait_and_yield.maxtimers ? __interface_wait_and_yield.maxtimers $: _i.i2c_slave_callback_if._client_call_y.max.maxtimers) $M 0
	.globl	_i.i2c_slave_callback_if._chan.ack_write_request.maxtimers
	.weak	_i.i2c_slave_callback_if._chan.ack_write_request.maxtimers
	.set	_i.i2c_slave_callback_if._chan.ack_write_request.maxchanends,(1 + ($D __interface_wait_and_yield.maxchanends ? __interface_wait_and_yield.maxchanends $: _i.i2c_slave_callback_if._client_call_y.max.maxchanends)) $M 1
	.globl	_i.i2c_slave_callback_if._chan.ack_write_request.maxchanends
	.weak	_i.i2c_slave_callback_if._chan.ack_write_request.maxchanends
.Ltmp148:
	.size	_i.i2c_slave_callback_if._chan.ack_write_request, .Ltmp148-_i.i2c_slave_callback_if._chan.ack_write_request
	.cfi_endproc

	.weak	_i.i2c_slave_callback_if._chan.ack_read_request
	.align	4
	.type	_i.i2c_slave_callback_if._chan.ack_read_request,@function
	.cc_top _i.i2c_slave_callback_if._chan.ack_read_request.function,_i.i2c_slave_callback_if._chan.ack_read_request
_i.i2c_slave_callback_if._chan.ack_read_request: # @_i.i2c_slave_callback_if._chan.ack_read_request
	.cfi_startproc
	.issue_mode single
# BB#0:                                 # %allocas
	ENTSP_lu6 4
.Ltmp149:
	.cfi_def_cfa_offset 16
.Ltmp150:
	.cfi_offset 15, 0
	stw r4, sp[2]                   # 4-byte Folded Spill
.Ltmp151:
	.cfi_offset 4, -8
	#DEBUG_VALUE: _i.i2c_slave_callback_if._chan.ack_read_request:dest <- R0
	getr r4, 2
	setd res[r4], r0
	out res[r4], r4
	outct res[r4], 2
	ldc r1, 0
	mov r0, r4
	bl __interface_wait_and_yield
	in r0, res[r4]
	in r0, res[r4]
	chkct res[r4], 1
	freer res[r4]
	ldw r4, sp[2]                   # 4-byte Folded Reload
	retsp 4
	# RETURN_REG_HOLDER
	.cc_bottom _i.i2c_slave_callback_if._chan.ack_read_request.function
	.set	_i.i2c_slave_callback_if._chan.ack_read_request.nstackwords,((_i.i2c_slave_callback_if._client_call_y.max.nstackwords $M ($D __interface_wait_and_yield.nstackwords ? __interface_wait_and_yield.nstackwords $: _i.i2c_slave_callback_if._client_call_y.max.nstackwords)) + 4)
	.globl	_i.i2c_slave_callback_if._chan.ack_read_request.nstackwords
	.weak	_i.i2c_slave_callback_if._chan.ack_read_request.nstackwords
	.set	_i.i2c_slave_callback_if._chan.ack_read_request.maxcores,($D __interface_wait_and_yield.maxcores ? __interface_wait_and_yield.maxcores $: _i.i2c_slave_callback_if._client_call_y.max.maxcores) $M 1
	.globl	_i.i2c_slave_callback_if._chan.ack_read_request.maxcores
	.weak	_i.i2c_slave_callback_if._chan.ack_read_request.maxcores
	.set	_i.i2c_slave_callback_if._chan.ack_read_request.maxtimers,($D __interface_wait_and_yield.maxtimers ? __interface_wait_and_yield.maxtimers $: _i.i2c_slave_callback_if._client_call_y.max.maxtimers) $M 0
	.globl	_i.i2c_slave_callback_if._chan.ack_read_request.maxtimers
	.weak	_i.i2c_slave_callback_if._chan.ack_read_request.maxtimers
	.set	_i.i2c_slave_callback_if._chan.ack_read_request.maxchanends,(1 + ($D __interface_wait_and_yield.maxchanends ? __interface_wait_and_yield.maxchanends $: _i.i2c_slave_callback_if._client_call_y.max.maxchanends)) $M 1
	.globl	_i.i2c_slave_callback_if._chan.ack_read_request.maxchanends
	.weak	_i.i2c_slave_callback_if._chan.ack_read_request.maxchanends
.Ltmp152:
	.size	_i.i2c_slave_callback_if._chan.ack_read_request, .Ltmp152-_i.i2c_slave_callback_if._chan.ack_read_request
	.cfi_endproc

	.weak	_i.i2c_slave_callback_if._chan_yield.stop_bit
	.align	4
	.type	_i.i2c_slave_callback_if._chan_yield.stop_bit,@function
	.cc_top _i.i2c_slave_callback_if._chan_yield.stop_bit.function,_i.i2c_slave_callback_if._chan_yield.stop_bit
_i.i2c_slave_callback_if._chan_yield.stop_bit: # @_i.i2c_slave_callback_if._chan_yield.stop_bit
	.cfi_startproc
	.issue_mode single
# BB#0:                                 # %allocas
	ENTSP_lu6 4
.Ltmp153:
	.cfi_def_cfa_offset 16
.Ltmp154:
	.cfi_offset 15, 0
	std r5, r4, sp[1]               # 4-byte Folded Spill
.Ltmp155:
	.cfi_offset 4, -8
.Ltmp156:
	.cfi_offset 5, -4
	#DEBUG_VALUE: _i.i2c_slave_callback_if._chan_yield.stop_bit:s <- R0
	ldw r1, r0[0]
	getr r4, 2
	setd res[r4], r1
	add r1, r4, 4
	out res[r4], r1
	outct res[r4], 2
	ldw r5, r0[1]
	mov r0, r4
	mov r1, r5
	bl __interface_wait_and_yield
	ldc r1, 0
	mov r0, r4
	mov r2, r5
	bl __interface_client_call_y
	chkct res[r4], 1
	freer res[r4]
	ldd r5, r4, sp[1]               # 4-byte Folded Reload
	retsp 4
	# RETURN_REG_HOLDER
	.cc_bottom _i.i2c_slave_callback_if._chan_yield.stop_bit.function
	.set	_i.i2c_slave_callback_if._chan_yield.stop_bit.nstackwords,((($D __interface_wait_and_yield.nstackwords ? __interface_wait_and_yield.nstackwords $: _i.i2c_slave_callback_if._client_call_y.max.nstackwords) $M _i.i2c_slave_callback_if._client_call_y.max.nstackwords $M ($D __interface_client_call_y.nstackwords ? __interface_client_call_y.nstackwords $: _i.i2c_slave_callback_if._client_call_y.max.nstackwords)) + 4)
	.globl	_i.i2c_slave_callback_if._chan_yield.stop_bit.nstackwords
	.weak	_i.i2c_slave_callback_if._chan_yield.stop_bit.nstackwords
	.set	_i.i2c_slave_callback_if._chan_yield.stop_bit.maxcores,($D __interface_client_call_y.maxcores ? __interface_client_call_y.maxcores $: _i.i2c_slave_callback_if._client_call_y.max.maxcores) $M ($D __interface_wait_and_yield.maxcores ? __interface_wait_and_yield.maxcores $: _i.i2c_slave_callback_if._client_call_y.max.maxcores) $M 1
	.globl	_i.i2c_slave_callback_if._chan_yield.stop_bit.maxcores
	.weak	_i.i2c_slave_callback_if._chan_yield.stop_bit.maxcores
	.set	_i.i2c_slave_callback_if._chan_yield.stop_bit.maxtimers,($D __interface_client_call_y.maxtimers ? __interface_client_call_y.maxtimers $: _i.i2c_slave_callback_if._client_call_y.max.maxtimers) $M ($D __interface_wait_and_yield.maxtimers ? __interface_wait_and_yield.maxtimers $: _i.i2c_slave_callback_if._client_call_y.max.maxtimers) $M 0
	.globl	_i.i2c_slave_callback_if._chan_yield.stop_bit.maxtimers
	.weak	_i.i2c_slave_callback_if._chan_yield.stop_bit.maxtimers
	.set	_i.i2c_slave_callback_if._chan_yield.stop_bit.maxchanends,(1 + ($D __interface_client_call_y.maxchanends ? __interface_client_call_y.maxchanends $: _i.i2c_slave_callback_if._client_call_y.max.maxchanends)) $M (1 + ($D __interface_wait_and_yield.maxchanends ? __interface_wait_and_yield.maxchanends $: _i.i2c_slave_callback_if._client_call_y.max.maxchanends)) $M 1
	.globl	_i.i2c_slave_callback_if._chan_yield.stop_bit.maxchanends
	.weak	_i.i2c_slave_callback_if._chan_yield.stop_bit.maxchanends
.Ltmp157:
	.size	_i.i2c_slave_callback_if._chan_yield.stop_bit, .Ltmp157-_i.i2c_slave_callback_if._chan_yield.stop_bit
	.cfi_endproc

	.weak	_i.i2c_slave_callback_if._chan_yield.master_sent_data
	.align	4
	.type	_i.i2c_slave_callback_if._chan_yield.master_sent_data,@function
	.cc_top _i.i2c_slave_callback_if._chan_yield.master_sent_data.function,_i.i2c_slave_callback_if._chan_yield.master_sent_data
_i.i2c_slave_callback_if._chan_yield.master_sent_data: # @_i.i2c_slave_callback_if._chan_yield.master_sent_data
	.cfi_startproc
	.issue_mode single
# BB#0:                                 # %allocas
	ENTSP_lu6 6
.Ltmp158:
	.cfi_def_cfa_offset 24
.Ltmp159:
	.cfi_offset 15, 0
	std r5, r4, sp[1]               # 4-byte Folded Spill
.Ltmp160:
	.cfi_offset 4, -16
.Ltmp161:
	.cfi_offset 5, -12
	stw r6, sp[4]                   # 4-byte Folded Spill
.Ltmp162:
	.cfi_offset 6, -8
	#DEBUG_VALUE: _i.i2c_slave_callback_if._chan_yield.master_sent_data:s <- R0
	#DEBUG_VALUE: _i.i2c_slave_callback_if._chan_yield.master_sent_data:param1 <- R1
	mov r4, r1
	#DEBUG_VALUE: _i.i2c_slave_callback_if._chan_yield.master_sent_data:param1 <- R4
	ldw r1, r0[0]
	getr r5, 2
	setd res[r5], r1
	add r1, r5, 3
	out res[r5], r1
	outct res[r5], 2
	ldw r6, r0[1]
	mov r0, r5
	mov r1, r6
	bl __interface_wait_and_yield
	chkct res[r5], 1
	outt res[r5], r4
	outct res[r5], 2
	ldc r1, 0
	mov r0, r5
	mov r2, r6
	bl __interface_client_call_y
	in r0, res[r5]
	chkct res[r5], 1
	freer res[r5]
	ldw r6, sp[4]                   # 4-byte Folded Reload
	ldd r5, r4, sp[1]               # 4-byte Folded Reload
	retsp 6
	# RETURN_REG_HOLDER
	.cc_bottom _i.i2c_slave_callback_if._chan_yield.master_sent_data.function
	.set	_i.i2c_slave_callback_if._chan_yield.master_sent_data.nstackwords,((($D __interface_wait_and_yield.nstackwords ? __interface_wait_and_yield.nstackwords $: _i.i2c_slave_callback_if._client_call_y.max.nstackwords) $M _i.i2c_slave_callback_if._client_call_y.max.nstackwords $M ($D __interface_client_call_y.nstackwords ? __interface_client_call_y.nstackwords $: _i.i2c_slave_callback_if._client_call_y.max.nstackwords)) + 6)
	.globl	_i.i2c_slave_callback_if._chan_yield.master_sent_data.nstackwords
	.weak	_i.i2c_slave_callback_if._chan_yield.master_sent_data.nstackwords
	.set	_i.i2c_slave_callback_if._chan_yield.master_sent_data.maxcores,($D __interface_client_call_y.maxcores ? __interface_client_call_y.maxcores $: _i.i2c_slave_callback_if._client_call_y.max.maxcores) $M ($D __interface_wait_and_yield.maxcores ? __interface_wait_and_yield.maxcores $: _i.i2c_slave_callback_if._client_call_y.max.maxcores) $M 1
	.globl	_i.i2c_slave_callback_if._chan_yield.master_sent_data.maxcores
	.weak	_i.i2c_slave_callback_if._chan_yield.master_sent_data.maxcores
	.set	_i.i2c_slave_callback_if._chan_yield.master_sent_data.maxtimers,($D __interface_client_call_y.maxtimers ? __interface_client_call_y.maxtimers $: _i.i2c_slave_callback_if._client_call_y.max.maxtimers) $M ($D __interface_wait_and_yield.maxtimers ? __interface_wait_and_yield.maxtimers $: _i.i2c_slave_callback_if._client_call_y.max.maxtimers) $M 0
	.globl	_i.i2c_slave_callback_if._chan_yield.master_sent_data.maxtimers
	.weak	_i.i2c_slave_callback_if._chan_yield.master_sent_data.maxtimers
	.set	_i.i2c_slave_callback_if._chan_yield.master_sent_data.maxchanends,(1 + ($D __interface_client_call_y.maxchanends ? __interface_client_call_y.maxchanends $: _i.i2c_slave_callback_if._client_call_y.max.maxchanends)) $M (1 + ($D __interface_wait_and_yield.maxchanends ? __interface_wait_and_yield.maxchanends $: _i.i2c_slave_callback_if._client_call_y.max.maxchanends)) $M 1
	.globl	_i.i2c_slave_callback_if._chan_yield.master_sent_data.maxchanends
	.weak	_i.i2c_slave_callback_if._chan_yield.master_sent_data.maxchanends
.Ltmp163:
	.size	_i.i2c_slave_callback_if._chan_yield.master_sent_data, .Ltmp163-_i.i2c_slave_callback_if._chan_yield.master_sent_data
	.cfi_endproc

	.weak	_i.i2c_slave_callback_if._chan_yield.master_requires_data
	.align	4
	.type	_i.i2c_slave_callback_if._chan_yield.master_requires_data,@function
	.cc_top _i.i2c_slave_callback_if._chan_yield.master_requires_data.function,_i.i2c_slave_callback_if._chan_yield.master_requires_data
_i.i2c_slave_callback_if._chan_yield.master_requires_data: # @_i.i2c_slave_callback_if._chan_yield.master_requires_data
	.cfi_startproc
	.issue_mode single
# BB#0:                                 # %allocas
	ENTSP_lu6 4
.Ltmp164:
	.cfi_def_cfa_offset 16
.Ltmp165:
	.cfi_offset 15, 0
	std r5, r4, sp[1]               # 4-byte Folded Spill
.Ltmp166:
	.cfi_offset 4, -8
.Ltmp167:
	.cfi_offset 5, -4
	#DEBUG_VALUE: _i.i2c_slave_callback_if._chan_yield.master_requires_data:s <- R0
	ldw r1, r0[0]
	getr r4, 2
	setd res[r4], r1
	add r1, r4, 2
	out res[r4], r1
	outct res[r4], 2
	ldw r5, r0[1]
	mov r0, r4
	mov r1, r5
	bl __interface_wait_and_yield
	ldc r1, 0
	mov r0, r4
	mov r2, r5
	bl __interface_client_call_y
	int r0, res[r4]
	chkct res[r4], 1
	freer res[r4]
	ldd r5, r4, sp[1]               # 4-byte Folded Reload
	retsp 4
	# RETURN_REG_HOLDER
	.cc_bottom _i.i2c_slave_callback_if._chan_yield.master_requires_data.function
	.set	_i.i2c_slave_callback_if._chan_yield.master_requires_data.nstackwords,((($D __interface_wait_and_yield.nstackwords ? __interface_wait_and_yield.nstackwords $: _i.i2c_slave_callback_if._client_call_y.max.nstackwords) $M _i.i2c_slave_callback_if._client_call_y.max.nstackwords $M ($D __interface_client_call_y.nstackwords ? __interface_client_call_y.nstackwords $: _i.i2c_slave_callback_if._client_call_y.max.nstackwords)) + 4)
	.globl	_i.i2c_slave_callback_if._chan_yield.master_requires_data.nstackwords
	.weak	_i.i2c_slave_callback_if._chan_yield.master_requires_data.nstackwords
	.set	_i.i2c_slave_callback_if._chan_yield.master_requires_data.maxcores,($D __interface_client_call_y.maxcores ? __interface_client_call_y.maxcores $: _i.i2c_slave_callback_if._client_call_y.max.maxcores) $M ($D __interface_wait_and_yield.maxcores ? __interface_wait_and_yield.maxcores $: _i.i2c_slave_callback_if._client_call_y.max.maxcores) $M 1
	.globl	_i.i2c_slave_callback_if._chan_yield.master_requires_data.maxcores
	.weak	_i.i2c_slave_callback_if._chan_yield.master_requires_data.maxcores
	.set	_i.i2c_slave_callback_if._chan_yield.master_requires_data.maxtimers,($D __interface_client_call_y.maxtimers ? __interface_client_call_y.maxtimers $: _i.i2c_slave_callback_if._client_call_y.max.maxtimers) $M ($D __interface_wait_and_yield.maxtimers ? __interface_wait_and_yield.maxtimers $: _i.i2c_slave_callback_if._client_call_y.max.maxtimers) $M 0
	.globl	_i.i2c_slave_callback_if._chan_yield.master_requires_data.maxtimers
	.weak	_i.i2c_slave_callback_if._chan_yield.master_requires_data.maxtimers
	.set	_i.i2c_slave_callback_if._chan_yield.master_requires_data.maxchanends,(1 + ($D __interface_client_call_y.maxchanends ? __interface_client_call_y.maxchanends $: _i.i2c_slave_callback_if._client_call_y.max.maxchanends)) $M (1 + ($D __interface_wait_and_yield.maxchanends ? __interface_wait_and_yield.maxchanends $: _i.i2c_slave_callback_if._client_call_y.max.maxchanends)) $M 1
	.globl	_i.i2c_slave_callback_if._chan_yield.master_requires_data.maxchanends
	.weak	_i.i2c_slave_callback_if._chan_yield.master_requires_data.maxchanends
.Ltmp168:
	.size	_i.i2c_slave_callback_if._chan_yield.master_requires_data, .Ltmp168-_i.i2c_slave_callback_if._chan_yield.master_requires_data
	.cfi_endproc

	.weak	_i.i2c_slave_callback_if._chan_yield.ack_write_request
	.align	4
	.type	_i.i2c_slave_callback_if._chan_yield.ack_write_request,@function
	.cc_top _i.i2c_slave_callback_if._chan_yield.ack_write_request.function,_i.i2c_slave_callback_if._chan_yield.ack_write_request
_i.i2c_slave_callback_if._chan_yield.ack_write_request: # @_i.i2c_slave_callback_if._chan_yield.ack_write_request
	.cfi_startproc
	.issue_mode single
# BB#0:                                 # %allocas
	ENTSP_lu6 4
.Ltmp169:
	.cfi_def_cfa_offset 16
.Ltmp170:
	.cfi_offset 15, 0
	std r5, r4, sp[1]               # 4-byte Folded Spill
.Ltmp171:
	.cfi_offset 4, -8
.Ltmp172:
	.cfi_offset 5, -4
	#DEBUG_VALUE: _i.i2c_slave_callback_if._chan_yield.ack_write_request:s <- R0
	ldw r1, r0[0]
	getr r4, 2
	setd res[r4], r1
	add r1, r4, 1
	out res[r4], r1
	outct res[r4], 2
	ldw r5, r0[1]
	mov r0, r4
	mov r1, r5
	bl __interface_wait_and_yield
	ldc r1, 0
	mov r0, r4
	mov r2, r5
	bl __interface_client_call_y
	in r0, res[r4]
	chkct res[r4], 1
	freer res[r4]
	ldd r5, r4, sp[1]               # 4-byte Folded Reload
	retsp 4
	# RETURN_REG_HOLDER
	.cc_bottom _i.i2c_slave_callback_if._chan_yield.ack_write_request.function
	.set	_i.i2c_slave_callback_if._chan_yield.ack_write_request.nstackwords,((($D __interface_wait_and_yield.nstackwords ? __interface_wait_and_yield.nstackwords $: _i.i2c_slave_callback_if._client_call_y.max.nstackwords) $M _i.i2c_slave_callback_if._client_call_y.max.nstackwords $M ($D __interface_client_call_y.nstackwords ? __interface_client_call_y.nstackwords $: _i.i2c_slave_callback_if._client_call_y.max.nstackwords)) + 4)
	.globl	_i.i2c_slave_callback_if._chan_yield.ack_write_request.nstackwords
	.weak	_i.i2c_slave_callback_if._chan_yield.ack_write_request.nstackwords
	.set	_i.i2c_slave_callback_if._chan_yield.ack_write_request.maxcores,($D __interface_client_call_y.maxcores ? __interface_client_call_y.maxcores $: _i.i2c_slave_callback_if._client_call_y.max.maxcores) $M ($D __interface_wait_and_yield.maxcores ? __interface_wait_and_yield.maxcores $: _i.i2c_slave_callback_if._client_call_y.max.maxcores) $M 1
	.globl	_i.i2c_slave_callback_if._chan_yield.ack_write_request.maxcores
	.weak	_i.i2c_slave_callback_if._chan_yield.ack_write_request.maxcores
	.set	_i.i2c_slave_callback_if._chan_yield.ack_write_request.maxtimers,($D __interface_client_call_y.maxtimers ? __interface_client_call_y.maxtimers $: _i.i2c_slave_callback_if._client_call_y.max.maxtimers) $M ($D __interface_wait_and_yield.maxtimers ? __interface_wait_and_yield.maxtimers $: _i.i2c_slave_callback_if._client_call_y.max.maxtimers) $M 0
	.globl	_i.i2c_slave_callback_if._chan_yield.ack_write_request.maxtimers
	.weak	_i.i2c_slave_callback_if._chan_yield.ack_write_request.maxtimers
	.set	_i.i2c_slave_callback_if._chan_yield.ack_write_request.maxchanends,(1 + ($D __interface_client_call_y.maxchanends ? __interface_client_call_y.maxchanends $: _i.i2c_slave_callback_if._client_call_y.max.maxchanends)) $M (1 + ($D __interface_wait_and_yield.maxchanends ? __interface_wait_and_yield.maxchanends $: _i.i2c_slave_callback_if._client_call_y.max.maxchanends)) $M 1
	.globl	_i.i2c_slave_callback_if._chan_yield.ack_write_request.maxchanends
	.weak	_i.i2c_slave_callback_if._chan_yield.ack_write_request.maxchanends
.Ltmp173:
	.size	_i.i2c_slave_callback_if._chan_yield.ack_write_request, .Ltmp173-_i.i2c_slave_callback_if._chan_yield.ack_write_request
	.cfi_endproc

	.weak	_i.i2c_slave_callback_if._chan_yield.ack_read_request
	.align	4
	.type	_i.i2c_slave_callback_if._chan_yield.ack_read_request,@function
	.cc_top _i.i2c_slave_callback_if._chan_yield.ack_read_request.function,_i.i2c_slave_callback_if._chan_yield.ack_read_request
_i.i2c_slave_callback_if._chan_yield.ack_read_request: # @_i.i2c_slave_callback_if._chan_yield.ack_read_request
	.cfi_startproc
	.issue_mode single
# BB#0:                                 # %allocas
	ENTSP_lu6 4
.Ltmp174:
	.cfi_def_cfa_offset 16
.Ltmp175:
	.cfi_offset 15, 0
	std r5, r4, sp[1]               # 4-byte Folded Spill
.Ltmp176:
	.cfi_offset 4, -8
.Ltmp177:
	.cfi_offset 5, -4
	#DEBUG_VALUE: _i.i2c_slave_callback_if._chan_yield.ack_read_request:s <- R0
	ldw r1, r0[0]
	getr r4, 2
	setd res[r4], r1
	out res[r4], r4
	outct res[r4], 2
	ldw r5, r0[1]
	mov r0, r4
	mov r1, r5
	bl __interface_wait_and_yield
	ldc r1, 0
	mov r0, r4
	mov r2, r5
	bl __interface_client_call_y
	in r0, res[r4]
	chkct res[r4], 1
	freer res[r4]
	ldd r5, r4, sp[1]               # 4-byte Folded Reload
	retsp 4
	# RETURN_REG_HOLDER
	.cc_bottom _i.i2c_slave_callback_if._chan_yield.ack_read_request.function
	.set	_i.i2c_slave_callback_if._chan_yield.ack_read_request.nstackwords,((($D __interface_wait_and_yield.nstackwords ? __interface_wait_and_yield.nstackwords $: _i.i2c_slave_callback_if._client_call_y.max.nstackwords) $M _i.i2c_slave_callback_if._client_call_y.max.nstackwords $M ($D __interface_client_call_y.nstackwords ? __interface_client_call_y.nstackwords $: _i.i2c_slave_callback_if._client_call_y.max.nstackwords)) + 4)
	.globl	_i.i2c_slave_callback_if._chan_yield.ack_read_request.nstackwords
	.weak	_i.i2c_slave_callback_if._chan_yield.ack_read_request.nstackwords
	.set	_i.i2c_slave_callback_if._chan_yield.ack_read_request.maxcores,($D __interface_client_call_y.maxcores ? __interface_client_call_y.maxcores $: _i.i2c_slave_callback_if._client_call_y.max.maxcores) $M ($D __interface_wait_and_yield.maxcores ? __interface_wait_and_yield.maxcores $: _i.i2c_slave_callback_if._client_call_y.max.maxcores) $M 1
	.globl	_i.i2c_slave_callback_if._chan_yield.ack_read_request.maxcores
	.weak	_i.i2c_slave_callback_if._chan_yield.ack_read_request.maxcores
	.set	_i.i2c_slave_callback_if._chan_yield.ack_read_request.maxtimers,($D __interface_client_call_y.maxtimers ? __interface_client_call_y.maxtimers $: _i.i2c_slave_callback_if._client_call_y.max.maxtimers) $M ($D __interface_wait_and_yield.maxtimers ? __interface_wait_and_yield.maxtimers $: _i.i2c_slave_callback_if._client_call_y.max.maxtimers) $M 0
	.globl	_i.i2c_slave_callback_if._chan_yield.ack_read_request.maxtimers
	.weak	_i.i2c_slave_callback_if._chan_yield.ack_read_request.maxtimers
	.set	_i.i2c_slave_callback_if._chan_yield.ack_read_request.maxchanends,(1 + ($D __interface_client_call_y.maxchanends ? __interface_client_call_y.maxchanends $: _i.i2c_slave_callback_if._client_call_y.max.maxchanends)) $M (1 + ($D __interface_wait_and_yield.maxchanends ? __interface_wait_and_yield.maxchanends $: _i.i2c_slave_callback_if._client_call_y.max.maxchanends)) $M 1
	.globl	_i.i2c_slave_callback_if._chan_yield.ack_read_request.maxchanends
	.weak	_i.i2c_slave_callback_if._chan_yield.ack_read_request.maxchanends
.Ltmp178:
	.size	_i.i2c_slave_callback_if._chan_yield.ack_read_request, .Ltmp178-_i.i2c_slave_callback_if._chan_yield.ack_read_request
	.cfi_endproc

	.globl	i2c_slave
	.align	4
	.type	i2c_slave,@function
	.cc_top i2c_slave.function,i2c_slave
i2c_slave:                              # @i2c_slave
.Lfunc_begin30:
	.loc	2 27 0                  # /home/evgeny/git/104/UI-01_sw1_hw1/lib_i2c/src/i2c_slave.xc:27:0
	.cfi_startproc
	.issue_mode single
# BB#0:                                 # %allocas
.Lxtalabel0:
	ENTSP_lu6 20
.Ltmp179:
	.cfi_def_cfa_offset 80
.Ltmp180:
	.cfi_offset 15, 0
	std r5, r4, sp[6]               # 4-byte Folded Spill
.Ltmp181:
	.cfi_offset 4, -32
.Ltmp182:
	.cfi_offset 5, -28
	std r7, r6, sp[7]               # 4-byte Folded Spill
.Ltmp183:
	.cfi_offset 6, -24
.Ltmp184:
	.cfi_offset 7, -20
	std r9, r8, sp[8]               # 4-byte Folded Spill
.Ltmp185:
	.cfi_offset 8, -16
.Ltmp186:
	.cfi_offset 9, -12
	stw r10, sp[18]                 # 4-byte Folded Spill
.Ltmp187:
	.cfi_offset 10, -8
	#DEBUG_VALUE: i2c_slave:i <- R0
	#DEBUG_VALUE: i2c_slave:p_scl <- R1
	#DEBUG_VALUE: i2c_slave:p_sda <- R2
	#DEBUG_VALUE: i2c_slave:device_addr <- R3
	stw r3, sp[6]                   # 4-byte Folded Spill
.Ltmp188:
	#DEBUG_VALUE: i2c_slave:device_addr <- [SP+24]
	mov r6, r2
.Ltmp189:
	#DEBUG_VALUE: i2c_slave:p_sda <- R6
	mov r7, r1
.Ltmp190:
	#DEBUG_VALUE: i2c_slave:p_scl <- R7
	stw r0, sp[10]                  # 4-byte Folded Spill
.Ltmp191:
	#DEBUG_VALUE: ignore_stop_bit <- 1
	#DEBUG_VALUE: stop_bit_check <- 0
	#DEBUG_VALUE: rw <- 0
	#DEBUG_VALUE: bitnum <- 0
	#DEBUG_VALUE: sda_val <- 0
	#DEBUG_VALUE: next_state <- 0
	#DEBUG_VALUE: state <- 0
	#DEBUG_VALUE: i2c_slave:i <- [SP+40]
	mkmsk r1, 1
	.loc	2 37 0 prologue_end     # /home/evgeny/git/104/UI-01_sw1_hw1/lib_i2c/src/i2c_slave.xc:37:0
.Ltmp192:
	setd res[r6], r1
	.loc	2 37 0                  # /home/evgeny/git/104/UI-01_sw1_hw1/lib_i2c/src/i2c_slave.xc:37:0
	setc res[r6], 17
	.loc	2 37 0                  # /home/evgeny/git/104/UI-01_sw1_hw1/lib_i2c/src/i2c_slave.xc:37:0
.Ltmp193:
.Lxta.endpoint_labels0:
	in r0, res[r6]
	ldc r3, 0
.Ltmp194:
	#DEBUG_VALUE: i2c_slave:device_addr <- undef
	mov r0, r1
	stw r3, sp[11]                  # 4-byte Folded Spill
	stw r3, sp[7]                   # 4-byte Folded Spill
                                        # implicit-def: R1
	stw r1, sp[8]                   # 4-byte Folded Spill
	stw r3, sp[9]                   # 4-byte Folded Spill
                                        # implicit-def: R2
	mov r10, r3
	mov r8, r3
	mov r1, r3
	bu .LBB30_1
.Ltmp195:
.LBB30_71:                              # %iffalse216
                                        #   in Loop: Header=BB30_1 Depth=1
.Lxtalabel1:
	#DEBUG_VALUE: i2c_slave:i <- [SP+40]
	#DEBUG_VALUE: i2c_slave:p_scl <- R7
	#DEBUG_VALUE: i2c_slave:p_sda <- R6
	#DEBUG_VALUE: i2c_slave:device_addr <- undef
	mov r0, r5
	stw r3, sp[11]                  # 4-byte Folded Spill
	stw r11, sp[8]                  # 4-byte Folded Spill
	stw r8, sp[9]                   # 4-byte Folded Spill
	mov r8, r9
	mov r1, r4
.Ltmp196:
.LBB30_1:                               # %LoopBody
                                        # =>This Inner Loop Header: Depth=1
.Lxtalabel2:
	#DEBUG_VALUE: i2c_slave:i <- [SP+40]
	#DEBUG_VALUE: i2c_slave:p_scl <- R7
	#DEBUG_VALUE: i2c_slave:p_sda <- R6
	#DEBUG_VALUE: i2c_slave:device_addr <- undef
	#DEBUG_VALUE: state <- 0
	#DEBUG_VALUE: next_state <- 0
	#DEBUG_VALUE: sda_val <- 0
	#DEBUG_VALUE: bitnum <- 0
	#DEBUG_VALUE: rw <- 0
	#DEBUG_VALUE: stop_bit_check <- 0
	#DEBUG_VALUE: ignore_stop_bit <- 1
	mov r9, r8
	mov r4, r2
	mov r5, r0
	.loc	2 39 5                  # /home/evgeny/git/104/UI-01_sw1_hw1/lib_i2c/src/i2c_slave.xc:39:5
	clre
	.loc	2 39 5                  # /home/evgeny/git/104/UI-01_sw1_hw1/lib_i2c/src/i2c_slave.xc:39:5
	ldw r0, sp[10]                  # 4-byte Folded Reload
	ldw r0, r0[1]
	ldap r11, .Ltmp197
	.loc	2 39 5                  # /home/evgeny/git/104/UI-01_sw1_hw1/lib_i2c/src/i2c_slave.xc:39:5
	setv res[r0], r11
	.loc	2 39 5                  # /home/evgeny/git/104/UI-01_sw1_hw1/lib_i2c/src/i2c_slave.xc:39:5
	eeu res[r0]
	bf r1, .LBB30_3
.Ltmp198:
# BB#2:                                 # %selectguarddone
                                        #   in Loop: Header=BB30_1 Depth=1
	#DEBUG_VALUE: i2c_slave:i <- [SP+40]
	#DEBUG_VALUE: i2c_slave:p_scl <- R7
	#DEBUG_VALUE: i2c_slave:p_sda <- R6
	#DEBUG_VALUE: i2c_slave:device_addr <- undef
	#DEBUG_VALUE: state <- 0
	#DEBUG_VALUE: next_state <- 0
	#DEBUG_VALUE: sda_val <- 0
	#DEBUG_VALUE: bitnum <- 0
	#DEBUG_VALUE: rw <- 0
	#DEBUG_VALUE: stop_bit_check <- 0
	#DEBUG_VALUE: ignore_stop_bit <- 1
	.loc	2 39 5                  # /home/evgeny/git/104/UI-01_sw1_hw1/lib_i2c/src/i2c_slave.xc:39:5
	setd res[r7], r4
	.loc	2 39 5                  # /home/evgeny/git/104/UI-01_sw1_hw1/lib_i2c/src/i2c_slave.xc:39:5
	setc res[r7], 17
	ldap r11, .Ltmp199
	.loc	2 39 5                  # /home/evgeny/git/104/UI-01_sw1_hw1/lib_i2c/src/i2c_slave.xc:39:5
	setv res[r7], r11
	.loc	2 39 5                  # /home/evgeny/git/104/UI-01_sw1_hw1/lib_i2c/src/i2c_slave.xc:39:5
	eeu res[r7]
	.loc	2 39 5                  # /home/evgeny/git/104/UI-01_sw1_hw1/lib_i2c/src/i2c_slave.xc:39:5
	ldw r2, sp[11]                  # 4-byte Folded Reload
	bf r2, .LBB30_4
.Ltmp200:
.LBB30_3:                               # %selectguardtrue10
                                        #   in Loop: Header=BB30_1 Depth=1
	#DEBUG_VALUE: i2c_slave:i <- [SP+40]
	#DEBUG_VALUE: i2c_slave:p_scl <- R7
	#DEBUG_VALUE: i2c_slave:p_sda <- R6
	#DEBUG_VALUE: i2c_slave:device_addr <- undef
	#DEBUG_VALUE: state <- 0
	#DEBUG_VALUE: next_state <- 0
	#DEBUG_VALUE: sda_val <- 0
	#DEBUG_VALUE: bitnum <- 0
	#DEBUG_VALUE: rw <- 0
	#DEBUG_VALUE: stop_bit_check <- 0
	#DEBUG_VALUE: ignore_stop_bit <- 1
	.loc	2 39 5                  # /home/evgeny/git/104/UI-01_sw1_hw1/lib_i2c/src/i2c_slave.xc:39:5
	setd res[r6], r10
	.loc	2 39 5                  # /home/evgeny/git/104/UI-01_sw1_hw1/lib_i2c/src/i2c_slave.xc:39:5
	setc res[r6], 17
	ldap r11, .Ltmp201
	.loc	2 39 5                  # /home/evgeny/git/104/UI-01_sw1_hw1/lib_i2c/src/i2c_slave.xc:39:5
	setv res[r6], r11
	.loc	2 39 5                  # /home/evgeny/git/104/UI-01_sw1_hw1/lib_i2c/src/i2c_slave.xc:39:5
	eeu res[r6]
.Ltmp202:
.LBB30_4:                               # %selectguarddone11
                                        #   in Loop: Header=BB30_1 Depth=1
	#DEBUG_VALUE: i2c_slave:i <- [SP+40]
	#DEBUG_VALUE: i2c_slave:p_scl <- R7
	#DEBUG_VALUE: i2c_slave:p_sda <- R6
	#DEBUG_VALUE: i2c_slave:device_addr <- undef
	#DEBUG_VALUE: state <- 0
	#DEBUG_VALUE: next_state <- 0
	#DEBUG_VALUE: sda_val <- 0
	#DEBUG_VALUE: bitnum <- 0
	#DEBUG_VALUE: rw <- 0
	#DEBUG_VALUE: stop_bit_check <- 0
	#DEBUG_VALUE: ignore_stop_bit <- 1
	.loc	2 261 0                 # /home/evgeny/git/104/UI-01_sw1_hw1/lib_i2c/src/i2c_slave.xc:261:0

	.xtabranch .LBB30_5, .LBB30_6, .LBB30_55
	waiteu
.Ltmp203:
.Ltmp199:                               # Block address taken
.LBB30_6:                               # %selectcase1
                                        #   in Loop: Header=BB30_1 Depth=1
.Lxtalabel3:
	#DEBUG_VALUE: i2c_slave:i <- [SP+40]
	#DEBUG_VALUE: i2c_slave:p_scl <- R7
	#DEBUG_VALUE: i2c_slave:p_sda <- R6
	#DEBUG_VALUE: i2c_slave:device_addr <- undef
	#DEBUG_VALUE: state <- 0
	#DEBUG_VALUE: next_state <- 0
	#DEBUG_VALUE: sda_val <- 0
	#DEBUG_VALUE: bitnum <- 0
	#DEBUG_VALUE: rw <- 0
	#DEBUG_VALUE: stop_bit_check <- 0
	#DEBUG_VALUE: ignore_stop_bit <- 1
	.loc	2 42 0                  # /home/evgeny/git/104/UI-01_sw1_hw1/lib_i2c/src/i2c_slave.xc:42:0
.Lxta.endpoint_labels1:
	in r0, res[r7]
.Ltmp204:
	.loc	2 43 0                  # /home/evgeny/git/104/UI-01_sw1_hw1/lib_i2c/src/i2c_slave.xc:43:0
	sub r3, r1, 1
	ldc r0, 6
	lsu r11, r0, r3
	mov r0, r5
	mov r2, r4
	mov r8, r9
	bt r11, .LBB30_1
.Ltmp205:
# BB#7:                                 # %selectcase1
                                        #   in Loop: Header=BB30_1 Depth=1
.Lxtalabel4:
	#DEBUG_VALUE: i2c_slave:i <- [SP+40]
	#DEBUG_VALUE: i2c_slave:p_scl <- R7
	#DEBUG_VALUE: i2c_slave:p_sda <- R6
	#DEBUG_VALUE: i2c_slave:device_addr <- undef

	.xtabranch .Ljumptable0+2,.Ljumptable0+4,.Ljumptable0+6,.Ljumptable0+8,.Ljumptable0+10,.Ljumptable0+12,.Ljumptable0+14
.Ljumptable0:
		
	bru r3
	.jmptable .LBB30_9,.LBB30_18,.LBB30_17,.LBB30_25,.LBB30_8,.LBB30_46,.LBB30_29
.Ltmp206:
.LBB30_9:                               # %switchcase
                                        #   in Loop: Header=BB30_1 Depth=1
.Lxtalabel5:
	#DEBUG_VALUE: i2c_slave:i <- [SP+40]
	#DEBUG_VALUE: i2c_slave:p_scl <- R7
	#DEBUG_VALUE: i2c_slave:p_sda <- R6
	#DEBUG_VALUE: i2c_slave:device_addr <- undef
	mov r0, r5
	mkmsk r1, 1
	mov r2, r1
	mov r8, r9
	bf r4, .LBB30_1
.Ltmp207:
# BB#10:                                # %ifdone20
                                        #   in Loop: Header=BB30_1 Depth=1
.Lxtalabel6:
	#DEBUG_VALUE: i2c_slave:i <- [SP+40]
	#DEBUG_VALUE: i2c_slave:p_scl <- R7
	#DEBUG_VALUE: i2c_slave:p_sda <- R6
	#DEBUG_VALUE: i2c_slave:device_addr <- undef
	.loc	2 52 0                  # /home/evgeny/git/104/UI-01_sw1_hw1/lib_i2c/src/i2c_slave.xc:52:0
	setc res[r6], 1
	.loc	2 52 0                  # /home/evgeny/git/104/UI-01_sw1_hw1/lib_i2c/src/i2c_slave.xc:52:0
.Lxta.endpoint_labels2:
	in r2, res[r6]
.Ltmp208:
	#DEBUG_VALUE: bit <- R2
	ldc r0, 6
	ldw r1, sp[9]                   # 4-byte Folded Reload
	.loc	2 53 9                  # /home/evgeny/git/104/UI-01_sw1_hw1/lib_i2c/src/i2c_slave.xc:53:9
	lss r0, r0, r1
	bt r0, .LBB30_12
.Ltmp209:
# BB#11:                                # %iftrue26
                                        #   in Loop: Header=BB30_1 Depth=1
.Lxtalabel7:
	#DEBUG_VALUE: i2c_slave:i <- [SP+40]
	#DEBUG_VALUE: i2c_slave:p_scl <- R7
	#DEBUG_VALUE: i2c_slave:p_sda <- R6
	#DEBUG_VALUE: i2c_slave:device_addr <- undef
	#DEBUG_VALUE: bit <- R2
	.loc	2 54 0                  # /home/evgeny/git/104/UI-01_sw1_hw1/lib_i2c/src/i2c_slave.xc:54:0
	ldw r0, sp[8]                   # 4-byte Folded Reload
	shl r0, r0, 1
	.loc	2 54 0                  # /home/evgeny/git/104/UI-01_sw1_hw1/lib_i2c/src/i2c_slave.xc:54:0
	or r0, r2, r0
.Ltmp210:
	#DEBUG_VALUE: data <- [SP+32]
	.loc	2 55 0                  # /home/evgeny/git/104/UI-01_sw1_hw1/lib_i2c/src/i2c_slave.xc:55:0
	stw r0, sp[8]                   # 4-byte Folded Spill
	add r1, r1, 1
.Ltmp211:
	#DEBUG_VALUE: scl_val <- 0
	#DEBUG_VALUE: bitnum <- R1
	stw r1, sp[9]                   # 4-byte Folded Spill
.Ltmp212:
	#DEBUG_VALUE: bitnum <- [SP+36]
	mov r0, r5
	ldc r2, 0
.Ltmp213:
	mov r8, r9
	mkmsk r1, 1
	bu .LBB30_1
.Ltmp214:
.Ltmp201:                               # Block address taken
.LBB30_55:                              # %selectcase3
                                        #   in Loop: Header=BB30_1 Depth=1
.Lxtalabel8:
	#DEBUG_VALUE: i2c_slave:i <- [SP+40]
	#DEBUG_VALUE: i2c_slave:p_scl <- R7
	#DEBUG_VALUE: i2c_slave:p_sda <- R6
	#DEBUG_VALUE: i2c_slave:device_addr <- undef
	#DEBUG_VALUE: state <- 0
	#DEBUG_VALUE: next_state <- 0
	#DEBUG_VALUE: sda_val <- 0
	#DEBUG_VALUE: bitnum <- 0
	#DEBUG_VALUE: rw <- 0
	#DEBUG_VALUE: stop_bit_check <- 0
	#DEBUG_VALUE: ignore_stop_bit <- 1
	.loc	2 231 0                 # /home/evgeny/git/104/UI-01_sw1_hw1/lib_i2c/src/i2c_slave.xc:231:0
.Lxta.endpoint_labels3:
	in r0, res[r6]
.Ltmp215:
	.loc	2 232 7                 # /home/evgeny/git/104/UI-01_sw1_hw1/lib_i2c/src/i2c_slave.xc:232:7
	eq r0, r10, 1
	.loc	2 236 0                 # /home/evgeny/git/104/UI-01_sw1_hw1/lib_i2c/src/i2c_slave.xc:236:0
.Ltmp216:
	setc res[r7], 1
	.loc	2 236 0                 # /home/evgeny/git/104/UI-01_sw1_hw1/lib_i2c/src/i2c_slave.xc:236:0
	in r3, res[r7]
.Ltmp217:
	#DEBUG_VALUE: val <- R3
	#DEBUG_VALUE: val <- R3
	.loc	2 232 7                 # /home/evgeny/git/104/UI-01_sw1_hw1/lib_i2c/src/i2c_slave.xc:232:7
	bf r0, .LBB30_59
.Ltmp218:
# BB#56:                                # %iftrue210
                                        #   in Loop: Header=BB30_1 Depth=1
.Lxtalabel9:
	#DEBUG_VALUE: i2c_slave:i <- [SP+40]
	#DEBUG_VALUE: i2c_slave:p_scl <- R7
	#DEBUG_VALUE: i2c_slave:p_sda <- R6
	#DEBUG_VALUE: i2c_slave:device_addr <- undef
	#DEBUG_VALUE: state <- 0
	#DEBUG_VALUE: next_state <- 0
	#DEBUG_VALUE: sda_val <- 0
	#DEBUG_VALUE: bitnum <- 0
	#DEBUG_VALUE: rw <- 0
	#DEBUG_VALUE: stop_bit_check <- 0
	#DEBUG_VALUE: ignore_stop_bit <- 1
	#DEBUG_VALUE: val <- R3
	mov r0, r5
	mov r2, r4
	ldc r10, 0
	mov r8, r9
	bf r3, .LBB30_1
.Ltmp219:
# BB#57:                                # %iftrue218
                                        #   in Loop: Header=BB30_1 Depth=1
.Lxtalabel10:
	#DEBUG_VALUE: i2c_slave:i <- [SP+40]
	#DEBUG_VALUE: i2c_slave:p_scl <- R7
	#DEBUG_VALUE: i2c_slave:p_sda <- R6
	#DEBUG_VALUE: i2c_slave:device_addr <- undef
	#DEBUG_VALUE: state <- 0
	#DEBUG_VALUE: next_state <- 0
	#DEBUG_VALUE: sda_val <- 0
	#DEBUG_VALUE: bitnum <- 0
	#DEBUG_VALUE: rw <- 0
	#DEBUG_VALUE: stop_bit_check <- 0
	#DEBUG_VALUE: ignore_stop_bit <- 1
	mkmsk r0, 1
	ldc r1, 0
	stw r1, sp[11]                  # 4-byte Folded Spill
	mov r2, r4
	mov r10, r1
	mov r8, r9
	bt r5, .LBB30_1
.Ltmp220:
# BB#58:                                # %iftrue221
                                        #   in Loop: Header=BB30_1 Depth=1
.Lxtalabel11:
	#DEBUG_VALUE: i2c_slave:i <- [SP+40]
	#DEBUG_VALUE: i2c_slave:p_scl <- R7
	#DEBUG_VALUE: i2c_slave:p_sda <- R6
	#DEBUG_VALUE: i2c_slave:device_addr <- undef
	#DEBUG_VALUE: state <- 0
	#DEBUG_VALUE: next_state <- 0
	#DEBUG_VALUE: sda_val <- 0
	#DEBUG_VALUE: bitnum <- 0
	#DEBUG_VALUE: rw <- 0
	#DEBUG_VALUE: stop_bit_check <- 0
	#DEBUG_VALUE: ignore_stop_bit <- 1
	ldw r1, sp[10]                  # 4-byte Folded Reload
.Ltmp221:
	#DEBUG_VALUE: i2c_slave:i <- R1
	.loc	2 239 0                 # /home/evgeny/git/104/UI-01_sw1_hw1/lib_i2c/src/i2c_slave.xc:239:0
	ldw r0, r1[0]
	.loc	2 239 0                 # /home/evgeny/git/104/UI-01_sw1_hw1/lib_i2c/src/i2c_slave.xc:239:0
	ldw r1, r1[3]
.Ltmp222:
	#DEBUG_VALUE: i2c_slave:i <- [SP+40]
	.loc	2 239 0                 # /home/evgeny/git/104/UI-01_sw1_hw1/lib_i2c/src/i2c_slave.xc:239:0
	ldw r1, r1[4]
	.loc	2 239 0                 # /home/evgeny/git/104/UI-01_sw1_hw1/lib_i2c/src/i2c_slave.xc:239:0
.Lxta.call_labels0:
	bla r1
	mkmsk r0, 1
	ldc r1, 0
	stw r1, sp[11]                  # 4-byte Folded Spill
	mov r2, r4
	mov r10, r1
	mov r8, r9
	bu .LBB30_1
.Ltmp223:
.LBB30_59:                              # %iffalse216
                                        #   in Loop: Header=BB30_1 Depth=1
.Lxtalabel12:
	#DEBUG_VALUE: i2c_slave:i <- [SP+40]
	#DEBUG_VALUE: i2c_slave:p_scl <- R7
	#DEBUG_VALUE: i2c_slave:p_sda <- R6
	#DEBUG_VALUE: i2c_slave:device_addr <- undef
	#DEBUG_VALUE: state <- 0
	#DEBUG_VALUE: next_state <- 0
	#DEBUG_VALUE: sda_val <- 0
	#DEBUG_VALUE: bitnum <- 0
	#DEBUG_VALUE: rw <- 0
	#DEBUG_VALUE: stop_bit_check <- 0
	#DEBUG_VALUE: ignore_stop_bit <- 1
	#DEBUG_VALUE: val <- R3
	.loc	2 251 9                 # /home/evgeny/git/104/UI-01_sw1_hw1/lib_i2c/src/i2c_slave.xc:251:9
	eq r0, r3, 1
	ldc r2, 0
	.loc	2 256 0                 # /home/evgeny/git/104/UI-01_sw1_hw1/lib_i2c/src/i2c_slave.xc:256:0
	mov r3, r2
.Ltmp224:
	bt r0, .LBB30_61
.Ltmp225:
# BB#60:                                # %iffalse216
                                        #   in Loop: Header=BB30_1 Depth=1
.Lxtalabel13:
	#DEBUG_VALUE: i2c_slave:i <- [SP+40]
	#DEBUG_VALUE: i2c_slave:p_scl <- R7
	#DEBUG_VALUE: i2c_slave:p_sda <- R6
	#DEBUG_VALUE: i2c_slave:device_addr <- undef
	#DEBUG_VALUE: state <- 0
	#DEBUG_VALUE: next_state <- 0
	#DEBUG_VALUE: sda_val <- 0
	#DEBUG_VALUE: bitnum <- 0
	#DEBUG_VALUE: rw <- 0
	#DEBUG_VALUE: stop_bit_check <- 0
	#DEBUG_VALUE: ignore_stop_bit <- 1
	ldw r3, sp[11]                  # 4-byte Folded Reload
.Ltmp226:
.LBB30_61:                              # %iffalse216
                                        #   in Loop: Header=BB30_1 Depth=1
.Lxtalabel14:
	#DEBUG_VALUE: i2c_slave:i <- [SP+40]
	#DEBUG_VALUE: i2c_slave:p_scl <- R7
	#DEBUG_VALUE: i2c_slave:p_sda <- R6
	#DEBUG_VALUE: i2c_slave:device_addr <- undef
	#DEBUG_VALUE: state <- 0
	#DEBUG_VALUE: next_state <- 0
	#DEBUG_VALUE: sda_val <- 0
	#DEBUG_VALUE: bitnum <- 0
	#DEBUG_VALUE: rw <- 0
	#DEBUG_VALUE: stop_bit_check <- 0
	#DEBUG_VALUE: ignore_stop_bit <- 1
	.loc	2 256 0                 # /home/evgeny/git/104/UI-01_sw1_hw1/lib_i2c/src/i2c_slave.xc:256:0
	mov r11, r2
	bt r0, .LBB30_63
.Ltmp227:
# BB#62:                                # %iffalse216
                                        #   in Loop: Header=BB30_1 Depth=1
.Lxtalabel15:
	#DEBUG_VALUE: i2c_slave:i <- [SP+40]
	#DEBUG_VALUE: i2c_slave:p_scl <- R7
	#DEBUG_VALUE: i2c_slave:p_sda <- R6
	#DEBUG_VALUE: i2c_slave:device_addr <- undef
	#DEBUG_VALUE: state <- 0
	#DEBUG_VALUE: next_state <- 0
	#DEBUG_VALUE: sda_val <- 0
	#DEBUG_VALUE: bitnum <- 0
	#DEBUG_VALUE: rw <- 0
	#DEBUG_VALUE: stop_bit_check <- 0
	#DEBUG_VALUE: ignore_stop_bit <- 1
	ldw r11, sp[8]                  # 4-byte Folded Reload
.Ltmp228:
.LBB30_63:                              # %iffalse216
                                        #   in Loop: Header=BB30_1 Depth=1
.Lxtalabel16:
	#DEBUG_VALUE: i2c_slave:i <- [SP+40]
	#DEBUG_VALUE: i2c_slave:p_scl <- R7
	#DEBUG_VALUE: i2c_slave:p_sda <- R6
	#DEBUG_VALUE: i2c_slave:device_addr <- undef
	#DEBUG_VALUE: state <- 0
	#DEBUG_VALUE: next_state <- 0
	#DEBUG_VALUE: sda_val <- 0
	#DEBUG_VALUE: bitnum <- 0
	#DEBUG_VALUE: rw <- 0
	#DEBUG_VALUE: stop_bit_check <- 0
	#DEBUG_VALUE: ignore_stop_bit <- 1
	.loc	2 256 0                 # /home/evgeny/git/104/UI-01_sw1_hw1/lib_i2c/src/i2c_slave.xc:256:0
	mov r8, r2
	bt r0, .LBB30_65
.Ltmp229:
# BB#64:                                # %iffalse216
                                        #   in Loop: Header=BB30_1 Depth=1
.Lxtalabel17:
	#DEBUG_VALUE: i2c_slave:i <- [SP+40]
	#DEBUG_VALUE: i2c_slave:p_scl <- R7
	#DEBUG_VALUE: i2c_slave:p_sda <- R6
	#DEBUG_VALUE: i2c_slave:device_addr <- undef
	#DEBUG_VALUE: state <- 0
	#DEBUG_VALUE: next_state <- 0
	#DEBUG_VALUE: sda_val <- 0
	#DEBUG_VALUE: bitnum <- 0
	#DEBUG_VALUE: rw <- 0
	#DEBUG_VALUE: stop_bit_check <- 0
	#DEBUG_VALUE: ignore_stop_bit <- 1
	ldw r8, sp[9]                   # 4-byte Folded Reload
.Ltmp230:
.LBB30_65:                              # %iffalse216
                                        #   in Loop: Header=BB30_1 Depth=1
.Lxtalabel18:
	#DEBUG_VALUE: i2c_slave:i <- [SP+40]
	#DEBUG_VALUE: i2c_slave:p_scl <- R7
	#DEBUG_VALUE: i2c_slave:p_sda <- R6
	#DEBUG_VALUE: i2c_slave:device_addr <- undef
	#DEBUG_VALUE: state <- 0
	#DEBUG_VALUE: next_state <- 0
	#DEBUG_VALUE: sda_val <- 0
	#DEBUG_VALUE: bitnum <- 0
	#DEBUG_VALUE: rw <- 0
	#DEBUG_VALUE: stop_bit_check <- 0
	#DEBUG_VALUE: ignore_stop_bit <- 1
	bt r0, .LBB30_67
.Ltmp231:
# BB#66:                                # %iffalse216
                                        #   in Loop: Header=BB30_1 Depth=1
.Lxtalabel19:
	#DEBUG_VALUE: i2c_slave:i <- [SP+40]
	#DEBUG_VALUE: i2c_slave:p_scl <- R7
	#DEBUG_VALUE: i2c_slave:p_sda <- R6
	#DEBUG_VALUE: i2c_slave:device_addr <- undef
	#DEBUG_VALUE: state <- 0
	#DEBUG_VALUE: next_state <- 0
	#DEBUG_VALUE: sda_val <- 0
	#DEBUG_VALUE: bitnum <- 0
	#DEBUG_VALUE: rw <- 0
	#DEBUG_VALUE: stop_bit_check <- 0
	#DEBUG_VALUE: ignore_stop_bit <- 1
	.loc	2 256 0                 # /home/evgeny/git/104/UI-01_sw1_hw1/lib_i2c/src/i2c_slave.xc:256:0
	mov r2, r4
.Ltmp232:
.LBB30_67:                              # %iffalse216
                                        #   in Loop: Header=BB30_1 Depth=1
.Lxtalabel20:
	#DEBUG_VALUE: i2c_slave:i <- [SP+40]
	#DEBUG_VALUE: i2c_slave:p_scl <- R7
	#DEBUG_VALUE: i2c_slave:p_sda <- R6
	#DEBUG_VALUE: i2c_slave:device_addr <- undef
	#DEBUG_VALUE: state <- 0
	#DEBUG_VALUE: next_state <- 0
	#DEBUG_VALUE: sda_val <- 0
	#DEBUG_VALUE: bitnum <- 0
	#DEBUG_VALUE: rw <- 0
	#DEBUG_VALUE: stop_bit_check <- 0
	#DEBUG_VALUE: ignore_stop_bit <- 1
	bt r0, .LBB30_69
.Ltmp233:
# BB#68:                                # %iffalse216
                                        #   in Loop: Header=BB30_1 Depth=1
.Lxtalabel21:
	#DEBUG_VALUE: i2c_slave:i <- [SP+40]
	#DEBUG_VALUE: i2c_slave:p_scl <- R7
	#DEBUG_VALUE: i2c_slave:p_sda <- R6
	#DEBUG_VALUE: i2c_slave:device_addr <- undef
	#DEBUG_VALUE: state <- 0
	#DEBUG_VALUE: next_state <- 0
	#DEBUG_VALUE: sda_val <- 0
	#DEBUG_VALUE: bitnum <- 0
	#DEBUG_VALUE: rw <- 0
	#DEBUG_VALUE: stop_bit_check <- 0
	#DEBUG_VALUE: ignore_stop_bit <- 1
	mkmsk r10, 1
.Ltmp234:
.LBB30_69:                              # %iffalse216
                                        #   in Loop: Header=BB30_1 Depth=1
.Lxtalabel22:
	#DEBUG_VALUE: i2c_slave:i <- [SP+40]
	#DEBUG_VALUE: i2c_slave:p_scl <- R7
	#DEBUG_VALUE: i2c_slave:p_sda <- R6
	#DEBUG_VALUE: i2c_slave:device_addr <- undef
	mkmsk r4, 1
	bt r0, .LBB30_71
.Ltmp235:
# BB#70:                                # %iffalse216
                                        #   in Loop: Header=BB30_1 Depth=1
.Lxtalabel23:
	#DEBUG_VALUE: i2c_slave:i <- [SP+40]
	#DEBUG_VALUE: i2c_slave:p_scl <- R7
	#DEBUG_VALUE: i2c_slave:p_sda <- R6
	#DEBUG_VALUE: i2c_slave:device_addr <- undef
	mov r4, r1
	bu .LBB30_71
.Ltmp236:
.LBB30_18:                              # %switchcase43
                                        #   in Loop: Header=BB30_1 Depth=1
.Lxtalabel24:
	#DEBUG_VALUE: i2c_slave:i <- [SP+40]
	#DEBUG_VALUE: i2c_slave:p_scl <- R7
	#DEBUG_VALUE: i2c_slave:p_sda <- R6
	#DEBUG_VALUE: i2c_slave:device_addr <- undef
	ldc r2, 0
	.loc	2 79 19                 # /home/evgeny/git/104/UI-01_sw1_hw1/lib_i2c/src/i2c_slave.xc:79:19
.Lxta.endpoint_labels4:
	out res[r7], r2
	ldw r1, sp[10]                  # 4-byte Folded Reload
.Ltmp237:
	#DEBUG_VALUE: i2c_slave:i <- R1
	.loc	2 85 0                  # /home/evgeny/git/104/UI-01_sw1_hw1/lib_i2c/src/i2c_slave.xc:85:0
	ldw r0, r1[0]
	.loc	2 85 0                  # /home/evgeny/git/104/UI-01_sw1_hw1/lib_i2c/src/i2c_slave.xc:85:0
	ldw r1, r1[3]
.Ltmp238:
	.loc	2 84 9                  # /home/evgeny/git/104/UI-01_sw1_hw1/lib_i2c/src/i2c_slave.xc:84:9
	ldw r3, sp[7]                   # 4-byte Folded Reload
.Ltmp239:
	#DEBUG_VALUE: i2c_slave:i <- [SP+40]
	bf r3, .LBB30_72
.Ltmp240:
# BB#19:                                # %iftrue47
                                        #   in Loop: Header=BB30_1 Depth=1
.Lxtalabel25:
	#DEBUG_VALUE: i2c_slave:i <- [SP+40]
	#DEBUG_VALUE: i2c_slave:p_scl <- R7
	#DEBUG_VALUE: i2c_slave:p_sda <- R6
	#DEBUG_VALUE: i2c_slave:device_addr <- undef
	.loc	2 85 0                  # /home/evgeny/git/104/UI-01_sw1_hw1/lib_i2c/src/i2c_slave.xc:85:0
	ldw r1, r1[0]
	bu .LBB30_20
.Ltmp241:
.LBB30_17:                              # %switchcase45
                                        #   in Loop: Header=BB30_1 Depth=1
.Lxtalabel26:
	#DEBUG_VALUE: i2c_slave:i <- [SP+40]
	#DEBUG_VALUE: i2c_slave:p_scl <- R7
	#DEBUG_VALUE: i2c_slave:p_sda <- R6
	#DEBUG_VALUE: i2c_slave:device_addr <- undef
	#DEBUG_VALUE: state <- 4
	#DEBUG_VALUE: scl_val <- 0
	mov r0, r5
	ldc r2, 0
	mov r8, r9
	ldc r1, 4
	bu .LBB30_1
.Ltmp242:
.LBB30_25:                              # %switchcase75
                                        #   in Loop: Header=BB30_1 Depth=1
.Lxtalabel27:
	#DEBUG_VALUE: i2c_slave:i <- [SP+40]
	#DEBUG_VALUE: i2c_slave:p_scl <- R7
	#DEBUG_VALUE: i2c_slave:p_sda <- R6
	#DEBUG_VALUE: i2c_slave:device_addr <- undef
	.loc	2 121 0                 # /home/evgeny/git/104/UI-01_sw1_hw1/lib_i2c/src/i2c_slave.xc:121:0
	setc res[r6], 1
	.loc	2 121 0                 # /home/evgeny/git/104/UI-01_sw1_hw1/lib_i2c/src/i2c_slave.xc:121:0
.Ltmp243:
.Lxta.endpoint_labels5:
	in r0, res[r6]
	.loc	2 122 9                 # /home/evgeny/git/104/UI-01_sw1_hw1/lib_i2c/src/i2c_slave.xc:122:9
	eq r3, r9, 7
	mov r0, r5
	ldc r1, 0
	stw r1, sp[9]                   # 4-byte Folded Spill
	mov r2, r1
	mkmsk r1, 3
	mov r8, r1
	bt r3, .LBB30_1
.Ltmp244:
# BB#26:                                # %switchcase75
                                        #   in Loop: Header=BB30_1 Depth=1
.Lxtalabel28:
	#DEBUG_VALUE: i2c_slave:i <- [SP+40]
	#DEBUG_VALUE: i2c_slave:p_scl <- R7
	#DEBUG_VALUE: i2c_slave:p_sda <- R6
	#DEBUG_VALUE: i2c_slave:device_addr <- undef
	eq r0, r9, 6
	bf r0, .LBB30_28
.Ltmp245:
# BB#27:                                # %iftrue86
                                        #   in Loop: Header=BB30_1 Depth=1
.Lxtalabel29:
	#DEBUG_VALUE: i2c_slave:i <- [SP+40]
	#DEBUG_VALUE: i2c_slave:p_scl <- R7
	#DEBUG_VALUE: i2c_slave:p_sda <- R6
	#DEBUG_VALUE: i2c_slave:device_addr <- undef
	#DEBUG_VALUE: scl_val <- 1
	#DEBUG_VALUE: data <- 0
	mov r0, r5
	ldc r1, 0
	stw r1, sp[8]                   # 4-byte Folded Spill
	stw r1, sp[9]                   # 4-byte Folded Spill
	mkmsk r2, 1
	ldc r1, 6
	mov r8, r1
	bu .LBB30_1
.Ltmp246:
.LBB30_8:                               # %switchcase18
                                        #   in Loop: Header=BB30_1 Depth=1
.Lxtalabel30:
	#DEBUG_VALUE: i2c_slave:i <- [SP+40]
	#DEBUG_VALUE: i2c_slave:p_scl <- R7
	#DEBUG_VALUE: i2c_slave:p_sda <- R6
	#DEBUG_VALUE: i2c_slave:device_addr <- undef
	#DEBUG_VALUE: state <- 3
	#DEBUG_VALUE: next_state <- 0
	#DEBUG_VALUE: scl_val <- 1
	mov r0, r5
	mkmsk r2, 1
	ldc r8, 0
	mkmsk r1, 2
	bu .LBB30_1
.Ltmp247:
.LBB30_46:                              # %switchcase95
                                        #   in Loop: Header=BB30_1 Depth=1
.Lxtalabel31:
	#DEBUG_VALUE: i2c_slave:i <- [SP+40]
	#DEBUG_VALUE: i2c_slave:p_scl <- R7
	#DEBUG_VALUE: i2c_slave:p_sda <- R6
	#DEBUG_VALUE: i2c_slave:device_addr <- undef
	.loc	2 184 9                 # /home/evgeny/git/104/UI-01_sw1_hw1/lib_i2c/src/i2c_slave.xc:184:9
	eq r0, r4, 1
	.loc	2 184 9                 # /home/evgeny/git/104/UI-01_sw1_hw1/lib_i2c/src/i2c_slave.xc:184:9
	bf r0, .LBB30_50
.Ltmp248:
# BB#47:                                # %iftrue154
                                        #   in Loop: Header=BB30_1 Depth=1
.Lxtalabel32:
	#DEBUG_VALUE: i2c_slave:i <- [SP+40]
	#DEBUG_VALUE: i2c_slave:p_scl <- R7
	#DEBUG_VALUE: i2c_slave:p_sda <- R6
	#DEBUG_VALUE: i2c_slave:device_addr <- undef
	.loc	2 187 0                 # /home/evgeny/git/104/UI-01_sw1_hw1/lib_i2c/src/i2c_slave.xc:187:0
	setc res[r6], 1
	.loc	2 187 0                 # /home/evgeny/git/104/UI-01_sw1_hw1/lib_i2c/src/i2c_slave.xc:187:0
.Lxta.endpoint_labels6:
	in r2, res[r6]
.Ltmp249:
	#DEBUG_VALUE: bit <- R2
	.loc	2 188 0                 # /home/evgeny/git/104/UI-01_sw1_hw1/lib_i2c/src/i2c_slave.xc:188:0
	ldw r0, sp[8]                   # 4-byte Folded Reload
	shl r0, r0, 1
	.loc	2 188 0                 # /home/evgeny/git/104/UI-01_sw1_hw1/lib_i2c/src/i2c_slave.xc:188:0
	mov r1, r2
	zext r1, 1
	ldw r3, sp[9]                   # 4-byte Folded Reload
	bt r3, .LBB30_49
.Ltmp250:
# BB#48:                                # %iftrue167
                                        #   in Loop: Header=BB30_1 Depth=1
.Lxtalabel33:
	#DEBUG_VALUE: i2c_slave:i <- [SP+40]
	#DEBUG_VALUE: i2c_slave:p_scl <- R7
	#DEBUG_VALUE: i2c_slave:p_sda <- R6
	#DEBUG_VALUE: i2c_slave:device_addr <- undef
	#DEBUG_VALUE: bit <- R2
	.loc	2 190 13                # /home/evgeny/git/104/UI-01_sw1_hw1/lib_i2c/src/i2c_slave.xc:190:13
	eq r10, r2, 0
	mkmsk r2, 1
.Ltmp251:
	stw r2, sp[11]                  # 4-byte Folded Spill
.Ltmp252:
.LBB30_49:                              # %ifdone168
                                        #   in Loop: Header=BB30_1 Depth=1
.Lxtalabel34:
	#DEBUG_VALUE: i2c_slave:i <- [SP+40]
	#DEBUG_VALUE: i2c_slave:p_scl <- R7
	#DEBUG_VALUE: i2c_slave:p_sda <- R6
	#DEBUG_VALUE: i2c_slave:device_addr <- undef
	.loc	2 188 0                 # /home/evgeny/git/104/UI-01_sw1_hw1/lib_i2c/src/i2c_slave.xc:188:0
	or r0, r1, r0
.Ltmp253:
	#DEBUG_VALUE: data <- [SP+32]
	#DEBUG_VALUE: scl_val <- 0
	.loc	2 199 0                 # /home/evgeny/git/104/UI-01_sw1_hw1/lib_i2c/src/i2c_slave.xc:199:0
	stw r0, sp[8]                   # 4-byte Folded Spill
	add r3, r3, 1
.Ltmp254:
	#DEBUG_VALUE: bitnum <- R3
	stw r3, sp[9]                   # 4-byte Folded Spill
.Ltmp255:
	#DEBUG_VALUE: bitnum <- [SP+36]
	mov r0, r5
	ldc r2, 0
	mov r8, r9
	ldc r1, 6
	bu .LBB30_1
.Ltmp256:
.LBB30_29:                              # %switchcase77
                                        #   in Loop: Header=BB30_1 Depth=1
.Lxtalabel35:
	#DEBUG_VALUE: i2c_slave:i <- [SP+40]
	#DEBUG_VALUE: i2c_slave:p_scl <- R7
	#DEBUG_VALUE: i2c_slave:p_sda <- R6
	#DEBUG_VALUE: i2c_slave:device_addr <- undef
	.loc	2 135 9                 # /home/evgeny/git/104/UI-01_sw1_hw1/lib_i2c/src/i2c_slave.xc:135:9
	eq r0, r4, 1
	.loc	2 135 9                 # /home/evgeny/git/104/UI-01_sw1_hw1/lib_i2c/src/i2c_slave.xc:135:9
	bf r0, .LBB30_39
.Ltmp257:
# BB#30:                                # %iftrue96
                                        #   in Loop: Header=BB30_1 Depth=1
.Lxtalabel36:
	#DEBUG_VALUE: i2c_slave:i <- [SP+40]
	#DEBUG_VALUE: i2c_slave:p_scl <- R7
	#DEBUG_VALUE: i2c_slave:p_sda <- R6
	#DEBUG_VALUE: i2c_slave:device_addr <- undef
	ldw r2, sp[9]                   # 4-byte Folded Reload
	.loc	2 137 11                # /home/evgeny/git/104/UI-01_sw1_hw1/lib_i2c/src/i2c_slave.xc:137:11
	eq r0, r2, 8
	ldc r1, 0
	.loc	2 137 11                # /home/evgeny/git/104/UI-01_sw1_hw1/lib_i2c/src/i2c_slave.xc:137:11
	bf r0, .LBB30_38
.Ltmp258:
# BB#31:                                # %iftrue103
                                        #   in Loop: Header=BB30_1 Depth=1
.Lxtalabel37:
	#DEBUG_VALUE: i2c_slave:i <- [SP+40]
	#DEBUG_VALUE: i2c_slave:p_scl <- R7
	#DEBUG_VALUE: i2c_slave:p_sda <- R6
	#DEBUG_VALUE: i2c_slave:device_addr <- undef
	.loc	2 140 0                 # /home/evgeny/git/104/UI-01_sw1_hw1/lib_i2c/src/i2c_slave.xc:140:0
	setc res[r6], 1
	.loc	2 140 0                 # /home/evgeny/git/104/UI-01_sw1_hw1/lib_i2c/src/i2c_slave.xc:140:0
.Lxta.endpoint_labels7:
	in r0, res[r6]
.Ltmp259:
	#DEBUG_VALUE: bit <- R0
	ldc r2, 8
	bt r0, .LBB30_33
.Ltmp260:
# BB#32:                                # %iftrue103
                                        #   in Loop: Header=BB30_1 Depth=1
.Lxtalabel38:
	#DEBUG_VALUE: i2c_slave:i <- [SP+40]
	#DEBUG_VALUE: i2c_slave:p_scl <- R7
	#DEBUG_VALUE: i2c_slave:p_sda <- R6
	#DEBUG_VALUE: i2c_slave:device_addr <- undef
	#DEBUG_VALUE: bit <- R0
	.loc	2 147 0                 # /home/evgeny/git/104/UI-01_sw1_hw1/lib_i2c/src/i2c_slave.xc:147:0
	mov r2, r1
.Ltmp261:
.LBB30_33:                              # %iftrue103
                                        #   in Loop: Header=BB30_1 Depth=1
.Lxtalabel39:
	#DEBUG_VALUE: i2c_slave:i <- [SP+40]
	#DEBUG_VALUE: i2c_slave:p_scl <- R7
	#DEBUG_VALUE: i2c_slave:p_sda <- R6
	#DEBUG_VALUE: i2c_slave:device_addr <- undef
	#DEBUG_VALUE: bit <- R0
	.loc	2 147 0                 # /home/evgeny/git/104/UI-01_sw1_hw1/lib_i2c/src/i2c_slave.xc:147:0
	mov r3, r1
	bt r0, .LBB30_35
.Ltmp262:
# BB#34:                                # %iftrue103
                                        #   in Loop: Header=BB30_1 Depth=1
.Lxtalabel40:
	#DEBUG_VALUE: i2c_slave:i <- [SP+40]
	#DEBUG_VALUE: i2c_slave:p_scl <- R7
	#DEBUG_VALUE: i2c_slave:p_sda <- R6
	#DEBUG_VALUE: i2c_slave:device_addr <- undef
	#DEBUG_VALUE: bit <- R0
	mov r3, r10
.Ltmp263:
.LBB30_35:                              # %iftrue103
                                        #   in Loop: Header=BB30_1 Depth=1
.Lxtalabel41:
	#DEBUG_VALUE: i2c_slave:i <- [SP+40]
	#DEBUG_VALUE: i2c_slave:p_scl <- R7
	#DEBUG_VALUE: i2c_slave:p_sda <- R6
	#DEBUG_VALUE: i2c_slave:device_addr <- undef
	#DEBUG_VALUE: bit <- R0
	stw r2, sp[9]                   # 4-byte Folded Spill
	.loc	2 147 0                 # /home/evgeny/git/104/UI-01_sw1_hw1/lib_i2c/src/i2c_slave.xc:147:0
	eq r2, r0, 0
	bt r0, .LBB30_37
.Ltmp264:
# BB#36:                                # %iftrue103
                                        #   in Loop: Header=BB30_1 Depth=1
.Lxtalabel42:
	#DEBUG_VALUE: i2c_slave:i <- [SP+40]
	#DEBUG_VALUE: i2c_slave:p_scl <- R7
	#DEBUG_VALUE: i2c_slave:p_sda <- R6
	#DEBUG_VALUE: i2c_slave:device_addr <- undef
	mkmsk r1, 3
.Ltmp265:
.LBB30_37:                              # %iftrue103
                                        #   in Loop: Header=BB30_1 Depth=1
.Lxtalabel43:
	#DEBUG_VALUE: i2c_slave:i <- [SP+40]
	#DEBUG_VALUE: i2c_slave:p_scl <- R7
	#DEBUG_VALUE: i2c_slave:p_sda <- R6
	#DEBUG_VALUE: i2c_slave:device_addr <- undef
	eq r2, r2, 0
	mov r0, r5
	mov r10, r3
	mov r8, r9
	bu .LBB30_1
.Ltmp266:
.LBB30_50:                              # %iffalse160
                                        #   in Loop: Header=BB30_1 Depth=1
.Lxtalabel44:
	#DEBUG_VALUE: i2c_slave:i <- [SP+40]
	#DEBUG_VALUE: i2c_slave:p_scl <- R7
	#DEBUG_VALUE: i2c_slave:p_sda <- R6
	#DEBUG_VALUE: i2c_slave:device_addr <- undef
	#DEBUG_VALUE: stop_bit_check <- 0
	.loc	2 206 11                # /home/evgeny/git/104/UI-01_sw1_hw1/lib_i2c/src/i2c_slave.xc:206:11
	ldw r0, sp[9]                   # 4-byte Folded Reload
	eq r3, r0, 8
	mov r0, r5
	ldc r1, 0
	stw r1, sp[11]                  # 4-byte Folded Spill
	mkmsk r2, 1
	mov r8, r9
	ldc r1, 6
	bf r3, .LBB30_1
.Ltmp267:
# BB#51:                                # %iftrue180
                                        #   in Loop: Header=BB30_1 Depth=1
.Lxtalabel45:
	#DEBUG_VALUE: i2c_slave:i <- [SP+40]
	#DEBUG_VALUE: i2c_slave:p_scl <- R7
	#DEBUG_VALUE: i2c_slave:p_sda <- R6
	#DEBUG_VALUE: i2c_slave:device_addr <- undef
	#DEBUG_VALUE: stop_bit_check <- 0
	ldc r4, 0
	.loc	2 208 23                # /home/evgeny/git/104/UI-01_sw1_hw1/lib_i2c/src/i2c_slave.xc:208:23
.Lxta.endpoint_labels8:
	out res[r7], r4
	ldw r1, sp[10]                  # 4-byte Folded Reload
.Ltmp268:
	#DEBUG_VALUE: i2c_slave:i <- R1
	.loc	2 209 0                 # /home/evgeny/git/104/UI-01_sw1_hw1/lib_i2c/src/i2c_slave.xc:209:0
	ldw r0, r1[0]
	.loc	2 209 0                 # /home/evgeny/git/104/UI-01_sw1_hw1/lib_i2c/src/i2c_slave.xc:209:0
	ldw r1, r1[3]
.Ltmp269:
	#DEBUG_VALUE: i2c_slave:i <- [SP+40]
	.loc	2 209 0                 # /home/evgeny/git/104/UI-01_sw1_hw1/lib_i2c/src/i2c_slave.xc:209:0
	ldw r2, r1[3]
	.loc	2 209 0                 # /home/evgeny/git/104/UI-01_sw1_hw1/lib_i2c/src/i2c_slave.xc:209:0
	ldw r1, sp[8]                   # 4-byte Folded Reload
	zext r1, 8
.Lxta.call_labels1:
	bla r2
.Ltmp270:
	#DEBUG_VALUE: ack <- R0
	.loc	2 210 13                # /home/evgeny/git/104/UI-01_sw1_hw1/lib_i2c/src/i2c_slave.xc:210:13
	eq r0, r0, 1
.Ltmp271:
	bf r0, .LBB30_54
.Ltmp272:
# BB#52:                                # %iftrue195
                                        #   in Loop: Header=BB30_1 Depth=1
.Lxtalabel46:
	#DEBUG_VALUE: i2c_slave:i <- [SP+40]
	#DEBUG_VALUE: i2c_slave:p_scl <- R7
	#DEBUG_VALUE: i2c_slave:p_sda <- R6
	#DEBUG_VALUE: i2c_slave:device_addr <- undef
	#DEBUG_VALUE: stop_bit_check <- 0
	.loc	2 212 0                 # /home/evgeny/git/104/UI-01_sw1_hw1/lib_i2c/src/i2c_slave.xc:212:0
	setc res[r6], 1
	.loc	2 212 0                 # /home/evgeny/git/104/UI-01_sw1_hw1/lib_i2c/src/i2c_slave.xc:212:0
.Ltmp273:
.Lxta.endpoint_labels9:
	in r0, res[r6]
	bu .LBB30_53
.Ltmp274:
.LBB30_39:                              # %iffalse102
                                        #   in Loop: Header=BB30_1 Depth=1
.Lxtalabel47:
	#DEBUG_VALUE: i2c_slave:i <- [SP+40]
	#DEBUG_VALUE: i2c_slave:p_scl <- R7
	#DEBUG_VALUE: i2c_slave:p_sda <- R6
	#DEBUG_VALUE: i2c_slave:device_addr <- undef
	ldc r0, 8
	ldw r1, sp[9]                   # 4-byte Folded Reload
	.loc	2 156 11                # /home/evgeny/git/104/UI-01_sw1_hw1/lib_i2c/src/i2c_slave.xc:156:11
	lss r0, r1, r0
	.loc	2 156 11                # /home/evgeny/git/104/UI-01_sw1_hw1/lib_i2c/src/i2c_slave.xc:156:11
	bf r0, .LBB30_73
.Ltmp275:
# BB#40:                                # %iftrue118
                                        #   in Loop: Header=BB30_1 Depth=1
.Lxtalabel48:
	#DEBUG_VALUE: i2c_slave:i <- [SP+40]
	#DEBUG_VALUE: i2c_slave:p_scl <- R7
	#DEBUG_VALUE: i2c_slave:p_sda <- R6
	#DEBUG_VALUE: i2c_slave:device_addr <- undef
	ldw r4, sp[8]                   # 4-byte Folded Reload
	.loc	2 157 13                # /home/evgeny/git/104/UI-01_sw1_hw1/lib_i2c/src/i2c_slave.xc:157:13
	bf r1, .LBB30_41
.Ltmp276:
# BB#45:                                # %iffalse131
                                        #   in Loop: Header=BB30_1 Depth=1
.Lxtalabel49:
	#DEBUG_VALUE: i2c_slave:i <- [SP+40]
	#DEBUG_VALUE: i2c_slave:p_scl <- R7
	#DEBUG_VALUE: i2c_slave:p_sda <- R6
	#DEBUG_VALUE: i2c_slave:device_addr <- undef
	.loc	2 172 34                # /home/evgeny/git/104/UI-01_sw1_hw1/lib_i2c/src/i2c_slave.xc:172:34
	mov r0, r4
	zext r0, 1
	.loc	2 172 34                # /home/evgeny/git/104/UI-01_sw1_hw1/lib_i2c/src/i2c_slave.xc:172:34
.Lxta.endpoint_labels10:
	out res[r6], r0
	bu .LBB30_42
.Ltmp277:
.LBB30_72:                              # %iffalse50
                                        #   in Loop: Header=BB30_1 Depth=1
.Lxtalabel50:
	#DEBUG_VALUE: i2c_slave:i <- [SP+40]
	#DEBUG_VALUE: i2c_slave:p_scl <- R7
	#DEBUG_VALUE: i2c_slave:p_sda <- R6
	#DEBUG_VALUE: i2c_slave:device_addr <- undef
	.loc	2 87 0                  # /home/evgeny/git/104/UI-01_sw1_hw1/lib_i2c/src/i2c_slave.xc:87:0
	ldw r1, r1[1]
.Ltmp278:
.LBB30_20:                              # %ifdone48
                                        #   in Loop: Header=BB30_1 Depth=1
.Lxtalabel51:
	mov r4, r2
	.loc	2 85 0                  # /home/evgeny/git/104/UI-01_sw1_hw1/lib_i2c/src/i2c_slave.xc:85:0
.Lxta.call_labels2:
	bla r1
	mov r1, r4
.Ltmp279:
	#DEBUG_VALUE: ack <- R0
	#DEBUG_VALUE: i2c_slave:i <- [SP+40]
	#DEBUG_VALUE: i2c_slave:p_scl <- R7
	#DEBUG_VALUE: i2c_slave:p_sda <- R6
	#DEBUG_VALUE: i2c_slave:device_addr <- undef
	#DEBUG_VALUE: ignore_stop_bit <- 0
	.loc	2 91 9                  # /home/evgeny/git/104/UI-01_sw1_hw1/lib_i2c/src/i2c_slave.xc:91:9
	eq r0, r0, 1
.Ltmp280:
	.loc	2 91 9                  # /home/evgeny/git/104/UI-01_sw1_hw1/lib_i2c/src/i2c_slave.xc:91:9
	bf r0, .LBB30_23
.Ltmp281:
# BB#21:                                # %iftrue58
                                        #   in Loop: Header=BB30_1 Depth=1
.Lxtalabel52:
	#DEBUG_VALUE: i2c_slave:i <- [SP+40]
	#DEBUG_VALUE: i2c_slave:p_scl <- R7
	#DEBUG_VALUE: i2c_slave:p_sda <- R6
	#DEBUG_VALUE: i2c_slave:device_addr <- undef
	#DEBUG_VALUE: ignore_stop_bit <- 0
	.loc	2 93 0                  # /home/evgeny/git/104/UI-01_sw1_hw1/lib_i2c/src/i2c_slave.xc:93:0
	setc res[r6], 1
	.loc	2 93 0                  # /home/evgeny/git/104/UI-01_sw1_hw1/lib_i2c/src/i2c_slave.xc:93:0
.Ltmp282:
.Lxta.endpoint_labels11:
	in r0, res[r6]
	#DEBUG_VALUE: next_state <- 0
	mov r8, r1
	bu .LBB30_22
.Ltmp283:
.LBB30_23:                              # %iffalse63
                                        #   in Loop: Header=BB30_1 Depth=1
.Lxtalabel53:
	#DEBUG_VALUE: i2c_slave:i <- [SP+40]
	#DEBUG_VALUE: i2c_slave:p_scl <- R7
	#DEBUG_VALUE: i2c_slave:p_sda <- R6
	#DEBUG_VALUE: i2c_slave:device_addr <- undef
	#DEBUG_VALUE: ignore_stop_bit <- 0
	.loc	2 97 21                 # /home/evgeny/git/104/UI-01_sw1_hw1/lib_i2c/src/i2c_slave.xc:97:21
.Lxta.endpoint_labels12:
	out res[r6], r1
	mkmsk r8, 3
	.loc	2 99 0                  # /home/evgeny/git/104/UI-01_sw1_hw1/lib_i2c/src/i2c_slave.xc:99:0
	ldw r0, sp[7]                   # 4-byte Folded Reload
	bt r0, .LBB30_22
.Ltmp284:
# BB#24:                                # %iffalse63
                                        #   in Loop: Header=BB30_1 Depth=1
.Lxtalabel54:
	#DEBUG_VALUE: i2c_slave:i <- [SP+40]
	#DEBUG_VALUE: i2c_slave:p_scl <- R7
	#DEBUG_VALUE: i2c_slave:p_sda <- R6
	#DEBUG_VALUE: i2c_slave:device_addr <- undef
	#DEBUG_VALUE: ignore_stop_bit <- 0
	ldc r8, 6
.Ltmp285:
.LBB30_22:                              # %ifdone59
                                        #   in Loop: Header=BB30_1 Depth=1
.Lxtalabel55:
	mov r4, r1
.Ltmp286:
	#DEBUG_VALUE: i2c_slave:i <- [SP+40]
	#DEBUG_VALUE: i2c_slave:p_scl <- R7
	#DEBUG_VALUE: i2c_slave:p_sda <- R6
	#DEBUG_VALUE: i2c_slave:device_addr <- undef
	#DEBUG_VALUE: state <- 3
	#DEBUG_VALUE: ignore_stop_bit <- 0
	#DEBUG_VALUE: scl_val <- 1
	ldc r0, 10
	.loc	2 20 0                  # /home/evgeny/git/104/UI-01_sw1_hw1/lib_i2c/src/i2c_slave.xc:20:0
.Ltmp287:
.Lxta.call_labels3:
	bl delay_ticks
.Ltmp288:
	.loc	2 110 0                 # /home/evgeny/git/104/UI-01_sw1_hw1/lib_i2c/src/i2c_slave.xc:110:0
	setc res[r7], 1
	.loc	2 110 0                 # /home/evgeny/git/104/UI-01_sw1_hw1/lib_i2c/src/i2c_slave.xc:110:0
.Ltmp289:
.Lxta.endpoint_labels13:
	in r0, res[r7]
	mov r0, r4
	mkmsk r2, 1
	mkmsk r1, 2
	bu .LBB30_1
.Ltmp290:
.LBB30_12:                              # %ifdone27
                                        #   in Loop: Header=BB30_1 Depth=1
.Lxtalabel56:
	#DEBUG_VALUE: i2c_slave:i <- [SP+40]
	#DEBUG_VALUE: i2c_slave:p_scl <- R7
	#DEBUG_VALUE: i2c_slave:p_sda <- R6
	#DEBUG_VALUE: i2c_slave:device_addr <- undef
	#DEBUG_VALUE: bit <- R2
	.loc	2 61 9                  # /home/evgeny/git/104/UI-01_sw1_hw1/lib_i2c/src/i2c_slave.xc:61:9
	ldw r0, sp[6]                   # 4-byte Folded Reload
	ldw r1, sp[8]                   # 4-byte Folded Reload
	eq r0, r1, r0
	bt r0, .LBB30_14
.Ltmp291:
# BB#13:                                # %ifdone27
                                        #   in Loop: Header=BB30_1 Depth=1
.Lxtalabel57:
	#DEBUG_VALUE: i2c_slave:i <- [SP+40]
	#DEBUG_VALUE: i2c_slave:p_scl <- R7
	#DEBUG_VALUE: i2c_slave:p_sda <- R6
	#DEBUG_VALUE: i2c_slave:device_addr <- undef
	.loc	2 65 0                  # /home/evgeny/git/104/UI-01_sw1_hw1/lib_i2c/src/i2c_slave.xc:65:0
	ldw r2, sp[7]                   # 4-byte Folded Reload
.Ltmp292:
.LBB30_14:                              # %ifdone27
                                        #   in Loop: Header=BB30_1 Depth=1
.Lxtalabel58:
	#DEBUG_VALUE: i2c_slave:i <- [SP+40]
	#DEBUG_VALUE: i2c_slave:p_scl <- R7
	#DEBUG_VALUE: i2c_slave:p_sda <- R6
	#DEBUG_VALUE: i2c_slave:device_addr <- undef
	ldc r1, 2
	bt r0, .LBB30_16
.Ltmp293:
# BB#15:                                # %ifdone27
                                        #   in Loop: Header=BB30_1 Depth=1
.Lxtalabel59:
	#DEBUG_VALUE: i2c_slave:i <- [SP+40]
	#DEBUG_VALUE: i2c_slave:p_scl <- R7
	#DEBUG_VALUE: i2c_slave:p_sda <- R6
	#DEBUG_VALUE: i2c_slave:device_addr <- undef
	ldc r1, 5
.Ltmp294:
.LBB30_16:                              # %ifdone27
                                        #   in Loop: Header=BB30_1 Depth=1
.Lxtalabel60:
	#DEBUG_VALUE: i2c_slave:i <- [SP+40]
	#DEBUG_VALUE: i2c_slave:p_scl <- R7
	#DEBUG_VALUE: i2c_slave:p_sda <- R6
	#DEBUG_VALUE: i2c_slave:device_addr <- undef
	mov r0, r5
	stw r2, sp[7]                   # 4-byte Folded Spill
	ldc r2, 0
	mov r8, r9
	bu .LBB30_1
.Ltmp295:
.LBB30_38:                              # %iffalse109
                                        #   in Loop: Header=BB30_1 Depth=1
.Lxtalabel61:
	#DEBUG_VALUE: i2c_slave:i <- [SP+40]
	#DEBUG_VALUE: i2c_slave:p_scl <- R7
	#DEBUG_VALUE: i2c_slave:p_sda <- R6
	#DEBUG_VALUE: i2c_slave:device_addr <- undef
	#DEBUG_VALUE: scl_val <- 0
	.loc	2 152 0                 # /home/evgeny/git/104/UI-01_sw1_hw1/lib_i2c/src/i2c_slave.xc:152:0
	add r2, r2, 1
.Ltmp296:
	#DEBUG_VALUE: bitnum <- R2
	stw r2, sp[9]                   # 4-byte Folded Spill
.Ltmp297:
	#DEBUG_VALUE: bitnum <- [SP+36]
	mov r0, r5
	mov r2, r1
	bu .LBB30_44
.Ltmp298:
.LBB30_73:                              # %iffalse124
                                        #   in Loop: Header=BB30_1 Depth=1
.Lxtalabel62:
	#DEBUG_VALUE: i2c_slave:i <- [SP+40]
	#DEBUG_VALUE: i2c_slave:p_scl <- R7
	#DEBUG_VALUE: i2c_slave:p_sda <- R6
	#DEBUG_VALUE: i2c_slave:device_addr <- undef
	.loc	2 177 0                 # /home/evgeny/git/104/UI-01_sw1_hw1/lib_i2c/src/i2c_slave.xc:177:0
	setc res[r6], 1
	.loc	2 177 0                 # /home/evgeny/git/104/UI-01_sw1_hw1/lib_i2c/src/i2c_slave.xc:177:0
.Ltmp299:
.Lxta.endpoint_labels14:
	in r0, res[r6]
	bu .LBB30_43
.Ltmp300:
.LBB30_28:                              # %iffalse92
                                        #   in Loop: Header=BB30_1 Depth=1
.Lxtalabel63:
	#DEBUG_VALUE: i2c_slave:i <- [SP+40]
	#DEBUG_VALUE: i2c_slave:p_scl <- R7
	#DEBUG_VALUE: i2c_slave:p_sda <- R6
	#DEBUG_VALUE: i2c_slave:device_addr <- undef
	#DEBUG_VALUE: sda_val <- 0
	mov r0, r5
	ldc r1, 0
	stw r1, sp[9]                   # 4-byte Folded Spill
	mov r2, r4
	mov r10, r1
	mov r8, r9
	mov r1, r9
	bu .LBB30_1
.Ltmp301:
.LBB30_54:                              # %iffalse200
                                        #   in Loop: Header=BB30_1 Depth=1
.Lxtalabel64:
	#DEBUG_VALUE: i2c_slave:i <- [SP+40]
	#DEBUG_VALUE: i2c_slave:p_scl <- R7
	#DEBUG_VALUE: i2c_slave:p_sda <- R6
	#DEBUG_VALUE: i2c_slave:device_addr <- undef
	#DEBUG_VALUE: stop_bit_check <- 0
	.loc	2 215 25                # /home/evgeny/git/104/UI-01_sw1_hw1/lib_i2c/src/i2c_slave.xc:215:25
.Lxta.endpoint_labels15:
	out res[r6], r4
.Ltmp302:
.LBB30_53:                              # %ifdone196
                                        #   in Loop: Header=BB30_1 Depth=1
.Lxtalabel65:
	#DEBUG_VALUE: i2c_slave:i <- [SP+40]
	#DEBUG_VALUE: i2c_slave:p_scl <- R7
	#DEBUG_VALUE: i2c_slave:p_sda <- R6
	#DEBUG_VALUE: i2c_slave:device_addr <- undef
	#DEBUG_VALUE: state <- 3
	#DEBUG_VALUE: stop_bit_check <- 0
	ldc r0, 10
	.loc	2 20 0                  # /home/evgeny/git/104/UI-01_sw1_hw1/lib_i2c/src/i2c_slave.xc:20:0
.Ltmp303:
.Lxta.call_labels4:
	bl delay_ticks
.Ltmp304:
	.loc	2 222 0                 # /home/evgeny/git/104/UI-01_sw1_hw1/lib_i2c/src/i2c_slave.xc:222:0
	setc res[r7], 1
	.loc	2 222 0                 # /home/evgeny/git/104/UI-01_sw1_hw1/lib_i2c/src/i2c_slave.xc:222:0
.Ltmp305:
.Lxta.endpoint_labels16:
	in r0, res[r7]
	mov r0, r5
	stw r4, sp[11]                  # 4-byte Folded Spill
	ldc r1, 8
	stw r1, sp[9]                   # 4-byte Folded Spill
	mkmsk r2, 1
	mov r8, r9
	mkmsk r1, 2
	bu .LBB30_1
.Ltmp306:
.LBB30_41:                              # %iftrue125
                                        #   in Loop: Header=BB30_1 Depth=1
.Lxtalabel66:
	#DEBUG_VALUE: i2c_slave:i <- [SP+40]
	#DEBUG_VALUE: i2c_slave:p_scl <- R7
	#DEBUG_VALUE: i2c_slave:p_sda <- R6
	#DEBUG_VALUE: i2c_slave:device_addr <- undef
	ldc r0, 0
	.loc	2 159 25                # /home/evgeny/git/104/UI-01_sw1_hw1/lib_i2c/src/i2c_slave.xc:159:25
.Lxta.endpoint_labels17:
	out res[r7], r0
	ldw r1, sp[10]                  # 4-byte Folded Reload
.Ltmp307:
	#DEBUG_VALUE: i2c_slave:i <- R1
	.loc	2 160 0                 # /home/evgeny/git/104/UI-01_sw1_hw1/lib_i2c/src/i2c_slave.xc:160:0
	ldw r0, r1[0]
	.loc	2 160 0                 # /home/evgeny/git/104/UI-01_sw1_hw1/lib_i2c/src/i2c_slave.xc:160:0
	ldw r1, r1[3]
.Ltmp308:
	#DEBUG_VALUE: i2c_slave:i <- [SP+40]
	.loc	2 160 0                 # /home/evgeny/git/104/UI-01_sw1_hw1/lib_i2c/src/i2c_slave.xc:160:0
	ldw r1, r1[2]
	.loc	2 160 0                 # /home/evgeny/git/104/UI-01_sw1_hw1/lib_i2c/src/i2c_slave.xc:160:0
.Lxta.call_labels5:
	bla r1
	.loc	2 162 0                 # /home/evgeny/git/104/UI-01_sw1_hw1/lib_i2c/src/i2c_slave.xc:162:0
	bitrev r0, r0
	.loc	2 162 0                 # /home/evgeny/git/104/UI-01_sw1_hw1/lib_i2c/src/i2c_slave.xc:162:0
	shr r4, r0, 24
.Ltmp309:
	#DEBUG_VALUE: data <- R4
	.loc	2 165 34                # /home/evgeny/git/104/UI-01_sw1_hw1/lib_i2c/src/i2c_slave.xc:165:34
	mov r0, r4
	zext r0, 1
	.loc	2 165 34                # /home/evgeny/git/104/UI-01_sw1_hw1/lib_i2c/src/i2c_slave.xc:165:34
.Lxta.endpoint_labels18:
	out res[r6], r0
	ldc r0, 10
	.loc	2 20 0                  # /home/evgeny/git/104/UI-01_sw1_hw1/lib_i2c/src/i2c_slave.xc:20:0
.Ltmp310:
.Lxta.call_labels6:
	bl delay_ticks
.Ltmp311:
	.loc	2 170 0                 # /home/evgeny/git/104/UI-01_sw1_hw1/lib_i2c/src/i2c_slave.xc:170:0
	setc res[r7], 1
	.loc	2 170 0                 # /home/evgeny/git/104/UI-01_sw1_hw1/lib_i2c/src/i2c_slave.xc:170:0
.Ltmp312:
.Lxta.endpoint_labels19:
	in r0, res[r7]
.Ltmp313:
.LBB30_42:                              # %ifdone126
                                        #   in Loop: Header=BB30_1 Depth=1
.Lxtalabel67:
	#DEBUG_VALUE: i2c_slave:i <- [SP+40]
	#DEBUG_VALUE: i2c_slave:p_scl <- R7
	#DEBUG_VALUE: i2c_slave:p_sda <- R6
	#DEBUG_VALUE: i2c_slave:device_addr <- undef
	.loc	2 174 0                 # /home/evgeny/git/104/UI-01_sw1_hw1/lib_i2c/src/i2c_slave.xc:174:0
	ashr r4, r4, 1
.Ltmp314:
	#DEBUG_VALUE: data <- R4
	stw r4, sp[8]                   # 4-byte Folded Spill
.Ltmp315:
.LBB30_43:                              # %LoopBody
                                        #   in Loop: Header=BB30_1 Depth=1
.Lxtalabel68:
	#DEBUG_VALUE: data <- [SP+32]
	mov r0, r5
	mkmsk r2, 1
.Ltmp316:
.LBB30_44:                              # %LoopBody
                                        #   in Loop: Header=BB30_1 Depth=1
.Lxtalabel69:
	mov r8, r9
	mkmsk r1, 3
	bu .LBB30_1
.Ltmp197:                               # Block address taken
.LBB30_5:                               # %selectcase
.Lxtalabel70:
.Ltmp317:
	#DEBUG_VALUE: i2c_slave:i <- [SP+40]
	#DEBUG_VALUE: i2c_slave:device_addr <- undef
	#DEBUG_VALUE: state <- 0
	#DEBUG_VALUE: next_state <- 0
	#DEBUG_VALUE: sda_val <- 0
	#DEBUG_VALUE: bitnum <- 0
	#DEBUG_VALUE: rw <- 0
	#DEBUG_VALUE: stop_bit_check <- 0
	#DEBUG_VALUE: ignore_stop_bit <- 1
	.loc	2 40 0                  # /home/evgeny/git/104/UI-01_sw1_hw1/lib_i2c/src/i2c_slave.xc:40:0
	chkct res[r0], 1
	mkmsk r0, 1
	.loc	2 40 0                  # /home/evgeny/git/104/UI-01_sw1_hw1/lib_i2c/src/i2c_slave.xc:40:0
	ldw r1, sp[10]                  # 4-byte Folded Reload
	stw r0, r1[2]
	ldw r10, sp[18]                 # 4-byte Folded Reload
	ldd r9, r8, sp[8]               # 4-byte Folded Reload
	ldd r7, r6, sp[7]               # 4-byte Folded Reload
	ldd r5, r4, sp[6]               # 4-byte Folded Reload
	retsp 20
.Ltmp318:
	# RETURN_REG_HOLDER
.Ltmp319:
	.cc_bottom i2c_slave.function
	.set	i2c_slave.nstackwords,((_i.i2c_slave_callback_if.ack_read_request.max.nstackwords $M _i.i2c_slave_callback_if.master_sent_data.max.nstackwords $M _i.i2c_slave_callback_if.master_requires_data.max.nstackwords $M delay_ticks.nstackwords $M _i.i2c_slave_callback_if.stop_bit.max.nstackwords) + 20)
	.globl	i2c_slave.nstackwords
	.set	i2c_slave.maxcores,_i.i2c_slave_callback_if.ack_read_request.max.maxcores $M _i.i2c_slave_callback_if.ack_write_request.max.maxcores $M _i.i2c_slave_callback_if.master_requires_data.max.maxcores $M _i.i2c_slave_callback_if.master_sent_data.max.maxcores $M _i.i2c_slave_callback_if.stop_bit.max.maxcores $M delay_ticks.maxcores $M 1
	.globl	i2c_slave.maxcores
	.set	i2c_slave.maxtimers,_i.i2c_slave_callback_if.ack_read_request.max.maxtimers $M _i.i2c_slave_callback_if.ack_write_request.max.maxtimers $M _i.i2c_slave_callback_if.master_requires_data.max.maxtimers $M _i.i2c_slave_callback_if.master_sent_data.max.maxtimers $M _i.i2c_slave_callback_if.stop_bit.max.maxtimers $M delay_ticks.maxtimers $M 0
	.globl	i2c_slave.maxtimers
	.set	i2c_slave.maxchanends,_i.i2c_slave_callback_if.ack_read_request.max.maxchanends $M _i.i2c_slave_callback_if.ack_write_request.max.maxchanends $M _i.i2c_slave_callback_if.master_requires_data.max.maxchanends $M _i.i2c_slave_callback_if.master_sent_data.max.maxchanends $M _i.i2c_slave_callback_if.stop_bit.max.maxchanends $M delay_ticks.maxchanends $M 0
	.globl	i2c_slave.maxchanends
.Ltmp320:
	.size	i2c_slave, .Ltmp320-i2c_slave
.Lfunc_end30:
	.cfi_endproc

	.globl	i2c_slave.init.1
	.align	4
	.type	i2c_slave.init.1,@function
	.cc_top i2c_slave.init.1.function,i2c_slave.init.1
i2c_slave.init.1:                       # @i2c_slave.init.1
.Lfunc_begin31:
	.file	3 "<synthesized>"
	.loc	3 0 0                   # <synthesized>:0:0
	.cfi_startproc
	.issue_mode single
# BB#0:                                 # %allocas
	ENTSP_lu6 0
	#DEBUG_VALUE: i2c_slave.init.1:i2c_slave.init.1.state_ptr <- R0
	ldw r1, r0[1]
	bf r1, .LBB31_2
# BB#1:                                 # %iffalse
	#DEBUG_VALUE: i2c_slave.init.1:i2c_slave.init.1.state_ptr <- R0
	ldc r1, 0
	stw r1, r0[1]
	.loc	2 28 0 prologue_end     # /home/evgeny/git/104/UI-01_sw1_hw1/lib_i2c/src/i2c_slave.xc:28:0
.Ltmp321:
	stw r1, r0[6]
	.loc	2 29 0                  # /home/evgeny/git/104/UI-01_sw1_hw1/lib_i2c/src/i2c_slave.xc:29:0
.Ltmp322:
	stw r1, r0[7]
	.loc	2 30 0                  # /home/evgeny/git/104/UI-01_sw1_hw1/lib_i2c/src/i2c_slave.xc:30:0
.Ltmp323:
	stw r1, r0[8]
	.loc	2 32 0                  # /home/evgeny/git/104/UI-01_sw1_hw1/lib_i2c/src/i2c_slave.xc:32:0
.Ltmp324:
	stw r1, r0[10]
	ldc r2, 48
	.loc	2 34 0                  # /home/evgeny/git/104/UI-01_sw1_hw1/lib_i2c/src/i2c_slave.xc:34:0
.Ltmp325:
	add r2, r0, r2
	.loc	2 34 0                  # /home/evgeny/git/104/UI-01_sw1_hw1/lib_i2c/src/i2c_slave.xc:34:0
	stw r1, r2[0]
	ldc r2, 52
	.loc	2 35 0                  # /home/evgeny/git/104/UI-01_sw1_hw1/lib_i2c/src/i2c_slave.xc:35:0
.Ltmp326:
	add r2, r0, r2
	.loc	2 35 0                  # /home/evgeny/git/104/UI-01_sw1_hw1/lib_i2c/src/i2c_slave.xc:35:0
	stw r1, r2[0]
	ldc r1, 56
	.loc	2 36 0                  # /home/evgeny/git/104/UI-01_sw1_hw1/lib_i2c/src/i2c_slave.xc:36:0
.Ltmp327:
	add r1, r0, r1
	mkmsk r2, 1
	.loc	2 36 0                  # /home/evgeny/git/104/UI-01_sw1_hw1/lib_i2c/src/i2c_slave.xc:36:0
	stw r2, r1[0]
	.loc	2 37 0                  # /home/evgeny/git/104/UI-01_sw1_hw1/lib_i2c/src/i2c_slave.xc:37:0
	ldw r1, r0[4]
	.loc	2 37 0                  # /home/evgeny/git/104/UI-01_sw1_hw1/lib_i2c/src/i2c_slave.xc:37:0
	setd res[r1], r2
	.loc	2 37 0                  # /home/evgeny/git/104/UI-01_sw1_hw1/lib_i2c/src/i2c_slave.xc:37:0
	setc res[r1], 17
	.loc	2 37 0                  # /home/evgeny/git/104/UI-01_sw1_hw1/lib_i2c/src/i2c_slave.xc:37:0
.Ltmp328:
.Lxta.endpoint_labels20:
	in r1, res[r1]
	stw r2, r0[0]
.Ltmp329:
.LBB31_2:                               # %return
	retsp 0
	# RETURN_REG_HOLDER
	.cc_bottom i2c_slave.init.1.function
	.set	i2c_slave.init.1.nstackwords,0
	.globl	i2c_slave.init.1.nstackwords
	.set	i2c_slave.init.1.maxcores,1
	.globl	i2c_slave.init.1.maxcores
	.set	i2c_slave.init.1.maxtimers,0
	.globl	i2c_slave.init.1.maxtimers
	.set	i2c_slave.init.1.maxchanends,0
	.globl	i2c_slave.init.1.maxchanends
.Ltmp330:
	.size	i2c_slave.init.1, .Ltmp330-i2c_slave.init.1
.Lfunc_end31:
	.cfi_endproc

	.globl	i2c_slave.init.0
	.align	4
	.type	i2c_slave.init.0,@function
	.cc_top i2c_slave.init.0.function,i2c_slave.init.0
i2c_slave.init.0:                       # @i2c_slave.init.0
	.cfi_startproc
	.issue_mode single
# BB#0:                                 # %allocas
.Lxtalabel71:
	ENTSP_lu6 0
	#DEBUG_VALUE: i2c_slave.init.0:i2c_slave.init.0.state_ptr <- R0
	ldw r11, sp[1]
	stw r1, r0[2]
	stw r2, r0[3]
	stw r3, r0[4]
	ldc r1, 20
	st8 r11, r0[r1]
	ldc r1, 0
	stw r1, r0[0]
	ldap r11, i2c_slave.init.1
	stw r11, r0[1]
	retsp 0
	# RETURN_REG_HOLDER
	.cc_bottom i2c_slave.init.0.function
	.set	i2c_slave.init.0.nstackwords,0
	.globl	i2c_slave.init.0.nstackwords
	.set	i2c_slave.init.0.maxcores,1
	.globl	i2c_slave.init.0.maxcores
	.set	i2c_slave.init.0.maxtimers,0
	.globl	i2c_slave.init.0.maxtimers
	.set	i2c_slave.init.0.maxchanends,0
	.globl	i2c_slave.init.0.maxchanends
.Ltmp331:
	.size	i2c_slave.init.0, .Ltmp331-i2c_slave.init.0
	.cfi_endproc

	.globl	i2c_slave.select.yield.enable
	.align	4
	.type	i2c_slave.select.yield.enable,@function
	.cc_top i2c_slave.select.yield.enable.function,i2c_slave.select.yield.enable
i2c_slave.select.yield.enable:          # @i2c_slave.select.yield.enable
.Lfunc_begin33:
	.loc	3 0 0                   # <synthesized>:0:0
	.cfi_startproc
	.issue_mode single
# BB#0:                                 # %allocas
	ENTSP_lu6 4
.Ltmp332:
	.cfi_def_cfa_offset 16
.Ltmp333:
	.cfi_offset 15, 0
	stw r4, sp[2]                   # 4-byte Folded Spill
.Ltmp334:
	.cfi_offset 4, -8
	#DEBUG_VALUE: i2c_slave.select.yield.enable:i2c_slave.select.state_ptr <- R0
	mov r4, r0
.Ltmp335:
	#DEBUG_VALUE: i2c_slave.select.yield.enable:i2c_slave.select.state_ptr <- R4
                                        # kill: R0<def> R4<kill>
	bl i2c_slave.init.1
	ldw r0, r4[0]
	bf r0, .LBB33_1
.Ltmp336:
# BB#2:                                 # %iftrue
	#DEBUG_VALUE: i2c_slave.select.yield.enable:i2c_slave.select.state_ptr <- R4
	.loc	3 39 5 prologue_end     # <synthesized>:39:5
	ldw r0, r4[2]
	.loc	3 39 5                  # <synthesized>:39:5
	ldw r0, r0[1]
	bf r0, .LBB33_4
.Ltmp337:
# BB#3:                                 # %interfacenotnull
	#DEBUG_VALUE: i2c_slave.select.yield.enable:i2c_slave.select.state_ptr <- R4
	.loc	3 39 5                  # <synthesized>:39:5
	ldap r11, i2c_slave.select.yield.case.0
	setv res[r0], r11
	.loc	3 39 5                  # <synthesized>:39:5
	mov r11, r4
	setev res[r0], r11
	.loc	3 39 5                  # <synthesized>:39:5
	eeu res[r0]
.Ltmp338:
.LBB33_4:                               # %selectguarddone
	#DEBUG_VALUE: i2c_slave.select.yield.enable:i2c_slave.select.state_ptr <- R4
	.loc	3 39 5                  # <synthesized>:39:5
	ldw r0, r4[6]
	bf r0, .LBB33_6
.Ltmp339:
# BB#5:                                 # %lhsfalse
	#DEBUG_VALUE: i2c_slave.select.yield.enable:i2c_slave.select.state_ptr <- R4
	.loc	3 39 5                  # <synthesized>:39:5
	ldw r0, r4[3]
	.loc	3 39 5                  # <synthesized>:39:5
	ldw r1, r4[9]
	.loc	3 39 5                  # <synthesized>:39:5
	setd res[r0], r1
	.loc	3 39 5                  # <synthesized>:39:5
	setc res[r0], 17
	.loc	3 39 5                  # <synthesized>:39:5
	ldap r11, i2c_slave.select.yield.case.1
	setv res[r0], r11
	.loc	3 39 5                  # <synthesized>:39:5
	mov r11, r4
	setev res[r0], r11
	.loc	3 39 5                  # <synthesized>:39:5
	eeu res[r0]
	ldc r0, 52
	.loc	3 39 5                  # <synthesized>:39:5
	add r0, r4, r0
	.loc	3 39 5                  # <synthesized>:39:5
	ldw r0, r0[0]
	bf r0, .LBB33_7
.Ltmp340:
.LBB33_6:                               # %selectguardtrue25.critedge
	.loc	3 39 5                  # <synthesized>:39:5
	ldw r0, r4[4]
	.loc	3 39 5                  # <synthesized>:39:5
	ldw r1, r4[8]
	.loc	3 39 5                  # <synthesized>:39:5
	setd res[r0], r1
	.loc	3 39 5                  # <synthesized>:39:5
	setc res[r0], 17
	.loc	3 39 5                  # <synthesized>:39:5
	ldap r11, i2c_slave.select.yield.case.2
	setv res[r0], r11
	.loc	3 39 5                  # <synthesized>:39:5
	mov r11, r4
	setev res[r0], r11
	.loc	3 39 5                  # <synthesized>:39:5
	eeu res[r0]
.Ltmp341:
.LBB33_7:                               # %return
	mkmsk r0, 1
	bu .LBB33_8
.LBB33_1:
	ldc r0, 0
.LBB33_8:                               # %return
	ldw r4, sp[2]                   # 4-byte Folded Reload
	retsp 4
	# RETURN_REG_HOLDER
	.cc_bottom i2c_slave.select.yield.enable.function
	.set	i2c_slave.select.yield.enable.nstackwords,(i2c_slave.init.1.nstackwords + 4)
	.globl	i2c_slave.select.yield.enable.nstackwords
	.set	i2c_slave.select.yield.enable.maxcores,i2c_slave.init.1.maxcores $M 1
	.globl	i2c_slave.select.yield.enable.maxcores
	.set	i2c_slave.select.yield.enable.maxtimers,i2c_slave.init.1.maxtimers $M 0
	.globl	i2c_slave.select.yield.enable.maxtimers
	.set	i2c_slave.select.yield.enable.maxchanends,i2c_slave.init.1.maxchanends $M 0
	.globl	i2c_slave.select.yield.enable.maxchanends
.Ltmp342:
	.size	i2c_slave.select.yield.enable, .Ltmp342-i2c_slave.select.yield.enable
.Lfunc_end33:
	.cfi_endproc

	.globl	i2c_slave.select.enable
	.align	4
	.type	i2c_slave.select.enable,@function
	.cc_top i2c_slave.select.enable.function,i2c_slave.select.enable
i2c_slave.select.enable:                # @i2c_slave.select.enable
.Lfunc_begin34:
	.loc	3 0 0                   # <synthesized>:0:0
	.cfi_startproc
	.issue_mode single
# BB#0:                                 # %allocas
	ENTSP_lu6 0
	#DEBUG_VALUE: i2c_slave.select.enable:i2c_slave.select.state_ptr <- R0
	ldw r1, r0[0]
	bf r1, .LBB34_1
.Ltmp343:
# BB#2:                                 # %iftrue
	#DEBUG_VALUE: i2c_slave.select.enable:i2c_slave.select.state_ptr <- R0
	.loc	3 39 5 prologue_end     # <synthesized>:39:5
	ldw r1, r0[2]
	.loc	3 39 5                  # <synthesized>:39:5
	ldw r1, r1[1]
	bf r1, .LBB34_4
.Ltmp344:
# BB#3:                                 # %interfacenotnull
	#DEBUG_VALUE: i2c_slave.select.enable:i2c_slave.select.state_ptr <- R0
	.loc	3 39 5                  # <synthesized>:39:5
	ldap r11, i2c_slave.select.case.0
	setv res[r1], r11
	.loc	3 39 5                  # <synthesized>:39:5
	mov r11, r0
	setev res[r1], r11
	.loc	3 39 5                  # <synthesized>:39:5
	eeu res[r1]
.Ltmp345:
.LBB34_4:                               # %selectguarddone
	#DEBUG_VALUE: i2c_slave.select.enable:i2c_slave.select.state_ptr <- R0
	.loc	3 39 5                  # <synthesized>:39:5
	ldw r1, r0[6]
	bf r1, .LBB34_6
.Ltmp346:
# BB#5:                                 # %lhsfalse
	#DEBUG_VALUE: i2c_slave.select.enable:i2c_slave.select.state_ptr <- R0
	.loc	3 39 5                  # <synthesized>:39:5
	ldw r1, r0[3]
	.loc	3 39 5                  # <synthesized>:39:5
	ldw r2, r0[9]
	.loc	3 39 5                  # <synthesized>:39:5
	setd res[r1], r2
	.loc	3 39 5                  # <synthesized>:39:5
	setc res[r1], 17
	.loc	3 39 5                  # <synthesized>:39:5
	ldap r11, i2c_slave.select.case.1
	setv res[r1], r11
	.loc	3 39 5                  # <synthesized>:39:5
	mov r11, r0
	setev res[r1], r11
	.loc	3 39 5                  # <synthesized>:39:5
	eeu res[r1]
	ldc r1, 52
	.loc	3 39 5                  # <synthesized>:39:5
	add r1, r0, r1
	.loc	3 39 5                  # <synthesized>:39:5
	ldw r1, r1[0]
	bf r1, .LBB34_7
.Ltmp347:
.LBB34_6:                               # %selectguardtrue24.critedge
	.loc	3 39 5                  # <synthesized>:39:5
	ldw r1, r0[4]
	.loc	3 39 5                  # <synthesized>:39:5
	ldw r2, r0[8]
	.loc	3 39 5                  # <synthesized>:39:5
	setd res[r1], r2
	.loc	3 39 5                  # <synthesized>:39:5
	setc res[r1], 17
	.loc	3 39 5                  # <synthesized>:39:5
	ldap r11, i2c_slave.select.case.2
	setv res[r1], r11
	.loc	3 39 5                  # <synthesized>:39:5
	mov r11, r0
	setev res[r1], r11
	.loc	3 39 5                  # <synthesized>:39:5
	eeu res[r1]
.Ltmp348:
.LBB34_7:                               # %return
	mkmsk r0, 1
	bu .LBB34_8
.LBB34_1:
	ldc r0, 0
.LBB34_8:                               # %return
	retsp 0
	# RETURN_REG_HOLDER
	.cc_bottom i2c_slave.select.enable.function
	.set	i2c_slave.select.enable.nstackwords,0
	.globl	i2c_slave.select.enable.nstackwords
	.set	i2c_slave.select.enable.maxcores,1
	.globl	i2c_slave.select.enable.maxcores
	.set	i2c_slave.select.enable.maxtimers,0
	.globl	i2c_slave.select.enable.maxtimers
	.set	i2c_slave.select.enable.maxchanends,0
	.globl	i2c_slave.select.enable.maxchanends
.Ltmp349:
	.size	i2c_slave.select.enable, .Ltmp349-i2c_slave.select.enable
.Lfunc_end34:
	.cfi_endproc

	.globl	i2c_slave.fini
	.align	4
	.type	i2c_slave.fini,@function
	.cc_top i2c_slave.fini.function,i2c_slave.fini
i2c_slave.fini:                         # @i2c_slave.fini
	.cfi_startproc
	.issue_mode single
# BB#0:                                 # %allocas
	ENTSP_lu6 0
	#DEBUG_VALUE: i2c_slave.fini:i2c_slave.fini.state_ptr <- R0
	ldw r0, r0[0]
	bf r0, .LBB35_2
.LBB35_1:                               # %LoopTest
                                        # =>This Inner Loop Header: Depth=1
	bu .LBB35_1
.LBB35_2:                               # %return
	retsp 0
	# RETURN_REG_HOLDER
	.cc_bottom i2c_slave.fini.function
	.set	i2c_slave.fini.nstackwords,0
	.globl	i2c_slave.fini.nstackwords
	.set	i2c_slave.fini.maxcores,1
	.globl	i2c_slave.fini.maxcores
	.set	i2c_slave.fini.maxtimers,0
	.globl	i2c_slave.fini.maxtimers
	.set	i2c_slave.fini.maxchanends,0
	.globl	i2c_slave.fini.maxchanends
.Ltmp350:
	.size	i2c_slave.fini, .Ltmp350-i2c_slave.fini
	.cfi_endproc

	.align	4
	.type	i2c_slave.select.yield.case.0,@function
	.cc_top i2c_slave.select.yield.case.0.function,i2c_slave.select.yield.case.0
i2c_slave.select.yield.case.0:          # @i2c_slave.select.yield.case.0
.Lfunc_begin36:
	.loc	2 40 0                  # /home/evgeny/git/104/UI-01_sw1_hw1/lib_i2c/src/i2c_slave.xc:40:0
	.cfi_startproc
	.issue_mode single
# BB#0:                                 # %allocas
.Lxtalabel72:
	ENTSP_lu6 0
	get r11, ed
	.loc	2 40 0 prologue_end     # /home/evgeny/git/104/UI-01_sw1_hw1/lib_i2c/src/i2c_slave.xc:40:0
.Ltmp351:
	ldw r0, r11[2]
	.loc	2 40 0                  # /home/evgeny/git/104/UI-01_sw1_hw1/lib_i2c/src/i2c_slave.xc:40:0
	ldw r1, r0[1]
	.loc	2 40 0                  # /home/evgeny/git/104/UI-01_sw1_hw1/lib_i2c/src/i2c_slave.xc:40:0
	chkct res[r1], 1
	mkmsk r1, 1
	.loc	2 40 0                  # /home/evgeny/git/104/UI-01_sw1_hw1/lib_i2c/src/i2c_slave.xc:40:0
	stw r1, r0[2]
	ldc r0, 0
	stw r0, r11[0]
	retsp 0
	# RETURN_REG_HOLDER
.Ltmp352:
	.cc_bottom i2c_slave.select.yield.case.0.function
	.set	i2c_slave.select.yield.case.0.nstackwords,0
	.set	i2c_slave.select.yield.case.0.maxcores,1
	.set	i2c_slave.select.yield.case.0.maxtimers,0
	.set	i2c_slave.select.yield.case.0.maxchanends,0
.Ltmp353:
	.size	i2c_slave.select.yield.case.0, .Ltmp353-i2c_slave.select.yield.case.0
.Lfunc_end36:
	.cfi_endproc

	.align	4
	.type	i2c_slave.select.yield.case.1,@function
	.cc_top i2c_slave.select.yield.case.1.function,i2c_slave.select.yield.case.1
i2c_slave.select.yield.case.1:          # @i2c_slave.select.yield.case.1
.Lfunc_begin37:
	.loc	2 42 0                  # /home/evgeny/git/104/UI-01_sw1_hw1/lib_i2c/src/i2c_slave.xc:42:0
	.cfi_startproc
	.issue_mode single
# BB#0:                                 # %allocas
.Lxtalabel73:
	ENTSP_lu6 6
.Ltmp354:
	.cfi_def_cfa_offset 24
.Ltmp355:
	.cfi_offset 15, 0
	std r5, r4, sp[1]               # 4-byte Folded Spill
.Ltmp356:
	.cfi_offset 4, -16
.Ltmp357:
	.cfi_offset 5, -12
	std r7, r6, sp[2]               # 4-byte Folded Spill
.Ltmp358:
	.cfi_offset 6, -8
.Ltmp359:
	.cfi_offset 7, -4
	get r11, ed
	mov r4, r11
	.loc	2 42 0 prologue_end     # /home/evgeny/git/104/UI-01_sw1_hw1/lib_i2c/src/i2c_slave.xc:42:0
.Ltmp360:
	ldw r0, r4[3]
	.loc	2 42 0                  # /home/evgeny/git/104/UI-01_sw1_hw1/lib_i2c/src/i2c_slave.xc:42:0
.Ltmp361:
.Lxta.endpoint_labels21:
	in r1, res[r0]
.Ltmp362:
	.loc	2 43 0                  # /home/evgeny/git/104/UI-01_sw1_hw1/lib_i2c/src/i2c_slave.xc:43:0
	ldw r1, r4[6]
	.loc	2 43 0                  # /home/evgeny/git/104/UI-01_sw1_hw1/lib_i2c/src/i2c_slave.xc:43:0
	sub r1, r1, 1
	ldc r5, 6
	lsu r2, r5, r1
	bt r2, .LBB37_48
# BB#1:                                 # %allocas
.Lxtalabel74:

	.xtabranch .Ljumptable1+2,.Ljumptable1+4,.Ljumptable1+6,.Ljumptable1+8,.Ljumptable1+10,.Ljumptable1+12,.Ljumptable1+14
.Ljumptable1:
		
	bru r1
	.jmptable .LBB37_2,.LBB37_15,.LBB37_11,.LBB37_21,.LBB37_47,.LBB37_38,.LBB37_28
.LBB37_2:                               # %switchcase
.Lxtalabel75:
	.loc	2 46 9                  # /home/evgeny/git/104/UI-01_sw1_hw1/lib_i2c/src/i2c_slave.xc:46:9
	ldw r0, r4[9]
	.loc	2 46 9                  # /home/evgeny/git/104/UI-01_sw1_hw1/lib_i2c/src/i2c_slave.xc:46:9
	bf r0, .LBB37_3
# BB#4:                                 # %ifdone
.Lxtalabel76:
	.loc	2 52 0                  # /home/evgeny/git/104/UI-01_sw1_hw1/lib_i2c/src/i2c_slave.xc:52:0
.Ltmp363:
	ldw r0, r4[4]
	.loc	2 52 0                  # /home/evgeny/git/104/UI-01_sw1_hw1/lib_i2c/src/i2c_slave.xc:52:0
	setc res[r0], 1
	.loc	2 52 0                  # /home/evgeny/git/104/UI-01_sw1_hw1/lib_i2c/src/i2c_slave.xc:52:0
.Lxta.endpoint_labels22:
	in r0, res[r0]
.Ltmp364:
	#DEBUG_VALUE: bit <- R0
	.loc	2 53 9                  # /home/evgeny/git/104/UI-01_sw1_hw1/lib_i2c/src/i2c_slave.xc:53:9
	ldw r1, r4[10]
	.loc	2 54 0                  # /home/evgeny/git/104/UI-01_sw1_hw1/lib_i2c/src/i2c_slave.xc:54:0
	ldw r2, r4[11]
	.loc	2 53 9                  # /home/evgeny/git/104/UI-01_sw1_hw1/lib_i2c/src/i2c_slave.xc:53:9
	lss r3, r5, r1
	bt r3, .LBB37_6
.Ltmp365:
# BB#5:                                 # %iftrue7
.Lxtalabel77:
	#DEBUG_VALUE: bit <- R0
	.loc	2 54 0                  # /home/evgeny/git/104/UI-01_sw1_hw1/lib_i2c/src/i2c_slave.xc:54:0
	shl r2, r2, 1
	.loc	2 54 0                  # /home/evgeny/git/104/UI-01_sw1_hw1/lib_i2c/src/i2c_slave.xc:54:0
	or r0, r2, r0
.Ltmp366:
	.loc	2 54 0                  # /home/evgeny/git/104/UI-01_sw1_hw1/lib_i2c/src/i2c_slave.xc:54:0
	stw r0, r4[11]
	.loc	2 55 0                  # /home/evgeny/git/104/UI-01_sw1_hw1/lib_i2c/src/i2c_slave.xc:55:0
	add r0, r1, 1
	.loc	2 55 0                  # /home/evgeny/git/104/UI-01_sw1_hw1/lib_i2c/src/i2c_slave.xc:55:0
	stw r0, r4[10]
	bu .LBB37_9
.Ltmp367:
.LBB37_15:                              # %switchcase40
.Lxtalabel78:
	ldc r6, 0
	.loc	2 79 19                 # /home/evgeny/git/104/UI-01_sw1_hw1/lib_i2c/src/i2c_slave.xc:79:19
.Lxta.endpoint_labels23:
	out res[r0], r6
	ldc r0, 48
	.loc	2 84 9                  # /home/evgeny/git/104/UI-01_sw1_hw1/lib_i2c/src/i2c_slave.xc:84:9
.Ltmp368:
	add r7, r4, r0
	.loc	2 84 9                  # /home/evgeny/git/104/UI-01_sw1_hw1/lib_i2c/src/i2c_slave.xc:84:9
	ldw r2, r7[0]
	.loc	2 85 0                  # /home/evgeny/git/104/UI-01_sw1_hw1/lib_i2c/src/i2c_slave.xc:85:0
	ldw r1, r4[2]
	.loc	2 85 0                  # /home/evgeny/git/104/UI-01_sw1_hw1/lib_i2c/src/i2c_slave.xc:85:0
	ldw r0, r1[0]
	.loc	2 85 0                  # /home/evgeny/git/104/UI-01_sw1_hw1/lib_i2c/src/i2c_slave.xc:85:0
	ldw r1, r1[3]
	.loc	2 84 9                  # /home/evgeny/git/104/UI-01_sw1_hw1/lib_i2c/src/i2c_slave.xc:84:9
	bf r2, .LBB37_16
# BB#12:                                # %iftrue50
.Lxtalabel79:
	.loc	2 85 0                  # /home/evgeny/git/104/UI-01_sw1_hw1/lib_i2c/src/i2c_slave.xc:85:0
	ldw r1, r1[0]
	bu .LBB37_13
.Ltmp369:
.LBB37_11:                              # %switchcase47
.Lxtalabel80:
	ldc r0, 4
.LBB37_8:                               # %ifdone23
.Lxtalabel81:
	.loc	2 62 0                  # /home/evgeny/git/104/UI-01_sw1_hw1/lib_i2c/src/i2c_slave.xc:62:0
.Ltmp370:
	stw r0, r4[6]
.LBB37_9:                               # %ifdone23
.Lxtalabel82:
	ldc r0, 0
	.loc	2 67 0                  # /home/evgeny/git/104/UI-01_sw1_hw1/lib_i2c/src/i2c_slave.xc:67:0
	stw r0, r4[9]
	bu .LBB37_48
.Ltmp371:
.LBB37_21:                              # %switchcase96
.Lxtalabel83:
	.loc	2 121 0                 # /home/evgeny/git/104/UI-01_sw1_hw1/lib_i2c/src/i2c_slave.xc:121:0
	ldw r0, r4[4]
	.loc	2 121 0                 # /home/evgeny/git/104/UI-01_sw1_hw1/lib_i2c/src/i2c_slave.xc:121:0
	setc res[r0], 1
	.loc	2 121 0                 # /home/evgeny/git/104/UI-01_sw1_hw1/lib_i2c/src/i2c_slave.xc:121:0
.Ltmp372:
.Lxta.endpoint_labels24:
	in r0, res[r0]
	.loc	2 122 9                 # /home/evgeny/git/104/UI-01_sw1_hw1/lib_i2c/src/i2c_slave.xc:122:9
	ldw r0, r4[7]
	.loc	2 122 9                 # /home/evgeny/git/104/UI-01_sw1_hw1/lib_i2c/src/i2c_slave.xc:122:9
	eq r1, r0, 6
	bf r1, .LBB37_22
# BB#26:                                # %iftrue116
.Lxtalabel84:
	ldc r1, 0
	.loc	2 125 0                 # /home/evgeny/git/104/UI-01_sw1_hw1/lib_i2c/src/i2c_slave.xc:125:0
	stw r1, r4[11]
	mkmsk r1, 1
	bu .LBB37_24
.Ltmp373:
.LBB37_47:                              # %switchcase2
.Lxtalabel85:
	ldc r0, 0
	.loc	2 72 0                  # /home/evgeny/git/104/UI-01_sw1_hw1/lib_i2c/src/i2c_slave.xc:72:0
	stw r0, r4[7]
	mkmsk r0, 1
	.loc	2 73 0                  # /home/evgeny/git/104/UI-01_sw1_hw1/lib_i2c/src/i2c_slave.xc:73:0
	stw r0, r4[9]
	mkmsk r0, 2
	.loc	2 74 0                  # /home/evgeny/git/104/UI-01_sw1_hw1/lib_i2c/src/i2c_slave.xc:74:0
	stw r0, r4[6]
	bu .LBB37_48
.LBB37_38:                              # %switchcase136
.Lxtalabel86:
	.loc	2 184 9                 # /home/evgeny/git/104/UI-01_sw1_hw1/lib_i2c/src/i2c_slave.xc:184:9
.Ltmp374:
	ldw r1, r4[9]
	.loc	2 184 9                 # /home/evgeny/git/104/UI-01_sw1_hw1/lib_i2c/src/i2c_slave.xc:184:9
	eq r1, r1, 1
	.loc	2 184 9                 # /home/evgeny/git/104/UI-01_sw1_hw1/lib_i2c/src/i2c_slave.xc:184:9
	bf r1, .LBB37_42
# BB#39:                                # %iftrue227
.Lxtalabel87:
	.loc	2 187 0                 # /home/evgeny/git/104/UI-01_sw1_hw1/lib_i2c/src/i2c_slave.xc:187:0
.Ltmp375:
	ldw r0, r4[4]
	.loc	2 187 0                 # /home/evgeny/git/104/UI-01_sw1_hw1/lib_i2c/src/i2c_slave.xc:187:0
	setc res[r0], 1
	.loc	2 187 0                 # /home/evgeny/git/104/UI-01_sw1_hw1/lib_i2c/src/i2c_slave.xc:187:0
.Lxta.endpoint_labels25:
	in r1, res[r0]
.Ltmp376:
	#DEBUG_VALUE: bit <- R1
	.loc	2 188 0                 # /home/evgeny/git/104/UI-01_sw1_hw1/lib_i2c/src/i2c_slave.xc:188:0
	ldw r0, r4[11]
	.loc	2 188 0                 # /home/evgeny/git/104/UI-01_sw1_hw1/lib_i2c/src/i2c_slave.xc:188:0
	shl r0, r0, 1
	.loc	2 188 0                 # /home/evgeny/git/104/UI-01_sw1_hw1/lib_i2c/src/i2c_slave.xc:188:0
	mov r2, r1
	zext r2, 1
	.loc	2 188 0                 # /home/evgeny/git/104/UI-01_sw1_hw1/lib_i2c/src/i2c_slave.xc:188:0
	or r0, r0, r2
	.loc	2 188 0                 # /home/evgeny/git/104/UI-01_sw1_hw1/lib_i2c/src/i2c_slave.xc:188:0
	stw r0, r4[11]
	.loc	2 189 11                # /home/evgeny/git/104/UI-01_sw1_hw1/lib_i2c/src/i2c_slave.xc:189:11
	ldw r0, r4[10]
	bt r0, .LBB37_41
.Ltmp377:
# BB#40:                                # %iftrue245
.Lxtalabel88:
	#DEBUG_VALUE: bit <- R1
	.loc	2 190 13                # /home/evgeny/git/104/UI-01_sw1_hw1/lib_i2c/src/i2c_slave.xc:190:13
	eq r1, r1, 0
.Ltmp378:
	.loc	2 193 0                 # /home/evgeny/git/104/UI-01_sw1_hw1/lib_i2c/src/i2c_slave.xc:193:0
	stw r1, r4[8]
	ldc r1, 52
	.loc	2 196 0                 # /home/evgeny/git/104/UI-01_sw1_hw1/lib_i2c/src/i2c_slave.xc:196:0
	add r1, r4, r1
	mkmsk r2, 1
	.loc	2 196 0                 # /home/evgeny/git/104/UI-01_sw1_hw1/lib_i2c/src/i2c_slave.xc:196:0
	stw r2, r1[0]
.LBB37_41:                              # %ifdone246
.Lxtalabel89:
	ldc r1, 0
	.loc	2 198 0                 # /home/evgeny/git/104/UI-01_sw1_hw1/lib_i2c/src/i2c_slave.xc:198:0
	stw r1, r4[9]
	.loc	2 199 0                 # /home/evgeny/git/104/UI-01_sw1_hw1/lib_i2c/src/i2c_slave.xc:199:0
	add r0, r0, 1
	.loc	2 199 0                 # /home/evgeny/git/104/UI-01_sw1_hw1/lib_i2c/src/i2c_slave.xc:199:0
	stw r0, r4[10]
	bu .LBB37_48
.Ltmp379:
.LBB37_28:                              # %switchcase102
.Lxtalabel90:
	.loc	2 135 9                 # /home/evgeny/git/104/UI-01_sw1_hw1/lib_i2c/src/i2c_slave.xc:135:9
	ldw r1, r4[9]
	.loc	2 135 9                 # /home/evgeny/git/104/UI-01_sw1_hw1/lib_i2c/src/i2c_slave.xc:135:9
	eq r2, r1, 1
	.loc	2 137 11                # /home/evgeny/git/104/UI-01_sw1_hw1/lib_i2c/src/i2c_slave.xc:137:11
	ldw r1, r4[10]
	.loc	2 135 9                 # /home/evgeny/git/104/UI-01_sw1_hw1/lib_i2c/src/i2c_slave.xc:135:9
	bf r2, .LBB37_33
# BB#29:                                # %iftrue137
.Lxtalabel91:
	.loc	2 137 11                # /home/evgeny/git/104/UI-01_sw1_hw1/lib_i2c/src/i2c_slave.xc:137:11
	eq r0, r1, 8
	.loc	2 137 11                # /home/evgeny/git/104/UI-01_sw1_hw1/lib_i2c/src/i2c_slave.xc:137:11
	bf r0, .LBB37_49
# BB#30:                                # %iftrue145
.Lxtalabel92:
	.loc	2 140 0                 # /home/evgeny/git/104/UI-01_sw1_hw1/lib_i2c/src/i2c_slave.xc:140:0
.Ltmp380:
	ldw r0, r4[4]
	.loc	2 140 0                 # /home/evgeny/git/104/UI-01_sw1_hw1/lib_i2c/src/i2c_slave.xc:140:0
	setc res[r0], 1
	.loc	2 140 0                 # /home/evgeny/git/104/UI-01_sw1_hw1/lib_i2c/src/i2c_slave.xc:140:0
.Lxta.endpoint_labels26:
	in r0, res[r0]
.Ltmp381:
	#DEBUG_VALUE: bit <- R0
	.loc	2 141 13                # /home/evgeny/git/104/UI-01_sw1_hw1/lib_i2c/src/i2c_slave.xc:141:13
	bf r0, .LBB37_32
.Ltmp382:
# BB#31:                                # %iftrue156
.Lxtalabel93:
	ldc r0, 0
	.loc	2 143 0                 # /home/evgeny/git/104/UI-01_sw1_hw1/lib_i2c/src/i2c_slave.xc:143:0
	stw r0, r4[6]
	.loc	2 144 0                 # /home/evgeny/git/104/UI-01_sw1_hw1/lib_i2c/src/i2c_slave.xc:144:0
	stw r0, r4[8]
	bu .LBB37_48
.Ltmp383:
.LBB37_22:                              # %switchcase96
.Lxtalabel94:
	eq r1, r0, 7
	bf r1, .LBB37_27
# BB#23:                                # %iftrue106
.Lxtalabel95:
	ldc r1, 0
.LBB37_24:                              # %ifdone107
.Lxtalabel96:
	.loc	2 123 0                 # /home/evgeny/git/104/UI-01_sw1_hw1/lib_i2c/src/i2c_slave.xc:123:0
	stw r1, r4[9]
	bu .LBB37_25
.LBB37_42:                              # %iffalse234
.Lxtalabel97:
	ldc r1, 52
	.loc	2 204 0                 # /home/evgeny/git/104/UI-01_sw1_hw1/lib_i2c/src/i2c_slave.xc:204:0
.Ltmp384:
	add r1, r4, r1
	ldc r5, 0
	.loc	2 204 0                 # /home/evgeny/git/104/UI-01_sw1_hw1/lib_i2c/src/i2c_slave.xc:204:0
	stw r5, r1[0]
	.loc	2 206 11                # /home/evgeny/git/104/UI-01_sw1_hw1/lib_i2c/src/i2c_slave.xc:206:11
	ldw r1, r4[10]
	.loc	2 206 11                # /home/evgeny/git/104/UI-01_sw1_hw1/lib_i2c/src/i2c_slave.xc:206:11
	eq r1, r1, 8
	bf r1, .LBB37_3
# BB#43:                                # %iftrue269
.Lxtalabel98:
	.loc	2 208 23                # /home/evgeny/git/104/UI-01_sw1_hw1/lib_i2c/src/i2c_slave.xc:208:23
.Lxta.endpoint_labels27:
	out res[r0], r5
	.loc	2 209 0                 # /home/evgeny/git/104/UI-01_sw1_hw1/lib_i2c/src/i2c_slave.xc:209:0
.Ltmp385:
	ldw r1, r4[2]
	.loc	2 209 0                 # /home/evgeny/git/104/UI-01_sw1_hw1/lib_i2c/src/i2c_slave.xc:209:0
	ldw r0, r1[0]
	.loc	2 209 0                 # /home/evgeny/git/104/UI-01_sw1_hw1/lib_i2c/src/i2c_slave.xc:209:0
	ldw r1, r1[3]
	.loc	2 209 0                 # /home/evgeny/git/104/UI-01_sw1_hw1/lib_i2c/src/i2c_slave.xc:209:0
	ldw r2, r1[3]
	ldc r1, 44
	.loc	2 209 0                 # /home/evgeny/git/104/UI-01_sw1_hw1/lib_i2c/src/i2c_slave.xc:209:0
	ld8u r1, r4[r1]
.Lxta.call_labels7:
	bla r2
.Ltmp386:
	#DEBUG_VALUE: ack <- R0
	.loc	2 210 13                # /home/evgeny/git/104/UI-01_sw1_hw1/lib_i2c/src/i2c_slave.xc:210:13
	eq r1, r0, 1
	.loc	2 212 0                 # /home/evgeny/git/104/UI-01_sw1_hw1/lib_i2c/src/i2c_slave.xc:212:0
	ldw r0, r4[4]
.Ltmp387:
	.loc	2 210 13                # /home/evgeny/git/104/UI-01_sw1_hw1/lib_i2c/src/i2c_slave.xc:210:13
	bf r1, .LBB37_46
# BB#44:                                # %iftrue288
.Lxtalabel99:
	.loc	2 212 0                 # /home/evgeny/git/104/UI-01_sw1_hw1/lib_i2c/src/i2c_slave.xc:212:0
	setc res[r0], 1
	.loc	2 212 0                 # /home/evgeny/git/104/UI-01_sw1_hw1/lib_i2c/src/i2c_slave.xc:212:0
.Ltmp388:
.Lxta.endpoint_labels28:
	in r0, res[r0]
	bu .LBB37_45
.Ltmp389:
.LBB37_33:                              # %iffalse144
.Lxtalabel100:
	ldc r2, 8
	.loc	2 156 11                # /home/evgeny/git/104/UI-01_sw1_hw1/lib_i2c/src/i2c_slave.xc:156:11
	lss r2, r1, r2
	.loc	2 156 11                # /home/evgeny/git/104/UI-01_sw1_hw1/lib_i2c/src/i2c_slave.xc:156:11
	bf r2, .LBB37_50
# BB#34:                                # %iftrue173
.Lxtalabel101:
	.loc	2 157 13                # /home/evgeny/git/104/UI-01_sw1_hw1/lib_i2c/src/i2c_slave.xc:157:13
	bf r1, .LBB37_35
# BB#37:                                # %iffalse188
.Lxtalabel102:
	.loc	2 172 34                # /home/evgeny/git/104/UI-01_sw1_hw1/lib_i2c/src/i2c_slave.xc:172:34
.Ltmp390:
	ldw r1, r4[4]
	.loc	2 172 34                # /home/evgeny/git/104/UI-01_sw1_hw1/lib_i2c/src/i2c_slave.xc:172:34
	ldw r0, r4[11]
	.loc	2 172 34                # /home/evgeny/git/104/UI-01_sw1_hw1/lib_i2c/src/i2c_slave.xc:172:34
	mov r2, r0
	zext r2, 1
	.loc	2 172 34                # /home/evgeny/git/104/UI-01_sw1_hw1/lib_i2c/src/i2c_slave.xc:172:34
.Lxta.endpoint_labels29:
	out res[r1], r2
	bu .LBB37_36
.Ltmp391:
.LBB37_16:                              # %iffalse55
.Lxtalabel103:
	.loc	2 87 0                  # /home/evgeny/git/104/UI-01_sw1_hw1/lib_i2c/src/i2c_slave.xc:87:0
	ldw r1, r1[1]
.LBB37_13:                              # %ifdone51
.Lxtalabel104:
	.loc	2 85 0                  # /home/evgeny/git/104/UI-01_sw1_hw1/lib_i2c/src/i2c_slave.xc:85:0
.Lxta.call_labels8:
	bla r1
.Ltmp392:
	#DEBUG_VALUE: ack <- R0
	ldc r1, 56
	.loc	2 90 0                  # /home/evgeny/git/104/UI-01_sw1_hw1/lib_i2c/src/i2c_slave.xc:90:0
	add r1, r4, r1
	.loc	2 90 0                  # /home/evgeny/git/104/UI-01_sw1_hw1/lib_i2c/src/i2c_slave.xc:90:0
	stw r6, r1[0]
	.loc	2 91 9                  # /home/evgeny/git/104/UI-01_sw1_hw1/lib_i2c/src/i2c_slave.xc:91:9
	eq r1, r0, 1
	.loc	2 93 0                  # /home/evgeny/git/104/UI-01_sw1_hw1/lib_i2c/src/i2c_slave.xc:93:0
	ldw r0, r4[4]
.Ltmp393:
	.loc	2 91 9                  # /home/evgeny/git/104/UI-01_sw1_hw1/lib_i2c/src/i2c_slave.xc:91:9
	bf r1, .LBB37_17
# BB#14:                                # %iftrue65
.Lxtalabel105:
	.loc	2 93 0                  # /home/evgeny/git/104/UI-01_sw1_hw1/lib_i2c/src/i2c_slave.xc:93:0
	setc res[r0], 1
	.loc	2 93 0                  # /home/evgeny/git/104/UI-01_sw1_hw1/lib_i2c/src/i2c_slave.xc:93:0
.Ltmp394:
.Lxta.endpoint_labels30:
	in r0, res[r0]
	.loc	2 94 0                  # /home/evgeny/git/104/UI-01_sw1_hw1/lib_i2c/src/i2c_slave.xc:94:0
	stw r6, r4[7]
	bu .LBB37_19
.LBB37_17:                              # %iffalse70
.Lxtalabel106:
	.loc	2 97 21                 # /home/evgeny/git/104/UI-01_sw1_hw1/lib_i2c/src/i2c_slave.xc:97:21
.Lxta.endpoint_labels31:
	out res[r0], r6
	.loc	2 98 11                 # /home/evgeny/git/104/UI-01_sw1_hw1/lib_i2c/src/i2c_slave.xc:98:11
	ldw r0, r7[0]
	.loc	2 98 11                 # /home/evgeny/git/104/UI-01_sw1_hw1/lib_i2c/src/i2c_slave.xc:98:11
	bf r0, .LBB37_20
# BB#18:                                # %iftrue78
.Lxtalabel107:
	mkmsk r0, 3
	.loc	2 99 0                  # /home/evgeny/git/104/UI-01_sw1_hw1/lib_i2c/src/i2c_slave.xc:99:0
	stw r0, r4[7]
	bu .LBB37_19
.Ltmp395:
.LBB37_6:                               # %ifdone8
.Lxtalabel108:
	#DEBUG_VALUE: bit <- R0
	ldc r1, 20
	.loc	2 61 9                  # /home/evgeny/git/104/UI-01_sw1_hw1/lib_i2c/src/i2c_slave.xc:61:9
.Ltmp396:
	ld8u r1, r4[r1]
	.loc	2 61 9                  # /home/evgeny/git/104/UI-01_sw1_hw1/lib_i2c/src/i2c_slave.xc:61:9
	eq r1, r2, r1
	.loc	2 61 9                  # /home/evgeny/git/104/UI-01_sw1_hw1/lib_i2c/src/i2c_slave.xc:61:9
	bf r1, .LBB37_7
.Ltmp397:
# BB#10:                                # %iffalse
.Lxtalabel109:
	#DEBUG_VALUE: bit <- R0
	ldc r1, 2
	.loc	2 64 0                  # /home/evgeny/git/104/UI-01_sw1_hw1/lib_i2c/src/i2c_slave.xc:64:0
	stw r1, r4[6]
	ldc r1, 48
	.loc	2 65 0                  # /home/evgeny/git/104/UI-01_sw1_hw1/lib_i2c/src/i2c_slave.xc:65:0
	add r1, r4, r1
	.loc	2 65 0                  # /home/evgeny/git/104/UI-01_sw1_hw1/lib_i2c/src/i2c_slave.xc:65:0
	stw r0, r1[0]
	bu .LBB37_9
.Ltmp398:
.LBB37_49:                              # %iffalse152
.Lxtalabel110:
	ldc r0, 0
	.loc	2 151 0                 # /home/evgeny/git/104/UI-01_sw1_hw1/lib_i2c/src/i2c_slave.xc:151:0
.Ltmp399:
	stw r0, r4[9]
	.loc	2 152 0                 # /home/evgeny/git/104/UI-01_sw1_hw1/lib_i2c/src/i2c_slave.xc:152:0
	add r0, r1, 1
	.loc	2 152 0                 # /home/evgeny/git/104/UI-01_sw1_hw1/lib_i2c/src/i2c_slave.xc:152:0
	stw r0, r4[10]
	bu .LBB37_48
.LBB37_27:                              # %iffalse123
.Lxtalabel111:
	ldc r1, 0
	.loc	2 128 0                 # /home/evgeny/git/104/UI-01_sw1_hw1/lib_i2c/src/i2c_slave.xc:128:0
	stw r1, r4[8]
.LBB37_25:                              # %ifdone107
.Lxtalabel112:
	.loc	2 130 0                 # /home/evgeny/git/104/UI-01_sw1_hw1/lib_i2c/src/i2c_slave.xc:130:0
	stw r0, r4[6]
	ldc r0, 0
	.loc	2 131 0                 # /home/evgeny/git/104/UI-01_sw1_hw1/lib_i2c/src/i2c_slave.xc:131:0
	stw r0, r4[10]
	bu .LBB37_48
.LBB37_50:                              # %iffalse180
.Lxtalabel113:
	.loc	2 177 0                 # /home/evgeny/git/104/UI-01_sw1_hw1/lib_i2c/src/i2c_slave.xc:177:0
.Ltmp400:
	ldw r0, r4[4]
	bu .LBB37_51
.Ltmp401:
.LBB37_20:                              # %iffalse83
.Lxtalabel114:
	.loc	2 101 0                 # /home/evgeny/git/104/UI-01_sw1_hw1/lib_i2c/src/i2c_slave.xc:101:0
	stw r5, r4[7]
.LBB37_19:                              # %ifdone66
.Lxtalabel115:
	mkmsk r0, 1
	.loc	2 104 0                 # /home/evgeny/git/104/UI-01_sw1_hw1/lib_i2c/src/i2c_slave.xc:104:0
	stw r0, r4[9]
	mkmsk r0, 2
	.loc	2 105 0                 # /home/evgeny/git/104/UI-01_sw1_hw1/lib_i2c/src/i2c_slave.xc:105:0
	stw r0, r4[6]
	ldc r0, 10
	.loc	2 20 0                  # /home/evgeny/git/104/UI-01_sw1_hw1/lib_i2c/src/i2c_slave.xc:20:0
.Ltmp402:
.Lxta.call_labels9:
	bl delay_ticks
.Ltmp403:
	.loc	2 110 0                 # /home/evgeny/git/104/UI-01_sw1_hw1/lib_i2c/src/i2c_slave.xc:110:0
	ldw r0, r4[3]
	.loc	2 110 0                 # /home/evgeny/git/104/UI-01_sw1_hw1/lib_i2c/src/i2c_slave.xc:110:0
	setc res[r0], 1
	.loc	2 110 0                 # /home/evgeny/git/104/UI-01_sw1_hw1/lib_i2c/src/i2c_slave.xc:110:0
.Ltmp404:
.Lxta.endpoint_labels32:
	in r0, res[r0]
	bu .LBB37_48
.Ltmp405:
.LBB37_7:                               # %iftrue22
.Lxtalabel116:
	ldc r0, 5
	bu .LBB37_8
.LBB37_46:                              # %iffalse293
.Lxtalabel117:
	.loc	2 215 25                # /home/evgeny/git/104/UI-01_sw1_hw1/lib_i2c/src/i2c_slave.xc:215:25
.Ltmp406:
.Lxta.endpoint_labels33:
	out res[r0], r5
.LBB37_45:                              # %ifdone289
.Lxtalabel118:
	mkmsk r0, 2
	.loc	2 217 0                 # /home/evgeny/git/104/UI-01_sw1_hw1/lib_i2c/src/i2c_slave.xc:217:0
	stw r0, r4[6]
	ldc r0, 10
	.loc	2 20 0                  # /home/evgeny/git/104/UI-01_sw1_hw1/lib_i2c/src/i2c_slave.xc:20:0
.Ltmp407:
.Lxta.call_labels10:
	bl delay_ticks
.Ltmp408:
	.loc	2 222 0                 # /home/evgeny/git/104/UI-01_sw1_hw1/lib_i2c/src/i2c_slave.xc:222:0
	ldw r0, r4[3]
.Ltmp409:
.LBB37_51:                              # %iftrue
.Lxtalabel119:
	.loc	2 177 0                 # /home/evgeny/git/104/UI-01_sw1_hw1/lib_i2c/src/i2c_slave.xc:177:0
	setc res[r0], 1
	.loc	2 177 0                 # /home/evgeny/git/104/UI-01_sw1_hw1/lib_i2c/src/i2c_slave.xc:177:0
.Ltmp410:
.Lxta.endpoint_labels34:
	in r0, res[r0]
	bu .LBB37_3
.Ltmp411:
.LBB37_32:                              # %iffalse159
.Lxtalabel120:
	ldc r0, 0
	.loc	2 146 0                 # /home/evgeny/git/104/UI-01_sw1_hw1/lib_i2c/src/i2c_slave.xc:146:0
.Ltmp412:
	stw r0, r4[10]
	.loc	2 147 0                 # /home/evgeny/git/104/UI-01_sw1_hw1/lib_i2c/src/i2c_slave.xc:147:0
	stw r0, r4[9]
	bu .LBB37_48
.Ltmp413:
.LBB37_35:                              # %iftrue181
.Lxtalabel121:
	ldc r1, 0
	.loc	2 159 25                # /home/evgeny/git/104/UI-01_sw1_hw1/lib_i2c/src/i2c_slave.xc:159:25
.Lxta.endpoint_labels35:
	out res[r0], r1
	.loc	2 160 0                 # /home/evgeny/git/104/UI-01_sw1_hw1/lib_i2c/src/i2c_slave.xc:160:0
	ldw r1, r4[2]
	.loc	2 160 0                 # /home/evgeny/git/104/UI-01_sw1_hw1/lib_i2c/src/i2c_slave.xc:160:0
	ldw r0, r1[0]
	.loc	2 160 0                 # /home/evgeny/git/104/UI-01_sw1_hw1/lib_i2c/src/i2c_slave.xc:160:0
	ldw r1, r1[3]
	.loc	2 160 0                 # /home/evgeny/git/104/UI-01_sw1_hw1/lib_i2c/src/i2c_slave.xc:160:0
	ldw r1, r1[2]
	.loc	2 160 0                 # /home/evgeny/git/104/UI-01_sw1_hw1/lib_i2c/src/i2c_slave.xc:160:0
.Lxta.call_labels11:
	bla r1
	.loc	2 162 0                 # /home/evgeny/git/104/UI-01_sw1_hw1/lib_i2c/src/i2c_slave.xc:162:0
	bitrev r0, r0
	.loc	2 162 0                 # /home/evgeny/git/104/UI-01_sw1_hw1/lib_i2c/src/i2c_slave.xc:162:0
	shr r0, r0, 24
	.loc	2 162 0                 # /home/evgeny/git/104/UI-01_sw1_hw1/lib_i2c/src/i2c_slave.xc:162:0
	stw r0, r4[11]
	.loc	2 165 34                # /home/evgeny/git/104/UI-01_sw1_hw1/lib_i2c/src/i2c_slave.xc:165:34
	ldw r1, r4[4]
	.loc	2 165 34                # /home/evgeny/git/104/UI-01_sw1_hw1/lib_i2c/src/i2c_slave.xc:165:34
	zext r0, 1
	.loc	2 165 34                # /home/evgeny/git/104/UI-01_sw1_hw1/lib_i2c/src/i2c_slave.xc:165:34
.Lxta.endpoint_labels36:
	out res[r1], r0
	ldc r0, 10
	.loc	2 20 0                  # /home/evgeny/git/104/UI-01_sw1_hw1/lib_i2c/src/i2c_slave.xc:20:0
.Ltmp414:
.Lxta.call_labels12:
	bl delay_ticks
.Ltmp415:
	.loc	2 170 0                 # /home/evgeny/git/104/UI-01_sw1_hw1/lib_i2c/src/i2c_slave.xc:170:0
	ldw r0, r4[3]
	.loc	2 170 0                 # /home/evgeny/git/104/UI-01_sw1_hw1/lib_i2c/src/i2c_slave.xc:170:0
	setc res[r0], 1
	.loc	2 170 0                 # /home/evgeny/git/104/UI-01_sw1_hw1/lib_i2c/src/i2c_slave.xc:170:0
.Ltmp416:
.Lxta.endpoint_labels37:
	in r0, res[r0]
	.loc	2 174 0                 # /home/evgeny/git/104/UI-01_sw1_hw1/lib_i2c/src/i2c_slave.xc:174:0
	ldw r0, r4[11]
.LBB37_36:                              # %ifdone182
.Lxtalabel122:
	.loc	2 174 0                 # /home/evgeny/git/104/UI-01_sw1_hw1/lib_i2c/src/i2c_slave.xc:174:0
	ashr r0, r0, 1
	.loc	2 174 0                 # /home/evgeny/git/104/UI-01_sw1_hw1/lib_i2c/src/i2c_slave.xc:174:0
	stw r0, r4[11]
.Ltmp417:
.LBB37_3:                               # %iftrue
.Lxtalabel123:
	mkmsk r0, 1
	.loc	2 47 0                  # /home/evgeny/git/104/UI-01_sw1_hw1/lib_i2c/src/i2c_slave.xc:47:0
	stw r0, r4[9]
.Ltmp418:
.LBB37_48:                              # %return
.Lxtalabel124:
	ldd r7, r6, sp[2]               # 4-byte Folded Reload
	ldd r5, r4, sp[1]               # 4-byte Folded Reload
	retsp 6
	# RETURN_REG_HOLDER
	.cc_bottom i2c_slave.select.yield.case.1.function
	.set	i2c_slave.select.yield.case.1.nstackwords,((_i.i2c_slave_callback_if.ack_read_request.max.nstackwords $M _i.i2c_slave_callback_if.master_sent_data.max.nstackwords $M _i.i2c_slave_callback_if.master_requires_data.max.nstackwords $M delay_ticks.nstackwords) + 6)
	.set	i2c_slave.select.yield.case.1.maxcores,_i.i2c_slave_callback_if.ack_read_request.max.maxcores $M _i.i2c_slave_callback_if.ack_write_request.max.maxcores $M _i.i2c_slave_callback_if.master_requires_data.max.maxcores $M _i.i2c_slave_callback_if.master_sent_data.max.maxcores $M delay_ticks.maxcores $M 1
	.set	i2c_slave.select.yield.case.1.maxtimers,_i.i2c_slave_callback_if.ack_read_request.max.maxtimers $M _i.i2c_slave_callback_if.ack_write_request.max.maxtimers $M _i.i2c_slave_callback_if.master_requires_data.max.maxtimers $M _i.i2c_slave_callback_if.master_sent_data.max.maxtimers $M delay_ticks.maxtimers $M 0
	.set	i2c_slave.select.yield.case.1.maxchanends,_i.i2c_slave_callback_if.ack_read_request.max.maxchanends $M _i.i2c_slave_callback_if.ack_write_request.max.maxchanends $M _i.i2c_slave_callback_if.master_requires_data.max.maxchanends $M _i.i2c_slave_callback_if.master_sent_data.max.maxchanends $M delay_ticks.maxchanends $M 0
.Ltmp419:
	.size	i2c_slave.select.yield.case.1, .Ltmp419-i2c_slave.select.yield.case.1
.Lfunc_end37:
	.cfi_endproc

	.align	4
	.type	i2c_slave.select.yield.case.2,@function
	.cc_top i2c_slave.select.yield.case.2.function,i2c_slave.select.yield.case.2
i2c_slave.select.yield.case.2:          # @i2c_slave.select.yield.case.2
.Lfunc_begin38:
	.loc	2 230 0                 # /home/evgeny/git/104/UI-01_sw1_hw1/lib_i2c/src/i2c_slave.xc:230:0
	.cfi_startproc
	.issue_mode single
# BB#0:                                 # %allocas
.Lxtalabel125:
	ENTSP_lu6 4
.Ltmp420:
	.cfi_def_cfa_offset 16
.Ltmp421:
	.cfi_offset 15, 0
	std r5, r4, sp[1]               # 4-byte Folded Spill
.Ltmp422:
	.cfi_offset 4, -8
.Ltmp423:
	.cfi_offset 5, -4
	get r11, ed
	mov r4, r11
	.loc	2 230 0 prologue_end    # /home/evgeny/git/104/UI-01_sw1_hw1/lib_i2c/src/i2c_slave.xc:230:0
.Ltmp424:
	ldw r0, r4[4]
	.loc	2 231 0                 # /home/evgeny/git/104/UI-01_sw1_hw1/lib_i2c/src/i2c_slave.xc:231:0
.Ltmp425:
.Lxta.endpoint_labels38:
	in r0, res[r0]
.Ltmp426:
	.loc	2 232 7                 # /home/evgeny/git/104/UI-01_sw1_hw1/lib_i2c/src/i2c_slave.xc:232:7
	ldw r1, r4[8]
	.loc	2 236 0                 # /home/evgeny/git/104/UI-01_sw1_hw1/lib_i2c/src/i2c_slave.xc:236:0
.Ltmp427:
	ldw r0, r4[3]
	.loc	2 236 0                 # /home/evgeny/git/104/UI-01_sw1_hw1/lib_i2c/src/i2c_slave.xc:236:0
	setc res[r0], 1
	.loc	2 236 0                 # /home/evgeny/git/104/UI-01_sw1_hw1/lib_i2c/src/i2c_slave.xc:236:0
	in r0, res[r0]
.Ltmp428:
	#DEBUG_VALUE: val <- R0
	#DEBUG_VALUE: val <- R0
	.loc	2 232 7                 # /home/evgeny/git/104/UI-01_sw1_hw1/lib_i2c/src/i2c_slave.xc:232:7
	eq r1, r1, 1
	bf r1, .LBB38_6
.Ltmp429:
# BB#1:                                 # %iftrue
.Lxtalabel126:
	#DEBUG_VALUE: val <- R0
	bf r0, .LBB38_5
.Ltmp430:
# BB#2:                                 # %iftrue3
.Lxtalabel127:
	ldc r0, 56
	.loc	2 238 11                # /home/evgeny/git/104/UI-01_sw1_hw1/lib_i2c/src/i2c_slave.xc:238:11
.Ltmp431:
	add r5, r4, r0
	.loc	2 238 11                # /home/evgeny/git/104/UI-01_sw1_hw1/lib_i2c/src/i2c_slave.xc:238:11
	ldw r0, r5[0]
	bt r0, .LBB38_4
# BB#3:                                 # %iftrue6
.Lxtalabel128:
	.loc	2 239 0                 # /home/evgeny/git/104/UI-01_sw1_hw1/lib_i2c/src/i2c_slave.xc:239:0
	ldw r1, r4[2]
	.loc	2 239 0                 # /home/evgeny/git/104/UI-01_sw1_hw1/lib_i2c/src/i2c_slave.xc:239:0
	ldw r0, r1[0]
	.loc	2 239 0                 # /home/evgeny/git/104/UI-01_sw1_hw1/lib_i2c/src/i2c_slave.xc:239:0
	ldw r1, r1[3]
	.loc	2 239 0                 # /home/evgeny/git/104/UI-01_sw1_hw1/lib_i2c/src/i2c_slave.xc:239:0
	ldw r1, r1[4]
	.loc	2 239 0                 # /home/evgeny/git/104/UI-01_sw1_hw1/lib_i2c/src/i2c_slave.xc:239:0
.Lxta.call_labels13:
	bla r1
.LBB38_4:                               # %ifdone7
.Lxtalabel129:
	ldc r0, 0
	.loc	2 241 0                 # /home/evgeny/git/104/UI-01_sw1_hw1/lib_i2c/src/i2c_slave.xc:241:0
	stw r0, r4[6]
	mkmsk r1, 1
	.loc	2 242 0                 # /home/evgeny/git/104/UI-01_sw1_hw1/lib_i2c/src/i2c_slave.xc:242:0
	stw r1, r5[0]
	ldc r1, 52
	.loc	2 243 0                 # /home/evgeny/git/104/UI-01_sw1_hw1/lib_i2c/src/i2c_slave.xc:243:0
	add r1, r4, r1
	.loc	2 243 0                 # /home/evgeny/git/104/UI-01_sw1_hw1/lib_i2c/src/i2c_slave.xc:243:0
	stw r0, r1[0]
.Ltmp432:
.LBB38_5:                               # %ifdone4
.Lxtalabel130:
	ldc r0, 0
	bu .LBB38_9
.LBB38_6:                               # %iffalse
.Lxtalabel131:
.Ltmp433:
	#DEBUG_VALUE: val <- R0
	.loc	2 251 9                 # /home/evgeny/git/104/UI-01_sw1_hw1/lib_i2c/src/i2c_slave.xc:251:9
	eq r0, r0, 1
.Ltmp434:
	.loc	2 251 9                 # /home/evgeny/git/104/UI-01_sw1_hw1/lib_i2c/src/i2c_slave.xc:251:9
	bf r0, .LBB38_8
# BB#7:                                 # %iftrue23
.Lxtalabel132:
	mkmsk r0, 1
	.loc	2 252 0                 # /home/evgeny/git/104/UI-01_sw1_hw1/lib_i2c/src/i2c_slave.xc:252:0
	stw r0, r4[6]
	ldc r0, 0
	.loc	2 253 0                 # /home/evgeny/git/104/UI-01_sw1_hw1/lib_i2c/src/i2c_slave.xc:253:0
	stw r0, r4[10]
	.loc	2 254 0                 # /home/evgeny/git/104/UI-01_sw1_hw1/lib_i2c/src/i2c_slave.xc:254:0
	stw r0, r4[11]
	.loc	2 255 0                 # /home/evgeny/git/104/UI-01_sw1_hw1/lib_i2c/src/i2c_slave.xc:255:0
	stw r0, r4[9]
	ldc r1, 52
	.loc	2 256 0                 # /home/evgeny/git/104/UI-01_sw1_hw1/lib_i2c/src/i2c_slave.xc:256:0
	add r1, r4, r1
	.loc	2 256 0                 # /home/evgeny/git/104/UI-01_sw1_hw1/lib_i2c/src/i2c_slave.xc:256:0
	stw r0, r1[0]
	bu .LBB38_10
.LBB38_8:                               # %iffalse28
.Lxtalabel133:
	mkmsk r0, 1
.LBB38_9:                               # %return
.Lxtalabel134:
	.loc	2 258 0                 # /home/evgeny/git/104/UI-01_sw1_hw1/lib_i2c/src/i2c_slave.xc:258:0
	stw r0, r4[8]
.Ltmp435:
.LBB38_10:                              # %return
.Lxtalabel135:
	ldd r5, r4, sp[1]               # 4-byte Folded Reload
	retsp 4
	# RETURN_REG_HOLDER
	.cc_bottom i2c_slave.select.yield.case.2.function
	.set	i2c_slave.select.yield.case.2.nstackwords,(_i.i2c_slave_callback_if.stop_bit.max.nstackwords + 4)
	.set	i2c_slave.select.yield.case.2.maxcores,_i.i2c_slave_callback_if.stop_bit.max.maxcores $M 1
	.set	i2c_slave.select.yield.case.2.maxtimers,_i.i2c_slave_callback_if.stop_bit.max.maxtimers $M 0
	.set	i2c_slave.select.yield.case.2.maxchanends,_i.i2c_slave_callback_if.stop_bit.max.maxchanends $M 0
.Ltmp436:
	.size	i2c_slave.select.yield.case.2, .Ltmp436-i2c_slave.select.yield.case.2
.Lfunc_end38:
	.cfi_endproc

	.align	4
	.type	i2c_slave.select.case.0,@function
	.cc_top i2c_slave.select.case.0.function,i2c_slave.select.case.0
i2c_slave.select.case.0:                # @i2c_slave.select.case.0
.Lfunc_begin39:
	.loc	2 40 0                  # /home/evgeny/git/104/UI-01_sw1_hw1/lib_i2c/src/i2c_slave.xc:40:0
	.cfi_startproc
	.issue_mode single
# BB#0:                                 # %allocas
.Lxtalabel136:
	ENTSP_lu6 0
	get r11, ed
	.loc	2 40 0 prologue_end     # /home/evgeny/git/104/UI-01_sw1_hw1/lib_i2c/src/i2c_slave.xc:40:0
.Ltmp437:
	ldw r0, r11[2]
	.loc	2 40 0                  # /home/evgeny/git/104/UI-01_sw1_hw1/lib_i2c/src/i2c_slave.xc:40:0
	ldw r1, r0[1]
	.loc	2 40 0                  # /home/evgeny/git/104/UI-01_sw1_hw1/lib_i2c/src/i2c_slave.xc:40:0
	chkct res[r1], 1
	mkmsk r1, 1
	.loc	2 40 0                  # /home/evgeny/git/104/UI-01_sw1_hw1/lib_i2c/src/i2c_slave.xc:40:0
	stw r1, r0[2]
	ldc r0, 0
	stw r0, r11[0]
	retsp 0
	# RETURN_REG_HOLDER
.Ltmp438:
	.cc_bottom i2c_slave.select.case.0.function
	.set	i2c_slave.select.case.0.nstackwords,0
	.set	i2c_slave.select.case.0.maxcores,1
	.set	i2c_slave.select.case.0.maxtimers,0
	.set	i2c_slave.select.case.0.maxchanends,0
.Ltmp439:
	.size	i2c_slave.select.case.0, .Ltmp439-i2c_slave.select.case.0
.Lfunc_end39:
	.cfi_endproc

	.align	4
	.type	i2c_slave.select.case.1,@function
	.cc_top i2c_slave.select.case.1.function,i2c_slave.select.case.1
i2c_slave.select.case.1:                # @i2c_slave.select.case.1
.Lfunc_begin40:
	.loc	2 42 0                  # /home/evgeny/git/104/UI-01_sw1_hw1/lib_i2c/src/i2c_slave.xc:42:0
	.cfi_startproc
	.issue_mode single
# BB#0:                                 # %allocas
.Lxtalabel137:
	ENTSP_lu6 6
.Ltmp440:
	.cfi_def_cfa_offset 24
.Ltmp441:
	.cfi_offset 15, 0
	std r5, r4, sp[1]               # 4-byte Folded Spill
.Ltmp442:
	.cfi_offset 4, -16
.Ltmp443:
	.cfi_offset 5, -12
	std r7, r6, sp[2]               # 4-byte Folded Spill
.Ltmp444:
	.cfi_offset 6, -8
.Ltmp445:
	.cfi_offset 7, -4
	get r11, ed
	mov r4, r11
	.loc	2 42 0 prologue_end     # /home/evgeny/git/104/UI-01_sw1_hw1/lib_i2c/src/i2c_slave.xc:42:0
.Ltmp446:
	ldw r0, r4[3]
	.loc	2 42 0                  # /home/evgeny/git/104/UI-01_sw1_hw1/lib_i2c/src/i2c_slave.xc:42:0
.Ltmp447:
.Lxta.endpoint_labels39:
	in r1, res[r0]
.Ltmp448:
	.loc	2 43 0                  # /home/evgeny/git/104/UI-01_sw1_hw1/lib_i2c/src/i2c_slave.xc:43:0
	ldw r1, r4[6]
	.loc	2 43 0                  # /home/evgeny/git/104/UI-01_sw1_hw1/lib_i2c/src/i2c_slave.xc:43:0
	sub r1, r1, 1
	ldc r5, 6
	lsu r2, r5, r1
	bt r2, .LBB40_48
# BB#1:                                 # %allocas
.Lxtalabel138:

	.xtabranch .Ljumptable2+2,.Ljumptable2+4,.Ljumptable2+6,.Ljumptable2+8,.Ljumptable2+10,.Ljumptable2+12,.Ljumptable2+14
.Ljumptable2:
		
	bru r1
	.jmptable .LBB40_2,.LBB40_15,.LBB40_11,.LBB40_21,.LBB40_47,.LBB40_38,.LBB40_28
.LBB40_2:                               # %switchcase
.Lxtalabel139:
	.loc	2 46 9                  # /home/evgeny/git/104/UI-01_sw1_hw1/lib_i2c/src/i2c_slave.xc:46:9
	ldw r0, r4[9]
	.loc	2 46 9                  # /home/evgeny/git/104/UI-01_sw1_hw1/lib_i2c/src/i2c_slave.xc:46:9
	bf r0, .LBB40_3
# BB#4:                                 # %ifdone
.Lxtalabel140:
	.loc	2 52 0                  # /home/evgeny/git/104/UI-01_sw1_hw1/lib_i2c/src/i2c_slave.xc:52:0
.Ltmp449:
	ldw r0, r4[4]
	.loc	2 52 0                  # /home/evgeny/git/104/UI-01_sw1_hw1/lib_i2c/src/i2c_slave.xc:52:0
	setc res[r0], 1
	.loc	2 52 0                  # /home/evgeny/git/104/UI-01_sw1_hw1/lib_i2c/src/i2c_slave.xc:52:0
.Lxta.endpoint_labels40:
	in r0, res[r0]
.Ltmp450:
	#DEBUG_VALUE: bit <- R0
	.loc	2 53 9                  # /home/evgeny/git/104/UI-01_sw1_hw1/lib_i2c/src/i2c_slave.xc:53:9
	ldw r1, r4[10]
	.loc	2 54 0                  # /home/evgeny/git/104/UI-01_sw1_hw1/lib_i2c/src/i2c_slave.xc:54:0
	ldw r2, r4[11]
	.loc	2 53 9                  # /home/evgeny/git/104/UI-01_sw1_hw1/lib_i2c/src/i2c_slave.xc:53:9
	lss r3, r5, r1
	bt r3, .LBB40_6
.Ltmp451:
# BB#5:                                 # %iftrue7
.Lxtalabel141:
	#DEBUG_VALUE: bit <- R0
	.loc	2 54 0                  # /home/evgeny/git/104/UI-01_sw1_hw1/lib_i2c/src/i2c_slave.xc:54:0
	shl r2, r2, 1
	.loc	2 54 0                  # /home/evgeny/git/104/UI-01_sw1_hw1/lib_i2c/src/i2c_slave.xc:54:0
	or r0, r2, r0
.Ltmp452:
	.loc	2 54 0                  # /home/evgeny/git/104/UI-01_sw1_hw1/lib_i2c/src/i2c_slave.xc:54:0
	stw r0, r4[11]
	.loc	2 55 0                  # /home/evgeny/git/104/UI-01_sw1_hw1/lib_i2c/src/i2c_slave.xc:55:0
	add r0, r1, 1
	.loc	2 55 0                  # /home/evgeny/git/104/UI-01_sw1_hw1/lib_i2c/src/i2c_slave.xc:55:0
	stw r0, r4[10]
	bu .LBB40_9
.Ltmp453:
.LBB40_15:                              # %switchcase40
.Lxtalabel142:
	ldc r6, 0
	.loc	2 79 19                 # /home/evgeny/git/104/UI-01_sw1_hw1/lib_i2c/src/i2c_slave.xc:79:19
.Lxta.endpoint_labels41:
	out res[r0], r6
	ldc r0, 48
	.loc	2 84 9                  # /home/evgeny/git/104/UI-01_sw1_hw1/lib_i2c/src/i2c_slave.xc:84:9
.Ltmp454:
	add r7, r4, r0
	.loc	2 84 9                  # /home/evgeny/git/104/UI-01_sw1_hw1/lib_i2c/src/i2c_slave.xc:84:9
	ldw r2, r7[0]
	.loc	2 85 0                  # /home/evgeny/git/104/UI-01_sw1_hw1/lib_i2c/src/i2c_slave.xc:85:0
	ldw r1, r4[2]
	.loc	2 85 0                  # /home/evgeny/git/104/UI-01_sw1_hw1/lib_i2c/src/i2c_slave.xc:85:0
	ldw r0, r1[0]
	.loc	2 85 0                  # /home/evgeny/git/104/UI-01_sw1_hw1/lib_i2c/src/i2c_slave.xc:85:0
	ldw r1, r1[3]
	.loc	2 84 9                  # /home/evgeny/git/104/UI-01_sw1_hw1/lib_i2c/src/i2c_slave.xc:84:9
	bf r2, .LBB40_16
# BB#12:                                # %iftrue50
.Lxtalabel143:
	.loc	2 85 0                  # /home/evgeny/git/104/UI-01_sw1_hw1/lib_i2c/src/i2c_slave.xc:85:0
	ldw r1, r1[0]
	bu .LBB40_13
.Ltmp455:
.LBB40_11:                              # %switchcase47
.Lxtalabel144:
	ldc r0, 4
.LBB40_8:                               # %ifdone23
.Lxtalabel145:
	.loc	2 62 0                  # /home/evgeny/git/104/UI-01_sw1_hw1/lib_i2c/src/i2c_slave.xc:62:0
.Ltmp456:
	stw r0, r4[6]
.LBB40_9:                               # %ifdone23
.Lxtalabel146:
	ldc r0, 0
	.loc	2 67 0                  # /home/evgeny/git/104/UI-01_sw1_hw1/lib_i2c/src/i2c_slave.xc:67:0
	stw r0, r4[9]
	bu .LBB40_48
.Ltmp457:
.LBB40_21:                              # %switchcase96
.Lxtalabel147:
	.loc	2 121 0                 # /home/evgeny/git/104/UI-01_sw1_hw1/lib_i2c/src/i2c_slave.xc:121:0
	ldw r0, r4[4]
	.loc	2 121 0                 # /home/evgeny/git/104/UI-01_sw1_hw1/lib_i2c/src/i2c_slave.xc:121:0
	setc res[r0], 1
	.loc	2 121 0                 # /home/evgeny/git/104/UI-01_sw1_hw1/lib_i2c/src/i2c_slave.xc:121:0
.Ltmp458:
.Lxta.endpoint_labels42:
	in r0, res[r0]
	.loc	2 122 9                 # /home/evgeny/git/104/UI-01_sw1_hw1/lib_i2c/src/i2c_slave.xc:122:9
	ldw r0, r4[7]
	.loc	2 122 9                 # /home/evgeny/git/104/UI-01_sw1_hw1/lib_i2c/src/i2c_slave.xc:122:9
	eq r1, r0, 6
	bf r1, .LBB40_22
# BB#26:                                # %iftrue116
.Lxtalabel148:
	ldc r1, 0
	.loc	2 125 0                 # /home/evgeny/git/104/UI-01_sw1_hw1/lib_i2c/src/i2c_slave.xc:125:0
	stw r1, r4[11]
	mkmsk r1, 1
	bu .LBB40_24
.Ltmp459:
.LBB40_47:                              # %switchcase2
.Lxtalabel149:
	ldc r0, 0
	.loc	2 72 0                  # /home/evgeny/git/104/UI-01_sw1_hw1/lib_i2c/src/i2c_slave.xc:72:0
	stw r0, r4[7]
	mkmsk r0, 1
	.loc	2 73 0                  # /home/evgeny/git/104/UI-01_sw1_hw1/lib_i2c/src/i2c_slave.xc:73:0
	stw r0, r4[9]
	mkmsk r0, 2
	.loc	2 74 0                  # /home/evgeny/git/104/UI-01_sw1_hw1/lib_i2c/src/i2c_slave.xc:74:0
	stw r0, r4[6]
	bu .LBB40_48
.LBB40_38:                              # %switchcase136
.Lxtalabel150:
	.loc	2 184 9                 # /home/evgeny/git/104/UI-01_sw1_hw1/lib_i2c/src/i2c_slave.xc:184:9
.Ltmp460:
	ldw r1, r4[9]
	.loc	2 184 9                 # /home/evgeny/git/104/UI-01_sw1_hw1/lib_i2c/src/i2c_slave.xc:184:9
	eq r1, r1, 1
	.loc	2 184 9                 # /home/evgeny/git/104/UI-01_sw1_hw1/lib_i2c/src/i2c_slave.xc:184:9
	bf r1, .LBB40_42
# BB#39:                                # %iftrue227
.Lxtalabel151:
	.loc	2 187 0                 # /home/evgeny/git/104/UI-01_sw1_hw1/lib_i2c/src/i2c_slave.xc:187:0
.Ltmp461:
	ldw r0, r4[4]
	.loc	2 187 0                 # /home/evgeny/git/104/UI-01_sw1_hw1/lib_i2c/src/i2c_slave.xc:187:0
	setc res[r0], 1
	.loc	2 187 0                 # /home/evgeny/git/104/UI-01_sw1_hw1/lib_i2c/src/i2c_slave.xc:187:0
.Lxta.endpoint_labels43:
	in r1, res[r0]
.Ltmp462:
	#DEBUG_VALUE: bit <- R1
	.loc	2 188 0                 # /home/evgeny/git/104/UI-01_sw1_hw1/lib_i2c/src/i2c_slave.xc:188:0
	ldw r0, r4[11]
	.loc	2 188 0                 # /home/evgeny/git/104/UI-01_sw1_hw1/lib_i2c/src/i2c_slave.xc:188:0
	shl r0, r0, 1
	.loc	2 188 0                 # /home/evgeny/git/104/UI-01_sw1_hw1/lib_i2c/src/i2c_slave.xc:188:0
	mov r2, r1
	zext r2, 1
	.loc	2 188 0                 # /home/evgeny/git/104/UI-01_sw1_hw1/lib_i2c/src/i2c_slave.xc:188:0
	or r0, r0, r2
	.loc	2 188 0                 # /home/evgeny/git/104/UI-01_sw1_hw1/lib_i2c/src/i2c_slave.xc:188:0
	stw r0, r4[11]
	.loc	2 189 11                # /home/evgeny/git/104/UI-01_sw1_hw1/lib_i2c/src/i2c_slave.xc:189:11
	ldw r0, r4[10]
	bt r0, .LBB40_41
.Ltmp463:
# BB#40:                                # %iftrue245
.Lxtalabel152:
	#DEBUG_VALUE: bit <- R1
	.loc	2 190 13                # /home/evgeny/git/104/UI-01_sw1_hw1/lib_i2c/src/i2c_slave.xc:190:13
	eq r1, r1, 0
.Ltmp464:
	.loc	2 193 0                 # /home/evgeny/git/104/UI-01_sw1_hw1/lib_i2c/src/i2c_slave.xc:193:0
	stw r1, r4[8]
	ldc r1, 52
	.loc	2 196 0                 # /home/evgeny/git/104/UI-01_sw1_hw1/lib_i2c/src/i2c_slave.xc:196:0
	add r1, r4, r1
	mkmsk r2, 1
	.loc	2 196 0                 # /home/evgeny/git/104/UI-01_sw1_hw1/lib_i2c/src/i2c_slave.xc:196:0
	stw r2, r1[0]
.LBB40_41:                              # %ifdone246
.Lxtalabel153:
	ldc r1, 0
	.loc	2 198 0                 # /home/evgeny/git/104/UI-01_sw1_hw1/lib_i2c/src/i2c_slave.xc:198:0
	stw r1, r4[9]
	.loc	2 199 0                 # /home/evgeny/git/104/UI-01_sw1_hw1/lib_i2c/src/i2c_slave.xc:199:0
	add r0, r0, 1
	.loc	2 199 0                 # /home/evgeny/git/104/UI-01_sw1_hw1/lib_i2c/src/i2c_slave.xc:199:0
	stw r0, r4[10]
	bu .LBB40_48
.Ltmp465:
.LBB40_28:                              # %switchcase102
.Lxtalabel154:
	.loc	2 135 9                 # /home/evgeny/git/104/UI-01_sw1_hw1/lib_i2c/src/i2c_slave.xc:135:9
	ldw r1, r4[9]
	.loc	2 135 9                 # /home/evgeny/git/104/UI-01_sw1_hw1/lib_i2c/src/i2c_slave.xc:135:9
	eq r2, r1, 1
	.loc	2 137 11                # /home/evgeny/git/104/UI-01_sw1_hw1/lib_i2c/src/i2c_slave.xc:137:11
	ldw r1, r4[10]
	.loc	2 135 9                 # /home/evgeny/git/104/UI-01_sw1_hw1/lib_i2c/src/i2c_slave.xc:135:9
	bf r2, .LBB40_33
# BB#29:                                # %iftrue137
.Lxtalabel155:
	.loc	2 137 11                # /home/evgeny/git/104/UI-01_sw1_hw1/lib_i2c/src/i2c_slave.xc:137:11
	eq r0, r1, 8
	.loc	2 137 11                # /home/evgeny/git/104/UI-01_sw1_hw1/lib_i2c/src/i2c_slave.xc:137:11
	bf r0, .LBB40_49
# BB#30:                                # %iftrue145
.Lxtalabel156:
	.loc	2 140 0                 # /home/evgeny/git/104/UI-01_sw1_hw1/lib_i2c/src/i2c_slave.xc:140:0
.Ltmp466:
	ldw r0, r4[4]
	.loc	2 140 0                 # /home/evgeny/git/104/UI-01_sw1_hw1/lib_i2c/src/i2c_slave.xc:140:0
	setc res[r0], 1
	.loc	2 140 0                 # /home/evgeny/git/104/UI-01_sw1_hw1/lib_i2c/src/i2c_slave.xc:140:0
.Lxta.endpoint_labels44:
	in r0, res[r0]
.Ltmp467:
	#DEBUG_VALUE: bit <- R0
	.loc	2 141 13                # /home/evgeny/git/104/UI-01_sw1_hw1/lib_i2c/src/i2c_slave.xc:141:13
	bf r0, .LBB40_32
.Ltmp468:
# BB#31:                                # %iftrue156
.Lxtalabel157:
	ldc r0, 0
	.loc	2 143 0                 # /home/evgeny/git/104/UI-01_sw1_hw1/lib_i2c/src/i2c_slave.xc:143:0
	stw r0, r4[6]
	.loc	2 144 0                 # /home/evgeny/git/104/UI-01_sw1_hw1/lib_i2c/src/i2c_slave.xc:144:0
	stw r0, r4[8]
	bu .LBB40_48
.Ltmp469:
.LBB40_22:                              # %switchcase96
.Lxtalabel158:
	eq r1, r0, 7
	bf r1, .LBB40_27
# BB#23:                                # %iftrue106
.Lxtalabel159:
	ldc r1, 0
.LBB40_24:                              # %ifdone107
.Lxtalabel160:
	.loc	2 123 0                 # /home/evgeny/git/104/UI-01_sw1_hw1/lib_i2c/src/i2c_slave.xc:123:0
	stw r1, r4[9]
	bu .LBB40_25
.LBB40_42:                              # %iffalse234
.Lxtalabel161:
	ldc r1, 52
	.loc	2 204 0                 # /home/evgeny/git/104/UI-01_sw1_hw1/lib_i2c/src/i2c_slave.xc:204:0
.Ltmp470:
	add r1, r4, r1
	ldc r5, 0
	.loc	2 204 0                 # /home/evgeny/git/104/UI-01_sw1_hw1/lib_i2c/src/i2c_slave.xc:204:0
	stw r5, r1[0]
	.loc	2 206 11                # /home/evgeny/git/104/UI-01_sw1_hw1/lib_i2c/src/i2c_slave.xc:206:11
	ldw r1, r4[10]
	.loc	2 206 11                # /home/evgeny/git/104/UI-01_sw1_hw1/lib_i2c/src/i2c_slave.xc:206:11
	eq r1, r1, 8
	bf r1, .LBB40_3
# BB#43:                                # %iftrue269
.Lxtalabel162:
	.loc	2 208 23                # /home/evgeny/git/104/UI-01_sw1_hw1/lib_i2c/src/i2c_slave.xc:208:23
.Lxta.endpoint_labels45:
	out res[r0], r5
	.loc	2 209 0                 # /home/evgeny/git/104/UI-01_sw1_hw1/lib_i2c/src/i2c_slave.xc:209:0
.Ltmp471:
	ldw r1, r4[2]
	.loc	2 209 0                 # /home/evgeny/git/104/UI-01_sw1_hw1/lib_i2c/src/i2c_slave.xc:209:0
	ldw r0, r1[0]
	.loc	2 209 0                 # /home/evgeny/git/104/UI-01_sw1_hw1/lib_i2c/src/i2c_slave.xc:209:0
	ldw r1, r1[3]
	.loc	2 209 0                 # /home/evgeny/git/104/UI-01_sw1_hw1/lib_i2c/src/i2c_slave.xc:209:0
	ldw r2, r1[3]
	ldc r1, 44
	.loc	2 209 0                 # /home/evgeny/git/104/UI-01_sw1_hw1/lib_i2c/src/i2c_slave.xc:209:0
	ld8u r1, r4[r1]
.Lxta.call_labels14:
	bla r2
.Ltmp472:
	#DEBUG_VALUE: ack <- R0
	.loc	2 210 13                # /home/evgeny/git/104/UI-01_sw1_hw1/lib_i2c/src/i2c_slave.xc:210:13
	eq r1, r0, 1
	.loc	2 212 0                 # /home/evgeny/git/104/UI-01_sw1_hw1/lib_i2c/src/i2c_slave.xc:212:0
	ldw r0, r4[4]
.Ltmp473:
	.loc	2 210 13                # /home/evgeny/git/104/UI-01_sw1_hw1/lib_i2c/src/i2c_slave.xc:210:13
	bf r1, .LBB40_46
# BB#44:                                # %iftrue288
.Lxtalabel163:
	.loc	2 212 0                 # /home/evgeny/git/104/UI-01_sw1_hw1/lib_i2c/src/i2c_slave.xc:212:0
	setc res[r0], 1
	.loc	2 212 0                 # /home/evgeny/git/104/UI-01_sw1_hw1/lib_i2c/src/i2c_slave.xc:212:0
.Ltmp474:
.Lxta.endpoint_labels46:
	in r0, res[r0]
	bu .LBB40_45
.Ltmp475:
.LBB40_33:                              # %iffalse144
.Lxtalabel164:
	ldc r2, 8
	.loc	2 156 11                # /home/evgeny/git/104/UI-01_sw1_hw1/lib_i2c/src/i2c_slave.xc:156:11
	lss r2, r1, r2
	.loc	2 156 11                # /home/evgeny/git/104/UI-01_sw1_hw1/lib_i2c/src/i2c_slave.xc:156:11
	bf r2, .LBB40_50
# BB#34:                                # %iftrue173
.Lxtalabel165:
	.loc	2 157 13                # /home/evgeny/git/104/UI-01_sw1_hw1/lib_i2c/src/i2c_slave.xc:157:13
	bf r1, .LBB40_35
# BB#37:                                # %iffalse188
.Lxtalabel166:
	.loc	2 172 34                # /home/evgeny/git/104/UI-01_sw1_hw1/lib_i2c/src/i2c_slave.xc:172:34
.Ltmp476:
	ldw r1, r4[4]
	.loc	2 172 34                # /home/evgeny/git/104/UI-01_sw1_hw1/lib_i2c/src/i2c_slave.xc:172:34
	ldw r0, r4[11]
	.loc	2 172 34                # /home/evgeny/git/104/UI-01_sw1_hw1/lib_i2c/src/i2c_slave.xc:172:34
	mov r2, r0
	zext r2, 1
	.loc	2 172 34                # /home/evgeny/git/104/UI-01_sw1_hw1/lib_i2c/src/i2c_slave.xc:172:34
.Lxta.endpoint_labels47:
	out res[r1], r2
	bu .LBB40_36
.Ltmp477:
.LBB40_16:                              # %iffalse55
.Lxtalabel167:
	.loc	2 87 0                  # /home/evgeny/git/104/UI-01_sw1_hw1/lib_i2c/src/i2c_slave.xc:87:0
	ldw r1, r1[1]
.LBB40_13:                              # %ifdone51
.Lxtalabel168:
	.loc	2 85 0                  # /home/evgeny/git/104/UI-01_sw1_hw1/lib_i2c/src/i2c_slave.xc:85:0
.Lxta.call_labels15:
	bla r1
.Ltmp478:
	#DEBUG_VALUE: ack <- R0
	ldc r1, 56
	.loc	2 90 0                  # /home/evgeny/git/104/UI-01_sw1_hw1/lib_i2c/src/i2c_slave.xc:90:0
	add r1, r4, r1
	.loc	2 90 0                  # /home/evgeny/git/104/UI-01_sw1_hw1/lib_i2c/src/i2c_slave.xc:90:0
	stw r6, r1[0]
	.loc	2 91 9                  # /home/evgeny/git/104/UI-01_sw1_hw1/lib_i2c/src/i2c_slave.xc:91:9
	eq r1, r0, 1
	.loc	2 93 0                  # /home/evgeny/git/104/UI-01_sw1_hw1/lib_i2c/src/i2c_slave.xc:93:0
	ldw r0, r4[4]
.Ltmp479:
	.loc	2 91 9                  # /home/evgeny/git/104/UI-01_sw1_hw1/lib_i2c/src/i2c_slave.xc:91:9
	bf r1, .LBB40_17
# BB#14:                                # %iftrue65
.Lxtalabel169:
	.loc	2 93 0                  # /home/evgeny/git/104/UI-01_sw1_hw1/lib_i2c/src/i2c_slave.xc:93:0
	setc res[r0], 1
	.loc	2 93 0                  # /home/evgeny/git/104/UI-01_sw1_hw1/lib_i2c/src/i2c_slave.xc:93:0
.Ltmp480:
.Lxta.endpoint_labels48:
	in r0, res[r0]
	.loc	2 94 0                  # /home/evgeny/git/104/UI-01_sw1_hw1/lib_i2c/src/i2c_slave.xc:94:0
	stw r6, r4[7]
	bu .LBB40_19
.LBB40_17:                              # %iffalse70
.Lxtalabel170:
	.loc	2 97 21                 # /home/evgeny/git/104/UI-01_sw1_hw1/lib_i2c/src/i2c_slave.xc:97:21
.Lxta.endpoint_labels49:
	out res[r0], r6
	.loc	2 98 11                 # /home/evgeny/git/104/UI-01_sw1_hw1/lib_i2c/src/i2c_slave.xc:98:11
	ldw r0, r7[0]
	.loc	2 98 11                 # /home/evgeny/git/104/UI-01_sw1_hw1/lib_i2c/src/i2c_slave.xc:98:11
	bf r0, .LBB40_20
# BB#18:                                # %iftrue78
.Lxtalabel171:
	mkmsk r0, 3
	.loc	2 99 0                  # /home/evgeny/git/104/UI-01_sw1_hw1/lib_i2c/src/i2c_slave.xc:99:0
	stw r0, r4[7]
	bu .LBB40_19
.Ltmp481:
.LBB40_6:                               # %ifdone8
.Lxtalabel172:
	#DEBUG_VALUE: bit <- R0
	ldc r1, 20
	.loc	2 61 9                  # /home/evgeny/git/104/UI-01_sw1_hw1/lib_i2c/src/i2c_slave.xc:61:9
.Ltmp482:
	ld8u r1, r4[r1]
	.loc	2 61 9                  # /home/evgeny/git/104/UI-01_sw1_hw1/lib_i2c/src/i2c_slave.xc:61:9
	eq r1, r2, r1
	.loc	2 61 9                  # /home/evgeny/git/104/UI-01_sw1_hw1/lib_i2c/src/i2c_slave.xc:61:9
	bf r1, .LBB40_7
.Ltmp483:
# BB#10:                                # %iffalse
.Lxtalabel173:
	#DEBUG_VALUE: bit <- R0
	ldc r1, 2
	.loc	2 64 0                  # /home/evgeny/git/104/UI-01_sw1_hw1/lib_i2c/src/i2c_slave.xc:64:0
	stw r1, r4[6]
	ldc r1, 48
	.loc	2 65 0                  # /home/evgeny/git/104/UI-01_sw1_hw1/lib_i2c/src/i2c_slave.xc:65:0
	add r1, r4, r1
	.loc	2 65 0                  # /home/evgeny/git/104/UI-01_sw1_hw1/lib_i2c/src/i2c_slave.xc:65:0
	stw r0, r1[0]
	bu .LBB40_9
.Ltmp484:
.LBB40_49:                              # %iffalse152
.Lxtalabel174:
	ldc r0, 0
	.loc	2 151 0                 # /home/evgeny/git/104/UI-01_sw1_hw1/lib_i2c/src/i2c_slave.xc:151:0
.Ltmp485:
	stw r0, r4[9]
	.loc	2 152 0                 # /home/evgeny/git/104/UI-01_sw1_hw1/lib_i2c/src/i2c_slave.xc:152:0
	add r0, r1, 1
	.loc	2 152 0                 # /home/evgeny/git/104/UI-01_sw1_hw1/lib_i2c/src/i2c_slave.xc:152:0
	stw r0, r4[10]
	bu .LBB40_48
.LBB40_27:                              # %iffalse123
.Lxtalabel175:
	ldc r1, 0
	.loc	2 128 0                 # /home/evgeny/git/104/UI-01_sw1_hw1/lib_i2c/src/i2c_slave.xc:128:0
	stw r1, r4[8]
.LBB40_25:                              # %ifdone107
.Lxtalabel176:
	.loc	2 130 0                 # /home/evgeny/git/104/UI-01_sw1_hw1/lib_i2c/src/i2c_slave.xc:130:0
	stw r0, r4[6]
	ldc r0, 0
	.loc	2 131 0                 # /home/evgeny/git/104/UI-01_sw1_hw1/lib_i2c/src/i2c_slave.xc:131:0
	stw r0, r4[10]
	bu .LBB40_48
.LBB40_50:                              # %iffalse180
.Lxtalabel177:
	.loc	2 177 0                 # /home/evgeny/git/104/UI-01_sw1_hw1/lib_i2c/src/i2c_slave.xc:177:0
.Ltmp486:
	ldw r0, r4[4]
	bu .LBB40_51
.Ltmp487:
.LBB40_20:                              # %iffalse83
.Lxtalabel178:
	.loc	2 101 0                 # /home/evgeny/git/104/UI-01_sw1_hw1/lib_i2c/src/i2c_slave.xc:101:0
	stw r5, r4[7]
.LBB40_19:                              # %ifdone66
.Lxtalabel179:
	mkmsk r0, 1
	.loc	2 104 0                 # /home/evgeny/git/104/UI-01_sw1_hw1/lib_i2c/src/i2c_slave.xc:104:0
	stw r0, r4[9]
	mkmsk r0, 2
	.loc	2 105 0                 # /home/evgeny/git/104/UI-01_sw1_hw1/lib_i2c/src/i2c_slave.xc:105:0
	stw r0, r4[6]
	ldc r0, 10
	.loc	2 20 0                  # /home/evgeny/git/104/UI-01_sw1_hw1/lib_i2c/src/i2c_slave.xc:20:0
.Ltmp488:
.Lxta.call_labels16:
	bl delay_ticks
.Ltmp489:
	.loc	2 110 0                 # /home/evgeny/git/104/UI-01_sw1_hw1/lib_i2c/src/i2c_slave.xc:110:0
	ldw r0, r4[3]
	.loc	2 110 0                 # /home/evgeny/git/104/UI-01_sw1_hw1/lib_i2c/src/i2c_slave.xc:110:0
	setc res[r0], 1
	.loc	2 110 0                 # /home/evgeny/git/104/UI-01_sw1_hw1/lib_i2c/src/i2c_slave.xc:110:0
.Ltmp490:
.Lxta.endpoint_labels50:
	in r0, res[r0]
	bu .LBB40_48
.Ltmp491:
.LBB40_7:                               # %iftrue22
.Lxtalabel180:
	ldc r0, 5
	bu .LBB40_8
.LBB40_46:                              # %iffalse293
.Lxtalabel181:
	.loc	2 215 25                # /home/evgeny/git/104/UI-01_sw1_hw1/lib_i2c/src/i2c_slave.xc:215:25
.Ltmp492:
.Lxta.endpoint_labels51:
	out res[r0], r5
.LBB40_45:                              # %ifdone289
.Lxtalabel182:
	mkmsk r0, 2
	.loc	2 217 0                 # /home/evgeny/git/104/UI-01_sw1_hw1/lib_i2c/src/i2c_slave.xc:217:0
	stw r0, r4[6]
	ldc r0, 10
	.loc	2 20 0                  # /home/evgeny/git/104/UI-01_sw1_hw1/lib_i2c/src/i2c_slave.xc:20:0
.Ltmp493:
.Lxta.call_labels17:
	bl delay_ticks
.Ltmp494:
	.loc	2 222 0                 # /home/evgeny/git/104/UI-01_sw1_hw1/lib_i2c/src/i2c_slave.xc:222:0
	ldw r0, r4[3]
.Ltmp495:
.LBB40_51:                              # %iftrue
.Lxtalabel183:
	.loc	2 177 0                 # /home/evgeny/git/104/UI-01_sw1_hw1/lib_i2c/src/i2c_slave.xc:177:0
	setc res[r0], 1
	.loc	2 177 0                 # /home/evgeny/git/104/UI-01_sw1_hw1/lib_i2c/src/i2c_slave.xc:177:0
.Ltmp496:
.Lxta.endpoint_labels52:
	in r0, res[r0]
	bu .LBB40_3
.Ltmp497:
.LBB40_32:                              # %iffalse159
.Lxtalabel184:
	ldc r0, 0
	.loc	2 146 0                 # /home/evgeny/git/104/UI-01_sw1_hw1/lib_i2c/src/i2c_slave.xc:146:0
.Ltmp498:
	stw r0, r4[10]
	.loc	2 147 0                 # /home/evgeny/git/104/UI-01_sw1_hw1/lib_i2c/src/i2c_slave.xc:147:0
	stw r0, r4[9]
	bu .LBB40_48
.Ltmp499:
.LBB40_35:                              # %iftrue181
.Lxtalabel185:
	ldc r1, 0
	.loc	2 159 25                # /home/evgeny/git/104/UI-01_sw1_hw1/lib_i2c/src/i2c_slave.xc:159:25
.Lxta.endpoint_labels53:
	out res[r0], r1
	.loc	2 160 0                 # /home/evgeny/git/104/UI-01_sw1_hw1/lib_i2c/src/i2c_slave.xc:160:0
	ldw r1, r4[2]
	.loc	2 160 0                 # /home/evgeny/git/104/UI-01_sw1_hw1/lib_i2c/src/i2c_slave.xc:160:0
	ldw r0, r1[0]
	.loc	2 160 0                 # /home/evgeny/git/104/UI-01_sw1_hw1/lib_i2c/src/i2c_slave.xc:160:0
	ldw r1, r1[3]
	.loc	2 160 0                 # /home/evgeny/git/104/UI-01_sw1_hw1/lib_i2c/src/i2c_slave.xc:160:0
	ldw r1, r1[2]
	.loc	2 160 0                 # /home/evgeny/git/104/UI-01_sw1_hw1/lib_i2c/src/i2c_slave.xc:160:0
.Lxta.call_labels18:
	bla r1
	.loc	2 162 0                 # /home/evgeny/git/104/UI-01_sw1_hw1/lib_i2c/src/i2c_slave.xc:162:0
	bitrev r0, r0
	.loc	2 162 0                 # /home/evgeny/git/104/UI-01_sw1_hw1/lib_i2c/src/i2c_slave.xc:162:0
	shr r0, r0, 24
	.loc	2 162 0                 # /home/evgeny/git/104/UI-01_sw1_hw1/lib_i2c/src/i2c_slave.xc:162:0
	stw r0, r4[11]
	.loc	2 165 34                # /home/evgeny/git/104/UI-01_sw1_hw1/lib_i2c/src/i2c_slave.xc:165:34
	ldw r1, r4[4]
	.loc	2 165 34                # /home/evgeny/git/104/UI-01_sw1_hw1/lib_i2c/src/i2c_slave.xc:165:34
	zext r0, 1
	.loc	2 165 34                # /home/evgeny/git/104/UI-01_sw1_hw1/lib_i2c/src/i2c_slave.xc:165:34
.Lxta.endpoint_labels54:
	out res[r1], r0
	ldc r0, 10
	.loc	2 20 0                  # /home/evgeny/git/104/UI-01_sw1_hw1/lib_i2c/src/i2c_slave.xc:20:0
.Ltmp500:
.Lxta.call_labels19:
	bl delay_ticks
.Ltmp501:
	.loc	2 170 0                 # /home/evgeny/git/104/UI-01_sw1_hw1/lib_i2c/src/i2c_slave.xc:170:0
	ldw r0, r4[3]
	.loc	2 170 0                 # /home/evgeny/git/104/UI-01_sw1_hw1/lib_i2c/src/i2c_slave.xc:170:0
	setc res[r0], 1
	.loc	2 170 0                 # /home/evgeny/git/104/UI-01_sw1_hw1/lib_i2c/src/i2c_slave.xc:170:0
.Ltmp502:
.Lxta.endpoint_labels55:
	in r0, res[r0]
	.loc	2 174 0                 # /home/evgeny/git/104/UI-01_sw1_hw1/lib_i2c/src/i2c_slave.xc:174:0
	ldw r0, r4[11]
.LBB40_36:                              # %ifdone182
.Lxtalabel186:
	.loc	2 174 0                 # /home/evgeny/git/104/UI-01_sw1_hw1/lib_i2c/src/i2c_slave.xc:174:0
	ashr r0, r0, 1
	.loc	2 174 0                 # /home/evgeny/git/104/UI-01_sw1_hw1/lib_i2c/src/i2c_slave.xc:174:0
	stw r0, r4[11]
.Ltmp503:
.LBB40_3:                               # %iftrue
.Lxtalabel187:
	mkmsk r0, 1
	.loc	2 47 0                  # /home/evgeny/git/104/UI-01_sw1_hw1/lib_i2c/src/i2c_slave.xc:47:0
	stw r0, r4[9]
.Ltmp504:
.LBB40_48:                              # %return
.Lxtalabel188:
	ldd r7, r6, sp[2]               # 4-byte Folded Reload
	ldd r5, r4, sp[1]               # 4-byte Folded Reload
	retsp 6
	# RETURN_REG_HOLDER
	.cc_bottom i2c_slave.select.case.1.function
	.set	i2c_slave.select.case.1.nstackwords,((_i.i2c_slave_callback_if.ack_read_request.max.nstackwords $M _i.i2c_slave_callback_if.master_sent_data.max.nstackwords $M _i.i2c_slave_callback_if.master_requires_data.max.nstackwords $M delay_ticks.nstackwords) + 6)
	.set	i2c_slave.select.case.1.maxcores,_i.i2c_slave_callback_if.ack_read_request.max.maxcores $M _i.i2c_slave_callback_if.ack_write_request.max.maxcores $M _i.i2c_slave_callback_if.master_requires_data.max.maxcores $M _i.i2c_slave_callback_if.master_sent_data.max.maxcores $M delay_ticks.maxcores $M 1
	.set	i2c_slave.select.case.1.maxtimers,_i.i2c_slave_callback_if.ack_read_request.max.maxtimers $M _i.i2c_slave_callback_if.ack_write_request.max.maxtimers $M _i.i2c_slave_callback_if.master_requires_data.max.maxtimers $M _i.i2c_slave_callback_if.master_sent_data.max.maxtimers $M delay_ticks.maxtimers $M 0
	.set	i2c_slave.select.case.1.maxchanends,_i.i2c_slave_callback_if.ack_read_request.max.maxchanends $M _i.i2c_slave_callback_if.ack_write_request.max.maxchanends $M _i.i2c_slave_callback_if.master_requires_data.max.maxchanends $M _i.i2c_slave_callback_if.master_sent_data.max.maxchanends $M delay_ticks.maxchanends $M 0
.Ltmp505:
	.size	i2c_slave.select.case.1, .Ltmp505-i2c_slave.select.case.1
.Lfunc_end40:
	.cfi_endproc

	.align	4
	.type	i2c_slave.select.case.2,@function
	.cc_top i2c_slave.select.case.2.function,i2c_slave.select.case.2
i2c_slave.select.case.2:                # @i2c_slave.select.case.2
.Lfunc_begin41:
	.loc	2 230 0                 # /home/evgeny/git/104/UI-01_sw1_hw1/lib_i2c/src/i2c_slave.xc:230:0
	.cfi_startproc
	.issue_mode single
# BB#0:                                 # %allocas
.Lxtalabel189:
	ENTSP_lu6 4
.Ltmp506:
	.cfi_def_cfa_offset 16
.Ltmp507:
	.cfi_offset 15, 0
	std r5, r4, sp[1]               # 4-byte Folded Spill
.Ltmp508:
	.cfi_offset 4, -8
.Ltmp509:
	.cfi_offset 5, -4
	get r11, ed
	mov r4, r11
	.loc	2 230 0 prologue_end    # /home/evgeny/git/104/UI-01_sw1_hw1/lib_i2c/src/i2c_slave.xc:230:0
.Ltmp510:
	ldw r0, r4[4]
	.loc	2 231 0                 # /home/evgeny/git/104/UI-01_sw1_hw1/lib_i2c/src/i2c_slave.xc:231:0
.Ltmp511:
.Lxta.endpoint_labels56:
	in r0, res[r0]
.Ltmp512:
	.loc	2 232 7                 # /home/evgeny/git/104/UI-01_sw1_hw1/lib_i2c/src/i2c_slave.xc:232:7
	ldw r1, r4[8]
	.loc	2 236 0                 # /home/evgeny/git/104/UI-01_sw1_hw1/lib_i2c/src/i2c_slave.xc:236:0
.Ltmp513:
	ldw r0, r4[3]
	.loc	2 236 0                 # /home/evgeny/git/104/UI-01_sw1_hw1/lib_i2c/src/i2c_slave.xc:236:0
	setc res[r0], 1
	.loc	2 236 0                 # /home/evgeny/git/104/UI-01_sw1_hw1/lib_i2c/src/i2c_slave.xc:236:0
	in r0, res[r0]
.Ltmp514:
	#DEBUG_VALUE: val <- R0
	#DEBUG_VALUE: val <- R0
	.loc	2 232 7                 # /home/evgeny/git/104/UI-01_sw1_hw1/lib_i2c/src/i2c_slave.xc:232:7
	eq r1, r1, 1
	bf r1, .LBB41_6
.Ltmp515:
# BB#1:                                 # %iftrue
.Lxtalabel190:
	#DEBUG_VALUE: val <- R0
	bf r0, .LBB41_5
.Ltmp516:
# BB#2:                                 # %iftrue3
.Lxtalabel191:
	ldc r0, 56
	.loc	2 238 11                # /home/evgeny/git/104/UI-01_sw1_hw1/lib_i2c/src/i2c_slave.xc:238:11
.Ltmp517:
	add r5, r4, r0
	.loc	2 238 11                # /home/evgeny/git/104/UI-01_sw1_hw1/lib_i2c/src/i2c_slave.xc:238:11
	ldw r0, r5[0]
	bt r0, .LBB41_4
# BB#3:                                 # %iftrue6
.Lxtalabel192:
	.loc	2 239 0                 # /home/evgeny/git/104/UI-01_sw1_hw1/lib_i2c/src/i2c_slave.xc:239:0
	ldw r1, r4[2]
	.loc	2 239 0                 # /home/evgeny/git/104/UI-01_sw1_hw1/lib_i2c/src/i2c_slave.xc:239:0
	ldw r0, r1[0]
	.loc	2 239 0                 # /home/evgeny/git/104/UI-01_sw1_hw1/lib_i2c/src/i2c_slave.xc:239:0
	ldw r1, r1[3]
	.loc	2 239 0                 # /home/evgeny/git/104/UI-01_sw1_hw1/lib_i2c/src/i2c_slave.xc:239:0
	ldw r1, r1[4]
	.loc	2 239 0                 # /home/evgeny/git/104/UI-01_sw1_hw1/lib_i2c/src/i2c_slave.xc:239:0
.Lxta.call_labels20:
	bla r1
.LBB41_4:                               # %ifdone7
.Lxtalabel193:
	ldc r0, 0
	.loc	2 241 0                 # /home/evgeny/git/104/UI-01_sw1_hw1/lib_i2c/src/i2c_slave.xc:241:0
	stw r0, r4[6]
	mkmsk r1, 1
	.loc	2 242 0                 # /home/evgeny/git/104/UI-01_sw1_hw1/lib_i2c/src/i2c_slave.xc:242:0
	stw r1, r5[0]
	ldc r1, 52
	.loc	2 243 0                 # /home/evgeny/git/104/UI-01_sw1_hw1/lib_i2c/src/i2c_slave.xc:243:0
	add r1, r4, r1
	.loc	2 243 0                 # /home/evgeny/git/104/UI-01_sw1_hw1/lib_i2c/src/i2c_slave.xc:243:0
	stw r0, r1[0]
.Ltmp518:
.LBB41_5:                               # %ifdone4
.Lxtalabel194:
	ldc r0, 0
	bu .LBB41_9
.LBB41_6:                               # %iffalse
.Lxtalabel195:
.Ltmp519:
	#DEBUG_VALUE: val <- R0
	.loc	2 251 9                 # /home/evgeny/git/104/UI-01_sw1_hw1/lib_i2c/src/i2c_slave.xc:251:9
	eq r0, r0, 1
.Ltmp520:
	.loc	2 251 9                 # /home/evgeny/git/104/UI-01_sw1_hw1/lib_i2c/src/i2c_slave.xc:251:9
	bf r0, .LBB41_8
# BB#7:                                 # %iftrue23
.Lxtalabel196:
	mkmsk r0, 1
	.loc	2 252 0                 # /home/evgeny/git/104/UI-01_sw1_hw1/lib_i2c/src/i2c_slave.xc:252:0
	stw r0, r4[6]
	ldc r0, 0
	.loc	2 253 0                 # /home/evgeny/git/104/UI-01_sw1_hw1/lib_i2c/src/i2c_slave.xc:253:0
	stw r0, r4[10]
