	.text
	.file	"/home/evgeny/git/104/UI-01_sw1_hw1/lib_i2c/src/i2c_master_ext.xc"
                                        # Start of file scope inline assembly
	.weak _i.i2c_slave_callback_if.ack_read_request.maxchanends.group
	.max_reduce _i.i2c_slave_callback_if.ack_read_request.max.maxchanends, _i.i2c_slave_callback_if.ack_read_request.maxchanends.group, 0
	.weak _i.i2c_slave_callback_if.ack_read_request.maxcores.group
	.max_reduce _i.i2c_slave_callback_if.ack_read_request.max.maxcores, _i.i2c_slave_callback_if.ack_read_request.maxcores.group, 0
	.weak _i.i2c_slave_callback_if.ack_read_request.maxtimers.group
	.max_reduce _i.i2c_slave_callback_if.ack_read_request.max.maxtimers, _i.i2c_slave_callback_if.ack_read_request.maxtimers.group, 0
	.weak _i.i2c_slave_callback_if.ack_read_request.nstackwords.group
	.globl _i.i2c_slave_callback_if.ack_read_request.nstackwords.group
	.weak _i.i2c_slave_callback_if.ack_read_request.fns.group
	.globl _i.i2c_slave_callback_if.ack_read_request.fns.group
	.max_reduce _i.i2c_slave_callback_if.ack_read_request.max.nstackwords, _i.i2c_slave_callback_if.ack_read_request.nstackwords.group, 0
	.max_reduce _i.i2c_slave_callback_if.ack_read_request.fns, _i.i2c_slave_callback_if.ack_read_request.fns.group, 0
	.weak _i.i2c_slave_callback_if.ack_write_request.maxchanends.group
	.max_reduce _i.i2c_slave_callback_if.ack_write_request.max.maxchanends, _i.i2c_slave_callback_if.ack_write_request.maxchanends.group, 0
	.weak _i.i2c_slave_callback_if.ack_write_request.maxcores.group
	.max_reduce _i.i2c_slave_callback_if.ack_write_request.max.maxcores, _i.i2c_slave_callback_if.ack_write_request.maxcores.group, 0
	.weak _i.i2c_slave_callback_if.ack_write_request.maxtimers.group
	.max_reduce _i.i2c_slave_callback_if.ack_write_request.max.maxtimers, _i.i2c_slave_callback_if.ack_write_request.maxtimers.group, 0
	.weak _i.i2c_slave_callback_if.ack_write_request.nstackwords.group
	.globl _i.i2c_slave_callback_if.ack_write_request.nstackwords.group
	.weak _i.i2c_slave_callback_if.ack_write_request.fns.group
	.globl _i.i2c_slave_callback_if.ack_write_request.fns.group
	.max_reduce _i.i2c_slave_callback_if.ack_write_request.max.nstackwords, _i.i2c_slave_callback_if.ack_write_request.nstackwords.group, 0
	.max_reduce _i.i2c_slave_callback_if.ack_write_request.fns, _i.i2c_slave_callback_if.ack_write_request.fns.group, 0
	.weak _i.i2c_slave_callback_if.master_requires_data.maxchanends.group
	.max_reduce _i.i2c_slave_callback_if.master_requires_data.max.maxchanends, _i.i2c_slave_callback_if.master_requires_data.maxchanends.group, 0
	.weak _i.i2c_slave_callback_if.master_requires_data.maxcores.group
	.max_reduce _i.i2c_slave_callback_if.master_requires_data.max.maxcores, _i.i2c_slave_callback_if.master_requires_data.maxcores.group, 0
	.weak _i.i2c_slave_callback_if.master_requires_data.maxtimers.group
	.max_reduce _i.i2c_slave_callback_if.master_requires_data.max.maxtimers, _i.i2c_slave_callback_if.master_requires_data.maxtimers.group, 0
	.weak _i.i2c_slave_callback_if.master_requires_data.nstackwords.group
	.globl _i.i2c_slave_callback_if.master_requires_data.nstackwords.group
	.weak _i.i2c_slave_callback_if.master_requires_data.fns.group
	.globl _i.i2c_slave_callback_if.master_requires_data.fns.group
	.max_reduce _i.i2c_slave_callback_if.master_requires_data.max.nstackwords, _i.i2c_slave_callback_if.master_requires_data.nstackwords.group, 0
	.max_reduce _i.i2c_slave_callback_if.master_requires_data.fns, _i.i2c_slave_callback_if.master_requires_data.fns.group, 0
	.weak _i.i2c_slave_callback_if.master_sent_data.maxchanends.group
	.max_reduce _i.i2c_slave_callback_if.master_sent_data.max.maxchanends, _i.i2c_slave_callback_if.master_sent_data.maxchanends.group, 0
	.weak _i.i2c_slave_callback_if.master_sent_data.maxcores.group
	.max_reduce _i.i2c_slave_callback_if.master_sent_data.max.maxcores, _i.i2c_slave_callback_if.master_sent_data.maxcores.group, 0
	.weak _i.i2c_slave_callback_if.master_sent_data.maxtimers.group
	.max_reduce _i.i2c_slave_callback_if.master_sent_data.max.maxtimers, _i.i2c_slave_callback_if.master_sent_data.maxtimers.group, 0
	.weak _i.i2c_slave_callback_if.master_sent_data.nstackwords.group
	.globl _i.i2c_slave_callback_if.master_sent_data.nstackwords.group
	.weak _i.i2c_slave_callback_if.master_sent_data.fns.group
	.globl _i.i2c_slave_callback_if.master_sent_data.fns.group
	.max_reduce _i.i2c_slave_callback_if.master_sent_data.max.nstackwords, _i.i2c_slave_callback_if.master_sent_data.nstackwords.group, 0
	.max_reduce _i.i2c_slave_callback_if.master_sent_data.fns, _i.i2c_slave_callback_if.master_sent_data.fns.group, 0
	.weak _i.i2c_slave_callback_if.stop_bit.maxchanends.group
	.max_reduce _i.i2c_slave_callback_if.stop_bit.max.maxchanends, _i.i2c_slave_callback_if.stop_bit.maxchanends.group, 0
	.weak _i.i2c_slave_callback_if.stop_bit.maxcores.group
	.max_reduce _i.i2c_slave_callback_if.stop_bit.max.maxcores, _i.i2c_slave_callback_if.stop_bit.maxcores.group, 0
	.weak _i.i2c_slave_callback_if.stop_bit.maxtimers.group
	.max_reduce _i.i2c_slave_callback_if.stop_bit.max.maxtimers, _i.i2c_slave_callback_if.stop_bit.maxtimers.group, 0
	.weak _i.i2c_slave_callback_if.stop_bit.nstackwords.group
	.globl _i.i2c_slave_callback_if.stop_bit.nstackwords.group
	.weak _i.i2c_slave_callback_if.stop_bit.fns.group
	.globl _i.i2c_slave_callback_if.stop_bit.fns.group
	.max_reduce _i.i2c_slave_callback_if.stop_bit.max.nstackwords, _i.i2c_slave_callback_if.stop_bit.nstackwords.group, 0
	.max_reduce _i.i2c_slave_callback_if.stop_bit.fns, _i.i2c_slave_callback_if.stop_bit.fns.group, 0
	.weak _i.i2c_slave_callback_if.__interface_init.maxchanends.group
	.max_reduce _i.i2c_slave_callback_if.__interface_init.max.maxchanends, _i.i2c_slave_callback_if.__interface_init.maxchanends.group, 0
	.weak _i.i2c_slave_callback_if.__interface_init.maxcores.group
	.max_reduce _i.i2c_slave_callback_if.__interface_init.max.maxcores, _i.i2c_slave_callback_if.__interface_init.maxcores.group, 0
	.weak _i.i2c_slave_callback_if.__interface_init.maxtimers.group
	.max_reduce _i.i2c_slave_callback_if.__interface_init.max.maxtimers, _i.i2c_slave_callback_if.__interface_init.maxtimers.group, 0
	.weak _i.i2c_slave_callback_if.__interface_init.nstackwords.group
	.globl _i.i2c_slave_callback_if.__interface_init.nstackwords.group
	.weak _i.i2c_slave_callback_if.__interface_init.fns.group
	.globl _i.i2c_slave_callback_if.__interface_init.fns.group
	.max_reduce _i.i2c_slave_callback_if.__interface_init.max.nstackwords, _i.i2c_slave_callback_if.__interface_init.nstackwords.group, 0
	.max_reduce _i.i2c_slave_callback_if.__interface_init.fns, _i.i2c_slave_callback_if.__interface_init.fns.group, 0
	.weak _i.i2c_slave_callback_if._client_call_y.maxchanends.group
	.add_to_set _i.i2c_slave_callback_if._client_call_y.maxchanends.group, (__interface_client_call_y_other.maxchanends + __interface_client_call_y_extra.maxchanends), __interface_client_call_y_other
	.max_reduce _i.i2c_slave_callback_if._client_call_y.max.maxchanends, _i.i2c_slave_callback_if._client_call_y.maxchanends.group, 0
	.weak _i.i2c_slave_callback_if._client_call_y.maxcores.group
	.add_to_set _i.i2c_slave_callback_if._client_call_y.maxcores.group, (__interface_client_call_y_other.maxcores + __interface_client_call_y_extra.maxcores), __interface_client_call_y_other
	.max_reduce _i.i2c_slave_callback_if._client_call_y.max.maxcores, _i.i2c_slave_callback_if._client_call_y.maxcores.group, 0
	.weak _i.i2c_slave_callback_if._client_call_y.maxtimers.group
	.add_to_set _i.i2c_slave_callback_if._client_call_y.maxtimers.group, (__interface_client_call_y_other.maxtimers + __interface_client_call_y_extra.maxtimers), __interface_client_call_y_other
	.max_reduce _i.i2c_slave_callback_if._client_call_y.max.maxtimers, _i.i2c_slave_callback_if._client_call_y.maxtimers.group, 0
	.weak _i.i2c_slave_callback_if._client_call_y.nstackwords.group
	.globl _i.i2c_slave_callback_if._client_call_y.nstackwords.group
	.weak _i.i2c_slave_callback_if._client_call_y.fns.group
	.globl _i.i2c_slave_callback_if._client_call_y.fns.group
	.add_to_set _i.i2c_slave_callback_if._client_call_y.nstackwords.group, (__interface_client_call_y_other.nstackwords + __interface_client_call_y_extra.nstackwords), __interface_client_call_y_other
	.add_to_set _i.i2c_slave_callback_if._client_call_y.fns.group, __interface_client_call_y_other, __interface_client_call_y_other
	.max_reduce _i.i2c_slave_callback_if._client_call_y.max.nstackwords, _i.i2c_slave_callback_if._client_call_y.nstackwords.group, 0
	.max_reduce _i.i2c_slave_callback_if._client_call_y.fns, _i.i2c_slave_callback_if._client_call_y.fns.group, 0
	.weak _i.i2c_master_async_if.write.maxchanends.group
	.max_reduce _i.i2c_master_async_if.write.max.maxchanends, _i.i2c_master_async_if.write.maxchanends.group, 0
	.weak _i.i2c_master_async_if.write.maxcores.group
	.max_reduce _i.i2c_master_async_if.write.max.maxcores, _i.i2c_master_async_if.write.maxcores.group, 0
	.weak _i.i2c_master_async_if.write.maxtimers.group
	.max_reduce _i.i2c_master_async_if.write.max.maxtimers, _i.i2c_master_async_if.write.maxtimers.group, 0
	.weak _i.i2c_master_async_if.write.nstackwords.group
	.globl _i.i2c_master_async_if.write.nstackwords.group
	.weak _i.i2c_master_async_if.write.fns.group
	.globl _i.i2c_master_async_if.write.fns.group
	.max_reduce _i.i2c_master_async_if.write.max.nstackwords, _i.i2c_master_async_if.write.nstackwords.group, 0
	.max_reduce _i.i2c_master_async_if.write.fns, _i.i2c_master_async_if.write.fns.group, 0
	.weak _i.i2c_master_async_if.read.maxchanends.group
	.max_reduce _i.i2c_master_async_if.read.max.maxchanends, _i.i2c_master_async_if.read.maxchanends.group, 0
	.weak _i.i2c_master_async_if.read.maxcores.group
	.max_reduce _i.i2c_master_async_if.read.max.maxcores, _i.i2c_master_async_if.read.maxcores.group, 0
	.weak _i.i2c_master_async_if.read.maxtimers.group
	.max_reduce _i.i2c_master_async_if.read.max.maxtimers, _i.i2c_master_async_if.read.maxtimers.group, 0
	.weak _i.i2c_master_async_if.read.nstackwords.group
	.globl _i.i2c_master_async_if.read.nstackwords.group
	.weak _i.i2c_master_async_if.read.fns.group
	.globl _i.i2c_master_async_if.read.fns.group
	.max_reduce _i.i2c_master_async_if.read.max.nstackwords, _i.i2c_master_async_if.read.nstackwords.group, 0
	.max_reduce _i.i2c_master_async_if.read.fns, _i.i2c_master_async_if.read.fns.group, 0
	.weak _i.i2c_master_async_if.get_write_result.maxchanends.group
	.max_reduce _i.i2c_master_async_if.get_write_result.max.maxchanends, _i.i2c_master_async_if.get_write_result.maxchanends.group, 0
	.weak _i.i2c_master_async_if.get_write_result.maxcores.group
	.max_reduce _i.i2c_master_async_if.get_write_result.max.maxcores, _i.i2c_master_async_if.get_write_result.maxcores.group, 0
	.weak _i.i2c_master_async_if.get_write_result.maxtimers.group
	.max_reduce _i.i2c_master_async_if.get_write_result.max.maxtimers, _i.i2c_master_async_if.get_write_result.maxtimers.group, 0
	.weak _i.i2c_master_async_if.get_write_result.nstackwords.group
	.globl _i.i2c_master_async_if.get_write_result.nstackwords.group
	.weak _i.i2c_master_async_if.get_write_result.fns.group
	.globl _i.i2c_master_async_if.get_write_result.fns.group
	.max_reduce _i.i2c_master_async_if.get_write_result.max.nstackwords, _i.i2c_master_async_if.get_write_result.nstackwords.group, 0
	.max_reduce _i.i2c_master_async_if.get_write_result.fns, _i.i2c_master_async_if.get_write_result.fns.group, 0
	.weak _i.i2c_master_async_if.get_read_data.maxchanends.group
	.max_reduce _i.i2c_master_async_if.get_read_data.max.maxchanends, _i.i2c_master_async_if.get_read_data.maxchanends.group, 0
	.weak _i.i2c_master_async_if.get_read_data.maxcores.group
	.max_reduce _i.i2c_master_async_if.get_read_data.max.maxcores, _i.i2c_master_async_if.get_read_data.maxcores.group, 0
	.weak _i.i2c_master_async_if.get_read_data.maxtimers.group
	.max_reduce _i.i2c_master_async_if.get_read_data.max.maxtimers, _i.i2c_master_async_if.get_read_data.maxtimers.group, 0
	.weak _i.i2c_master_async_if.get_read_data.nstackwords.group
	.globl _i.i2c_master_async_if.get_read_data.nstackwords.group
	.weak _i.i2c_master_async_if.get_read_data.fns.group
	.globl _i.i2c_master_async_if.get_read_data.fns.group
	.max_reduce _i.i2c_master_async_if.get_read_data.max.nstackwords, _i.i2c_master_async_if.get_read_data.nstackwords.group, 0
	.max_reduce _i.i2c_master_async_if.get_read_data.fns, _i.i2c_master_async_if.get_read_data.fns.group, 0
	.weak _i.i2c_master_async_if.send_stop_bit.maxchanends.group
	.max_reduce _i.i2c_master_async_if.send_stop_bit.max.maxchanends, _i.i2c_master_async_if.send_stop_bit.maxchanends.group, 0
	.weak _i.i2c_master_async_if.send_stop_bit.maxcores.group
	.max_reduce _i.i2c_master_async_if.send_stop_bit.max.maxcores, _i.i2c_master_async_if.send_stop_bit.maxcores.group, 0
	.weak _i.i2c_master_async_if.send_stop_bit.maxtimers.group
	.max_reduce _i.i2c_master_async_if.send_stop_bit.max.maxtimers, _i.i2c_master_async_if.send_stop_bit.maxtimers.group, 0
	.weak _i.i2c_master_async_if.send_stop_bit.nstackwords.group
	.globl _i.i2c_master_async_if.send_stop_bit.nstackwords.group
	.weak _i.i2c_master_async_if.send_stop_bit.fns.group
	.globl _i.i2c_master_async_if.send_stop_bit.fns.group
	.max_reduce _i.i2c_master_async_if.send_stop_bit.max.nstackwords, _i.i2c_master_async_if.send_stop_bit.nstackwords.group, 0
	.max_reduce _i.i2c_master_async_if.send_stop_bit.fns, _i.i2c_master_async_if.send_stop_bit.fns.group, 0
	.weak _i.i2c_master_async_if.shutdown.maxchanends.group
	.max_reduce _i.i2c_master_async_if.shutdown.max.maxchanends, _i.i2c_master_async_if.shutdown.maxchanends.group, 0
	.weak _i.i2c_master_async_if.shutdown.maxcores.group
	.max_reduce _i.i2c_master_async_if.shutdown.max.maxcores, _i.i2c_master_async_if.shutdown.maxcores.group, 0
	.weak _i.i2c_master_async_if.shutdown.maxtimers.group
	.max_reduce _i.i2c_master_async_if.shutdown.max.maxtimers, _i.i2c_master_async_if.shutdown.maxtimers.group, 0
	.weak _i.i2c_master_async_if.shutdown.nstackwords.group
	.globl _i.i2c_master_async_if.shutdown.nstackwords.group
	.weak _i.i2c_master_async_if.shutdown.fns.group
	.globl _i.i2c_master_async_if.shutdown.fns.group
	.max_reduce _i.i2c_master_async_if.shutdown.max.nstackwords, _i.i2c_master_async_if.shutdown.nstackwords.group, 0
	.max_reduce _i.i2c_master_async_if.shutdown.fns, _i.i2c_master_async_if.shutdown.fns.group, 0
	.weak _i.i2c_master_async_if.__interface_init.maxchanends.group
	.max_reduce _i.i2c_master_async_if.__interface_init.max.maxchanends, _i.i2c_master_async_if.__interface_init.maxchanends.group, 0
	.weak _i.i2c_master_async_if.__interface_init.maxcores.group
	.max_reduce _i.i2c_master_async_if.__interface_init.max.maxcores, _i.i2c_master_async_if.__interface_init.maxcores.group, 0
	.weak _i.i2c_master_async_if.__interface_init.maxtimers.group
	.max_reduce _i.i2c_master_async_if.__interface_init.max.maxtimers, _i.i2c_master_async_if.__interface_init.maxtimers.group, 0
	.weak _i.i2c_master_async_if.__interface_init.nstackwords.group
	.globl _i.i2c_master_async_if.__interface_init.nstackwords.group
	.weak _i.i2c_master_async_if.__interface_init.fns.group
	.globl _i.i2c_master_async_if.__interface_init.fns.group
	.max_reduce _i.i2c_master_async_if.__interface_init.max.nstackwords, _i.i2c_master_async_if.__interface_init.nstackwords.group, 0
	.max_reduce _i.i2c_master_async_if.__interface_init.fns, _i.i2c_master_async_if.__interface_init.fns.group, 0
	.weak _i.i2c_master_async_if._client_call_y.maxchanends.group
	.add_to_set _i.i2c_master_async_if._client_call_y.maxchanends.group, (__interface_client_call_y_other.maxchanends + __interface_client_call_y_extra.maxchanends), __interface_client_call_y_other
	.max_reduce _i.i2c_master_async_if._client_call_y.max.maxchanends, _i.i2c_master_async_if._client_call_y.maxchanends.group, 0
	.weak _i.i2c_master_async_if._client_call_y.maxcores.group
	.add_to_set _i.i2c_master_async_if._client_call_y.maxcores.group, (__interface_client_call_y_other.maxcores + __interface_client_call_y_extra.maxcores), __interface_client_call_y_other
	.max_reduce _i.i2c_master_async_if._client_call_y.max.maxcores, _i.i2c_master_async_if._client_call_y.maxcores.group, 0
	.weak _i.i2c_master_async_if._client_call_y.maxtimers.group
	.add_to_set _i.i2c_master_async_if._client_call_y.maxtimers.group, (__interface_client_call_y_other.maxtimers + __interface_client_call_y_extra.maxtimers), __interface_client_call_y_other
	.max_reduce _i.i2c_master_async_if._client_call_y.max.maxtimers, _i.i2c_master_async_if._client_call_y.maxtimers.group, 0
	.weak _i.i2c_master_async_if._client_call_y.nstackwords.group
	.globl _i.i2c_master_async_if._client_call_y.nstackwords.group
	.weak _i.i2c_master_async_if._client_call_y.fns.group
	.globl _i.i2c_master_async_if._client_call_y.fns.group
	.add_to_set _i.i2c_master_async_if._client_call_y.nstackwords.group, (__interface_client_call_y_other.nstackwords + __interface_client_call_y_extra.nstackwords), __interface_client_call_y_other
	.add_to_set _i.i2c_master_async_if._client_call_y.fns.group, __interface_client_call_y_other, __interface_client_call_y_other
	.max_reduce _i.i2c_master_async_if._client_call_y.max.nstackwords, _i.i2c_master_async_if._client_call_y.nstackwords.group, 0
	.max_reduce _i.i2c_master_async_if._client_call_y.fns, _i.i2c_master_async_if._client_call_y.fns.group, 0
	.weak _i.i2c_master_if.write.maxchanends.group
	.max_reduce _i.i2c_master_if.write.max.maxchanends, _i.i2c_master_if.write.maxchanends.group, 0
	.weak _i.i2c_master_if.write.maxcores.group
	.max_reduce _i.i2c_master_if.write.max.maxcores, _i.i2c_master_if.write.maxcores.group, 0
	.weak _i.i2c_master_if.write.maxtimers.group
	.max_reduce _i.i2c_master_if.write.max.maxtimers, _i.i2c_master_if.write.maxtimers.group, 0
	.weak _i.i2c_master_if.write.nstackwords.group
	.globl _i.i2c_master_if.write.nstackwords.group
	.weak _i.i2c_master_if.write.fns.group
	.globl _i.i2c_master_if.write.fns.group
	.max_reduce _i.i2c_master_if.write.max.nstackwords, _i.i2c_master_if.write.nstackwords.group, 0
	.max_reduce _i.i2c_master_if.write.fns, _i.i2c_master_if.write.fns.group, 0
	.weak _i.i2c_master_if.read.maxchanends.group
	.max_reduce _i.i2c_master_if.read.max.maxchanends, _i.i2c_master_if.read.maxchanends.group, 0
	.weak _i.i2c_master_if.read.maxcores.group
	.max_reduce _i.i2c_master_if.read.max.maxcores, _i.i2c_master_if.read.maxcores.group, 0
	.weak _i.i2c_master_if.read.maxtimers.group
	.max_reduce _i.i2c_master_if.read.max.maxtimers, _i.i2c_master_if.read.maxtimers.group, 0
	.weak _i.i2c_master_if.read.nstackwords.group
	.globl _i.i2c_master_if.read.nstackwords.group
	.weak _i.i2c_master_if.read.fns.group
	.globl _i.i2c_master_if.read.fns.group
	.max_reduce _i.i2c_master_if.read.max.nstackwords, _i.i2c_master_if.read.nstackwords.group, 0
	.max_reduce _i.i2c_master_if.read.fns, _i.i2c_master_if.read.fns.group, 0
	.weak _i.i2c_master_if.send_stop_bit.maxchanends.group
	.max_reduce _i.i2c_master_if.send_stop_bit.max.maxchanends, _i.i2c_master_if.send_stop_bit.maxchanends.group, 0
	.weak _i.i2c_master_if.send_stop_bit.maxcores.group
	.max_reduce _i.i2c_master_if.send_stop_bit.max.maxcores, _i.i2c_master_if.send_stop_bit.maxcores.group, 0
	.weak _i.i2c_master_if.send_stop_bit.maxtimers.group
	.max_reduce _i.i2c_master_if.send_stop_bit.max.maxtimers, _i.i2c_master_if.send_stop_bit.maxtimers.group, 0
	.weak _i.i2c_master_if.send_stop_bit.nstackwords.group
	.globl _i.i2c_master_if.send_stop_bit.nstackwords.group
	.weak _i.i2c_master_if.send_stop_bit.fns.group
	.globl _i.i2c_master_if.send_stop_bit.fns.group
	.max_reduce _i.i2c_master_if.send_stop_bit.max.nstackwords, _i.i2c_master_if.send_stop_bit.nstackwords.group, 0
	.max_reduce _i.i2c_master_if.send_stop_bit.fns, _i.i2c_master_if.send_stop_bit.fns.group, 0
	.weak _i.i2c_master_if.shutdown.maxchanends.group
	.max_reduce _i.i2c_master_if.shutdown.max.maxchanends, _i.i2c_master_if.shutdown.maxchanends.group, 0
	.weak _i.i2c_master_if.shutdown.maxcores.group
	.max_reduce _i.i2c_master_if.shutdown.max.maxcores, _i.i2c_master_if.shutdown.maxcores.group, 0
	.weak _i.i2c_master_if.shutdown.maxtimers.group
	.max_reduce _i.i2c_master_if.shutdown.max.maxtimers, _i.i2c_master_if.shutdown.maxtimers.group, 0
	.weak _i.i2c_master_if.shutdown.nstackwords.group
	.globl _i.i2c_master_if.shutdown.nstackwords.group
	.weak _i.i2c_master_if.shutdown.fns.group
	.globl _i.i2c_master_if.shutdown.fns.group
	.max_reduce _i.i2c_master_if.shutdown.max.nstackwords, _i.i2c_master_if.shutdown.nstackwords.group, 0
	.max_reduce _i.i2c_master_if.shutdown.fns, _i.i2c_master_if.shutdown.fns.group, 0
	.weak _i.i2c_master_if.__interface_init.maxchanends.group
	.max_reduce _i.i2c_master_if.__interface_init.max.maxchanends, _i.i2c_master_if.__interface_init.maxchanends.group, 0
	.weak _i.i2c_master_if.__interface_init.maxcores.group
	.max_reduce _i.i2c_master_if.__interface_init.max.maxcores, _i.i2c_master_if.__interface_init.maxcores.group, 0
	.weak _i.i2c_master_if.__interface_init.maxtimers.group
	.max_reduce _i.i2c_master_if.__interface_init.max.maxtimers, _i.i2c_master_if.__interface_init.maxtimers.group, 0
	.weak _i.i2c_master_if.__interface_init.nstackwords.group
	.globl _i.i2c_master_if.__interface_init.nstackwords.group
	.weak _i.i2c_master_if.__interface_init.fns.group
	.globl _i.i2c_master_if.__interface_init.fns.group
	.max_reduce _i.i2c_master_if.__interface_init.max.nstackwords, _i.i2c_master_if.__interface_init.nstackwords.group, 0
	.max_reduce _i.i2c_master_if.__interface_init.fns, _i.i2c_master_if.__interface_init.fns.group, 0
	.weak _i.i2c_master_if._client_call_y.maxchanends.group
	.add_to_set _i.i2c_master_if._client_call_y.maxchanends.group, (__interface_client_call_y_other.maxchanends + __interface_client_call_y_extra.maxchanends), __interface_client_call_y_other
	.max_reduce _i.i2c_master_if._client_call_y.max.maxchanends, _i.i2c_master_if._client_call_y.maxchanends.group, 0
	.weak _i.i2c_master_if._client_call_y.maxcores.group
	.add_to_set _i.i2c_master_if._client_call_y.maxcores.group, (__interface_client_call_y_other.maxcores + __interface_client_call_y_extra.maxcores), __interface_client_call_y_other
	.max_reduce _i.i2c_master_if._client_call_y.max.maxcores, _i.i2c_master_if._client_call_y.maxcores.group, 0
	.weak _i.i2c_master_if._client_call_y.maxtimers.group
	.add_to_set _i.i2c_master_if._client_call_y.maxtimers.group, (__interface_client_call_y_other.maxtimers + __interface_client_call_y_extra.maxtimers), __interface_client_call_y_other
	.max_reduce _i.i2c_master_if._client_call_y.max.maxtimers, _i.i2c_master_if._client_call_y.maxtimers.group, 0
	.weak _i.i2c_master_if._client_call_y.nstackwords.group
	.globl _i.i2c_master_if._client_call_y.nstackwords.group
	.weak _i.i2c_master_if._client_call_y.fns.group
	.globl _i.i2c_master_if._client_call_y.fns.group
	.add_to_set _i.i2c_master_if._client_call_y.nstackwords.group, (__interface_client_call_y_other.nstackwords + __interface_client_call_y_extra.nstackwords), __interface_client_call_y_other
	.add_to_set _i.i2c_master_if._client_call_y.fns.group, __interface_client_call_y_other, __interface_client_call_y_other
	.max_reduce _i.i2c_master_if._client_call_y.max.nstackwords, _i.i2c_master_if._client_call_y.nstackwords.group, 0
	.max_reduce _i.i2c_master_if._client_call_y.fns, _i.i2c_master_if._client_call_y.fns.group, 0
	.set __i_i2c_master_if_read_reg.locnoside, 0
	.set __i_i2c_master_if_write_reg.locnoside, 0
	.set __i_i2c_master_if_read_reg8_addr16.locnoside, 0
	.set __i_i2c_master_if_write_reg8_addr16.locnoside, 0
	.set __i_i2c_master_if_read_reg16.locnoside, 0
	.set __i_i2c_master_if_write_reg16.locnoside, 0
	.set __i_i2c_master_if_read_reg16_addr8.locnoside, 0
	.set __i_i2c_master_if_write_reg16_addr8.locnoside, 0
	.set __i_i2c_master_if_read_reg.locnointerfaceaccess, 0
	.set __i_i2c_master_if_write_reg.locnointerfaceaccess, 0
	.set __i_i2c_master_if_read_reg8_addr16.locnointerfaceaccess, 0
	.set __i_i2c_master_if_write_reg8_addr16.locnointerfaceaccess, 0
	.set __i_i2c_master_if_read_reg16.locnointerfaceaccess, 0
	.set __i_i2c_master_if_write_reg16.locnointerfaceaccess, 0
	.set __i_i2c_master_if_read_reg16_addr8.locnointerfaceaccess, 0
	.set __i_i2c_master_if_write_reg16_addr8.locnointerfaceaccess, 0

                                        # End of file scope inline assembly
	.text
	.weak	_i.i2c_master_if._chan.shutdown
	.align	4
	.type	_i.i2c_master_if._chan.shutdown,@function
	.cc_top _i.i2c_master_if._chan.shutdown.function,_i.i2c_master_if._chan.shutdown
_i.i2c_master_if._chan.shutdown:        # @_i.i2c_master_if._chan.shutdown
	.cfi_startproc
	.issue_mode single
# BB#0:                                 # %allocas
	ENTSP_lu6 4
.Ltmp0:
	.cfi_def_cfa_offset 16
.Ltmp1:
	.cfi_offset 15, 0
	stw r4, sp[2]                   # 4-byte Folded Spill
.Ltmp2:
	.cfi_offset 4, -8
	#DEBUG_VALUE: _i.i2c_master_if._chan.shutdown:dest <- R0
	getr r4, 2
	setd res[r4], r0
	add r0, r4, 3
	out res[r4], r0
	outct res[r4], 2
	ldc r1, 0
	mov r0, r4
	bl __interface_wait_and_yield
	in r0, res[r4]
	chkct res[r4], 1
	freer res[r4]
	ldw r4, sp[2]                   # 4-byte Folded Reload
	retsp 4
	# RETURN_REG_HOLDER
	.cc_bottom _i.i2c_master_if._chan.shutdown.function
	.set	_i.i2c_master_if._chan.shutdown.nstackwords,((_i.i2c_master_if._client_call_y.max.nstackwords $M ($D __interface_wait_and_yield.nstackwords ? __interface_wait_and_yield.nstackwords $: _i.i2c_master_if._client_call_y.max.nstackwords)) + 4)
	.globl	_i.i2c_master_if._chan.shutdown.nstackwords
	.weak	_i.i2c_master_if._chan.shutdown.nstackwords
	.set	_i.i2c_master_if._chan.shutdown.maxcores,($D __interface_wait_and_yield.maxcores ? __interface_wait_and_yield.maxcores $: _i.i2c_master_if._client_call_y.max.maxcores) $M 1
	.globl	_i.i2c_master_if._chan.shutdown.maxcores
	.weak	_i.i2c_master_if._chan.shutdown.maxcores
	.set	_i.i2c_master_if._chan.shutdown.maxtimers,($D __interface_wait_and_yield.maxtimers ? __interface_wait_and_yield.maxtimers $: _i.i2c_master_if._client_call_y.max.maxtimers) $M 0
	.globl	_i.i2c_master_if._chan.shutdown.maxtimers
	.weak	_i.i2c_master_if._chan.shutdown.maxtimers
	.set	_i.i2c_master_if._chan.shutdown.maxchanends,(1 + ($D __interface_wait_and_yield.maxchanends ? __interface_wait_and_yield.maxchanends $: _i.i2c_master_if._client_call_y.max.maxchanends)) $M 1
	.globl	_i.i2c_master_if._chan.shutdown.maxchanends
	.weak	_i.i2c_master_if._chan.shutdown.maxchanends
.Ltmp3:
	.size	_i.i2c_master_if._chan.shutdown, .Ltmp3-_i.i2c_master_if._chan.shutdown
	.cfi_endproc

	.weak	_i.i2c_master_if._chan.send_stop_bit
	.align	4
	.type	_i.i2c_master_if._chan.send_stop_bit,@function
	.cc_top _i.i2c_master_if._chan.send_stop_bit.function,_i.i2c_master_if._chan.send_stop_bit
_i.i2c_master_if._chan.send_stop_bit:   # @_i.i2c_master_if._chan.send_stop_bit
	.cfi_startproc
	.issue_mode single
# BB#0:                                 # %allocas
	ENTSP_lu6 4
.Ltmp4:
	.cfi_def_cfa_offset 16
.Ltmp5:
	.cfi_offset 15, 0
	stw r4, sp[2]                   # 4-byte Folded Spill
.Ltmp6:
	.cfi_offset 4, -8
	#DEBUG_VALUE: _i.i2c_master_if._chan.send_stop_bit:dest <- R0
	getr r4, 2
	setd res[r4], r0
	add r0, r4, 2
	out res[r4], r0
	outct res[r4], 2
	ldc r1, 0
	mov r0, r4
	bl __interface_wait_and_yield
	in r0, res[r4]
	chkct res[r4], 1
	freer res[r4]
	ldw r4, sp[2]                   # 4-byte Folded Reload
	retsp 4
	# RETURN_REG_HOLDER
	.cc_bottom _i.i2c_master_if._chan.send_stop_bit.function
	.set	_i.i2c_master_if._chan.send_stop_bit.nstackwords,((_i.i2c_master_if._client_call_y.max.nstackwords $M ($D __interface_wait_and_yield.nstackwords ? __interface_wait_and_yield.nstackwords $: _i.i2c_master_if._client_call_y.max.nstackwords)) + 4)
	.globl	_i.i2c_master_if._chan.send_stop_bit.nstackwords
	.weak	_i.i2c_master_if._chan.send_stop_bit.nstackwords
	.set	_i.i2c_master_if._chan.send_stop_bit.maxcores,($D __interface_wait_and_yield.maxcores ? __interface_wait_and_yield.maxcores $: _i.i2c_master_if._client_call_y.max.maxcores) $M 1
	.globl	_i.i2c_master_if._chan.send_stop_bit.maxcores
	.weak	_i.i2c_master_if._chan.send_stop_bit.maxcores
	.set	_i.i2c_master_if._chan.send_stop_bit.maxtimers,($D __interface_wait_and_yield.maxtimers ? __interface_wait_and_yield.maxtimers $: _i.i2c_master_if._client_call_y.max.maxtimers) $M 0
	.globl	_i.i2c_master_if._chan.send_stop_bit.maxtimers
	.weak	_i.i2c_master_if._chan.send_stop_bit.maxtimers
	.set	_i.i2c_master_if._chan.send_stop_bit.maxchanends,(1 + ($D __interface_wait_and_yield.maxchanends ? __interface_wait_and_yield.maxchanends $: _i.i2c_master_if._client_call_y.max.maxchanends)) $M 1
	.globl	_i.i2c_master_if._chan.send_stop_bit.maxchanends
	.weak	_i.i2c_master_if._chan.send_stop_bit.maxchanends
.Ltmp7:
	.size	_i.i2c_master_if._chan.send_stop_bit, .Ltmp7-_i.i2c_master_if._chan.send_stop_bit
	.cfi_endproc

	.weak	_i.i2c_master_if._chan.read
	.align	4
	.type	_i.i2c_master_if._chan.read,@function
	.cc_top _i.i2c_master_if._chan.read.function,_i.i2c_master_if._chan.read
_i.i2c_master_if._chan.read:            # @_i.i2c_master_if._chan.read
	.cfi_startproc
	.issue_mode single
# BB#0:                                 # %allocas
	ENTSP_lu6 8
.Ltmp8:
	.cfi_def_cfa_offset 32
.Ltmp9:
	.cfi_offset 15, 0
	std r5, r4, sp[1]               # 4-byte Folded Spill
.Ltmp10:
	.cfi_offset 4, -24
.Ltmp11:
	.cfi_offset 5, -20
	std r7, r6, sp[2]               # 4-byte Folded Spill
.Ltmp12:
	.cfi_offset 6, -16
.Ltmp13:
	.cfi_offset 7, -12
	stw r8, sp[6]                   # 4-byte Folded Spill
.Ltmp14:
	.cfi_offset 8, -8
	#DEBUG_VALUE: _i.i2c_master_if._chan.read:dest <- R0
	#DEBUG_VALUE: _i.i2c_master_if._chan.read:param1 <- R1
	#DEBUG_VALUE: _i.i2c_master_if._chan.read:param2 <- R2
	#DEBUG_VALUE: _i.i2c_master_if._chan.read:param3 <- R3
	#DEBUG_VALUE: _i.i2c_master_if._chan.read:param4 <- [SP+36]
	mov r5, r3
	#DEBUG_VALUE: _i.i2c_master_if._chan.read:param3 <- R5
	mov r6, r2
	#DEBUG_VALUE: _i.i2c_master_if._chan.read:param2 <- R6
	mov r7, r1
	#DEBUG_VALUE: _i.i2c_master_if._chan.read:param1 <- R7
	ldw r8, sp[9]
	getr r4, 2
	setd res[r4], r0
	add r0, r4, 1
	out res[r4], r0
	outct res[r4], 2
	ldc r1, 0
	mov r0, r4
	bl __interface_wait_and_yield
	chkct res[r4], 1
	outt res[r4], r7
	stw r6, sp[1]
	out res[r4], r5
	out res[r4], r8
	outct res[r4], 2
	ldaw r1, sp[1]
	mov r0, r4
	bl __interface_client_call
	in r0, res[r4]
	chkct res[r4], 1
	freer res[r4]
	ldw r8, sp[6]                   # 4-byte Folded Reload
	ldd r7, r6, sp[2]               # 4-byte Folded Reload
	ldd r5, r4, sp[1]               # 4-byte Folded Reload
	retsp 8
	# RETURN_REG_HOLDER
	.cc_bottom _i.i2c_master_if._chan.read.function
	.set	_i.i2c_master_if._chan.read.nstackwords,((_i.i2c_master_if._client_call_y.max.nstackwords $M ($D __interface_wait_and_yield.nstackwords ? __interface_wait_and_yield.nstackwords $: _i.i2c_master_if._client_call_y.max.nstackwords) $M __interface_client_call.nstackwords) + 8)
	.globl	_i.i2c_master_if._chan.read.nstackwords
	.weak	_i.i2c_master_if._chan.read.nstackwords
	.set	_i.i2c_master_if._chan.read.maxcores,__interface_client_call.maxcores $M ($D __interface_wait_and_yield.maxcores ? __interface_wait_and_yield.maxcores $: _i.i2c_master_if._client_call_y.max.maxcores) $M 1
	.globl	_i.i2c_master_if._chan.read.maxcores
	.weak	_i.i2c_master_if._chan.read.maxcores
	.set	_i.i2c_master_if._chan.read.maxtimers,__interface_client_call.maxtimers $M ($D __interface_wait_and_yield.maxtimers ? __interface_wait_and_yield.maxtimers $: _i.i2c_master_if._client_call_y.max.maxtimers) $M 0
	.globl	_i.i2c_master_if._chan.read.maxtimers
	.weak	_i.i2c_master_if._chan.read.maxtimers
	.set	_i.i2c_master_if._chan.read.maxchanends,(1 + __interface_client_call.maxchanends) $M (1 + ($D __interface_wait_and_yield.maxchanends ? __interface_wait_and_yield.maxchanends $: _i.i2c_master_if._client_call_y.max.maxchanends)) $M 1
	.globl	_i.i2c_master_if._chan.read.maxchanends
	.weak	_i.i2c_master_if._chan.read.maxchanends
.Ltmp15:
	.size	_i.i2c_master_if._chan.read, .Ltmp15-_i.i2c_master_if._chan.read
	.cfi_endproc

	.weak	_i.i2c_master_if._chan.write
	.align	4
	.type	_i.i2c_master_if._chan.write,@function
	.cc_top _i.i2c_master_if._chan.write.function,_i.i2c_master_if._chan.write
_i.i2c_master_if._chan.write:           # @_i.i2c_master_if._chan.write
	.cfi_startproc
	.issue_mode single
# BB#0:                                 # %allocas
	ENTSP_lu6 8
.Ltmp16:
	.cfi_def_cfa_offset 32
.Ltmp17:
	.cfi_offset 15, 0
	std r5, r4, sp[1]               # 4-byte Folded Spill
.Ltmp18:
	.cfi_offset 4, -24
.Ltmp19:
	.cfi_offset 5, -20
	std r7, r6, sp[2]               # 4-byte Folded Spill
.Ltmp20:
	.cfi_offset 6, -16
.Ltmp21:
	.cfi_offset 7, -12
	std r9, r8, sp[3]               # 4-byte Folded Spill
.Ltmp22:
	.cfi_offset 8, -8
.Ltmp23:
	.cfi_offset 9, -4
	#DEBUG_VALUE: _i.i2c_master_if._chan.write:dest <- R0
	#DEBUG_VALUE: _i.i2c_master_if._chan.write:param1 <- R1
	#DEBUG_VALUE: _i.i2c_master_if._chan.write:param2 <- R2
	#DEBUG_VALUE: _i.i2c_master_if._chan.write:param3 <- R3
	#DEBUG_VALUE: _i.i2c_master_if._chan.write:param4 <- [SP+36]
	#DEBUG_VALUE: _i.i2c_master_if._chan.write:param5 <- [SP+40]
	mov r5, r3
	#DEBUG_VALUE: _i.i2c_master_if._chan.write:param3 <- R5
	mov r6, r2
	#DEBUG_VALUE: _i.i2c_master_if._chan.write:param2 <- R6
	mov r7, r1
	#DEBUG_VALUE: _i.i2c_master_if._chan.write:param1 <- R7
	ldw r9, sp[10]
	ldw r8, sp[9]
	getr r4, 2
	setd res[r4], r0
	out res[r4], r4
	outct res[r4], 2
	ldc r1, 0
	mov r0, r4
	bl __interface_wait_and_yield
	chkct res[r4], 1
	outt res[r4], r7
	stw r6, sp[1]
	out res[r4], r5
	ldw r0, r8[0]
	out res[r4], r0
	out res[r4], r9
	outct res[r4], 2
	ldaw r1, sp[1]
	mov r0, r4
	bl __interface_client_call
	in r0, res[r4]
	stw r0, r8[0]
	in r0, res[r4]
	chkct res[r4], 1
	freer res[r4]
	ldd r9, r8, sp[3]               # 4-byte Folded Reload
	ldd r7, r6, sp[2]               # 4-byte Folded Reload
	ldd r5, r4, sp[1]               # 4-byte Folded Reload
	retsp 8
	# RETURN_REG_HOLDER
	.cc_bottom _i.i2c_master_if._chan.write.function
	.set	_i.i2c_master_if._chan.write.nstackwords,((_i.i2c_master_if._client_call_y.max.nstackwords $M ($D __interface_wait_and_yield.nstackwords ? __interface_wait_and_yield.nstackwords $: _i.i2c_master_if._client_call_y.max.nstackwords) $M __interface_client_call.nstackwords) + 8)
	.globl	_i.i2c_master_if._chan.write.nstackwords
	.weak	_i.i2c_master_if._chan.write.nstackwords
	.set	_i.i2c_master_if._chan.write.maxcores,__interface_client_call.maxcores $M ($D __interface_wait_and_yield.maxcores ? __interface_wait_and_yield.maxcores $: _i.i2c_master_if._client_call_y.max.maxcores) $M 1
	.globl	_i.i2c_master_if._chan.write.maxcores
	.weak	_i.i2c_master_if._chan.write.maxcores
	.set	_i.i2c_master_if._chan.write.maxtimers,__interface_client_call.maxtimers $M ($D __interface_wait_and_yield.maxtimers ? __interface_wait_and_yield.maxtimers $: _i.i2c_master_if._client_call_y.max.maxtimers) $M 0
	.globl	_i.i2c_master_if._chan.write.maxtimers
	.weak	_i.i2c_master_if._chan.write.maxtimers
	.set	_i.i2c_master_if._chan.write.maxchanends,(1 + __interface_client_call.maxchanends) $M (1 + ($D __interface_wait_and_yield.maxchanends ? __interface_wait_and_yield.maxchanends $: _i.i2c_master_if._client_call_y.max.maxchanends)) $M 1
	.globl	_i.i2c_master_if._chan.write.maxchanends
	.weak	_i.i2c_master_if._chan.write.maxchanends
.Ltmp24:
	.size	_i.i2c_master_if._chan.write, .Ltmp24-_i.i2c_master_if._chan.write
	.cfi_endproc

	.weak	_i.i2c_master_if._chan_yield.shutdown
	.align	4
	.type	_i.i2c_master_if._chan_yield.shutdown,@function
	.cc_top _i.i2c_master_if._chan_yield.shutdown.function,_i.i2c_master_if._chan_yield.shutdown
_i.i2c_master_if._chan_yield.shutdown:  # @_i.i2c_master_if._chan_yield.shutdown
	.cfi_startproc
	.issue_mode single
# BB#0:                                 # %allocas
	ENTSP_lu6 4
.Ltmp25:
	.cfi_def_cfa_offset 16
.Ltmp26:
	.cfi_offset 15, 0
	std r5, r4, sp[1]               # 4-byte Folded Spill
.Ltmp27:
	.cfi_offset 4, -8
.Ltmp28:
	.cfi_offset 5, -4
	#DEBUG_VALUE: _i.i2c_master_if._chan_yield.shutdown:s <- R0
	ldw r1, r0[0]
	getr r4, 2
	setd res[r4], r1
	add r1, r4, 3
	out res[r4], r1
	outct res[r4], 2
	ldw r5, r0[1]
	mov r0, r4
	mov r1, r5
	bl __interface_wait_and_yield
	ldc r1, 0
	mov r0, r4
	mov r2, r5
	bl __interface_client_call_y
	chkct res[r4], 1
	freer res[r4]
	ldd r5, r4, sp[1]               # 4-byte Folded Reload
	retsp 4
	# RETURN_REG_HOLDER
	.cc_bottom _i.i2c_master_if._chan_yield.shutdown.function
	.set	_i.i2c_master_if._chan_yield.shutdown.nstackwords,((($D __interface_wait_and_yield.nstackwords ? __interface_wait_and_yield.nstackwords $: _i.i2c_master_if._client_call_y.max.nstackwords) $M _i.i2c_master_if._client_call_y.max.nstackwords $M ($D __interface_client_call_y.nstackwords ? __interface_client_call_y.nstackwords $: _i.i2c_master_if._client_call_y.max.nstackwords)) + 4)
	.globl	_i.i2c_master_if._chan_yield.shutdown.nstackwords
	.weak	_i.i2c_master_if._chan_yield.shutdown.nstackwords
	.set	_i.i2c_master_if._chan_yield.shutdown.maxcores,($D __interface_client_call_y.maxcores ? __interface_client_call_y.maxcores $: _i.i2c_master_if._client_call_y.max.maxcores) $M ($D __interface_wait_and_yield.maxcores ? __interface_wait_and_yield.maxcores $: _i.i2c_master_if._client_call_y.max.maxcores) $M 1
	.globl	_i.i2c_master_if._chan_yield.shutdown.maxcores
	.weak	_i.i2c_master_if._chan_yield.shutdown.maxcores
	.set	_i.i2c_master_if._chan_yield.shutdown.maxtimers,($D __interface_client_call_y.maxtimers ? __interface_client_call_y.maxtimers $: _i.i2c_master_if._client_call_y.max.maxtimers) $M ($D __interface_wait_and_yield.maxtimers ? __interface_wait_and_yield.maxtimers $: _i.i2c_master_if._client_call_y.max.maxtimers) $M 0
	.globl	_i.i2c_master_if._chan_yield.shutdown.maxtimers
	.weak	_i.i2c_master_if._chan_yield.shutdown.maxtimers
	.set	_i.i2c_master_if._chan_yield.shutdown.maxchanends,(1 + ($D __interface_client_call_y.maxchanends ? __interface_client_call_y.maxchanends $: _i.i2c_master_if._client_call_y.max.maxchanends)) $M (1 + ($D __interface_wait_and_yield.maxchanends ? __interface_wait_and_yield.maxchanends $: _i.i2c_master_if._client_call_y.max.maxchanends)) $M 1
	.globl	_i.i2c_master_if._chan_yield.shutdown.maxchanends
	.weak	_i.i2c_master_if._chan_yield.shutdown.maxchanends
.Ltmp29:
	.size	_i.i2c_master_if._chan_yield.shutdown, .Ltmp29-_i.i2c_master_if._chan_yield.shutdown
	.cfi_endproc

	.weak	_i.i2c_master_if._chan_yield.send_stop_bit
	.align	4
	.type	_i.i2c_master_if._chan_yield.send_stop_bit,@function
	.cc_top _i.i2c_master_if._chan_yield.send_stop_bit.function,_i.i2c_master_if._chan_yield.send_stop_bit
_i.i2c_master_if._chan_yield.send_stop_bit: # @_i.i2c_master_if._chan_yield.send_stop_bit
	.cfi_startproc
	.issue_mode single
# BB#0:                                 # %allocas
	ENTSP_lu6 4
.Ltmp30:
	.cfi_def_cfa_offset 16
.Ltmp31:
	.cfi_offset 15, 0
	std r5, r4, sp[1]               # 4-byte Folded Spill
.Ltmp32:
	.cfi_offset 4, -8
.Ltmp33:
	.cfi_offset 5, -4
	#DEBUG_VALUE: _i.i2c_master_if._chan_yield.send_stop_bit:s <- R0
	ldw r1, r0[0]
	getr r4, 2
	setd res[r4], r1
	add r1, r4, 2
	out res[r4], r1
	outct res[r4], 2
	ldw r5, r0[1]
	mov r0, r4
	mov r1, r5
	bl __interface_wait_and_yield
	ldc r1, 0
	mov r0, r4
	mov r2, r5
	bl __interface_client_call_y
	chkct res[r4], 1
	freer res[r4]
	ldd r5, r4, sp[1]               # 4-byte Folded Reload
	retsp 4
	# RETURN_REG_HOLDER
	.cc_bottom _i.i2c_master_if._chan_yield.send_stop_bit.function
	.set	_i.i2c_master_if._chan_yield.send_stop_bit.nstackwords,((($D __interface_wait_and_yield.nstackwords ? __interface_wait_and_yield.nstackwords $: _i.i2c_master_if._client_call_y.max.nstackwords) $M _i.i2c_master_if._client_call_y.max.nstackwords $M ($D __interface_client_call_y.nstackwords ? __interface_client_call_y.nstackwords $: _i.i2c_master_if._client_call_y.max.nstackwords)) + 4)
	.globl	_i.i2c_master_if._chan_yield.send_stop_bit.nstackwords
	.weak	_i.i2c_master_if._chan_yield.send_stop_bit.nstackwords
	.set	_i.i2c_master_if._chan_yield.send_stop_bit.maxcores,($D __interface_client_call_y.maxcores ? __interface_client_call_y.maxcores $: _i.i2c_master_if._client_call_y.max.maxcores) $M ($D __interface_wait_and_yield.maxcores ? __interface_wait_and_yield.maxcores $: _i.i2c_master_if._client_call_y.max.maxcores) $M 1
	.globl	_i.i2c_master_if._chan_yield.send_stop_bit.maxcores
	.weak	_i.i2c_master_if._chan_yield.send_stop_bit.maxcores
	.set	_i.i2c_master_if._chan_yield.send_stop_bit.maxtimers,($D __interface_client_call_y.maxtimers ? __interface_client_call_y.maxtimers $: _i.i2c_master_if._client_call_y.max.maxtimers) $M ($D __interface_wait_and_yield.maxtimers ? __interface_wait_and_yield.maxtimers $: _i.i2c_master_if._client_call_y.max.maxtimers) $M 0
	.globl	_i.i2c_master_if._chan_yield.send_stop_bit.maxtimers
	.weak	_i.i2c_master_if._chan_yield.send_stop_bit.maxtimers
	.set	_i.i2c_master_if._chan_yield.send_stop_bit.maxchanends,(1 + ($D __interface_client_call_y.maxchanends ? __interface_client_call_y.maxchanends $: _i.i2c_master_if._client_call_y.max.maxchanends)) $M (1 + ($D __interface_wait_and_yield.maxchanends ? __interface_wait_and_yield.maxchanends $: _i.i2c_master_if._client_call_y.max.maxchanends)) $M 1
	.globl	_i.i2c_master_if._chan_yield.send_stop_bit.maxchanends
	.weak	_i.i2c_master_if._chan_yield.send_stop_bit.maxchanends
.Ltmp34:
	.size	_i.i2c_master_if._chan_yield.send_stop_bit, .Ltmp34-_i.i2c_master_if._chan_yield.send_stop_bit
	.cfi_endproc

	.weak	_i.i2c_master_if._chan_yield.read
	.align	4
	.type	_i.i2c_master_if._chan_yield.read,@function
	.cc_top _i.i2c_master_if._chan_yield.read.function,_i.i2c_master_if._chan_yield.read
_i.i2c_master_if._chan_yield.read:      # @_i.i2c_master_if._chan_yield.read
	.cfi_startproc
	.issue_mode single
# BB#0:                                 # %allocas
	ENTSP_lu6 8
.Ltmp35:
	.cfi_def_cfa_offset 32
.Ltmp36:
	.cfi_offset 15, 0
	std r5, r4, sp[1]               # 4-byte Folded Spill
.Ltmp37:
	.cfi_offset 4, -24
.Ltmp38:
	.cfi_offset 5, -20
	std r7, r6, sp[2]               # 4-byte Folded Spill
.Ltmp39:
	.cfi_offset 6, -16
.Ltmp40:
	.cfi_offset 7, -12
	std r9, r8, sp[3]               # 4-byte Folded Spill
.Ltmp41:
	.cfi_offset 8, -8
.Ltmp42:
	.cfi_offset 9, -4
	#DEBUG_VALUE: _i.i2c_master_if._chan_yield.read:s <- R0
	#DEBUG_VALUE: _i.i2c_master_if._chan_yield.read:param1 <- R1
	#DEBUG_VALUE: _i.i2c_master_if._chan_yield.read:param2 <- R2
	#DEBUG_VALUE: _i.i2c_master_if._chan_yield.read:param3 <- R3
	#DEBUG_VALUE: _i.i2c_master_if._chan_yield.read:param4 <- [SP+36]
	mov r5, r3
	#DEBUG_VALUE: _i.i2c_master_if._chan_yield.read:param3 <- R5
	mov r6, r2
	#DEBUG_VALUE: _i.i2c_master_if._chan_yield.read:param2 <- R6
	mov r7, r1
	#DEBUG_VALUE: _i.i2c_master_if._chan_yield.read:param1 <- R7
	ldw r9, sp[9]
	ldw r1, r0[0]
	getr r4, 2
	setd res[r4], r1
	add r1, r4, 1
	out res[r4], r1
	outct res[r4], 2
	ldw r8, r0[1]
	mov r0, r4
	mov r1, r8
	bl __interface_wait_and_yield
	chkct res[r4], 1
	outt res[r4], r7
	stw r6, sp[1]
	out res[r4], r5
	out res[r4], r9
	outct res[r4], 2
	ldaw r1, sp[1]
	mov r0, r4
	mov r2, r8
	bl __interface_client_call_y
	in r0, res[r4]
	chkct res[r4], 1
	freer res[r4]
	ldd r9, r8, sp[3]               # 4-byte Folded Reload
	ldd r7, r6, sp[2]               # 4-byte Folded Reload
	ldd r5, r4, sp[1]               # 4-byte Folded Reload
	retsp 8
	# RETURN_REG_HOLDER
	.cc_bottom _i.i2c_master_if._chan_yield.read.function
	.set	_i.i2c_master_if._chan_yield.read.nstackwords,((($D __interface_wait_and_yield.nstackwords ? __interface_wait_and_yield.nstackwords $: _i.i2c_master_if._client_call_y.max.nstackwords) $M _i.i2c_master_if._client_call_y.max.nstackwords $M ($D __interface_client_call_y.nstackwords ? __interface_client_call_y.nstackwords $: _i.i2c_master_if._client_call_y.max.nstackwords)) + 8)
	.globl	_i.i2c_master_if._chan_yield.read.nstackwords
	.weak	_i.i2c_master_if._chan_yield.read.nstackwords
	.set	_i.i2c_master_if._chan_yield.read.maxcores,($D __interface_client_call_y.maxcores ? __interface_client_call_y.maxcores $: _i.i2c_master_if._client_call_y.max.maxcores) $M ($D __interface_wait_and_yield.maxcores ? __interface_wait_and_yield.maxcores $: _i.i2c_master_if._client_call_y.max.maxcores) $M 1
	.globl	_i.i2c_master_if._chan_yield.read.maxcores
	.weak	_i.i2c_master_if._chan_yield.read.maxcores
	.set	_i.i2c_master_if._chan_yield.read.maxtimers,($D __interface_client_call_y.maxtimers ? __interface_client_call_y.maxtimers $: _i.i2c_master_if._client_call_y.max.maxtimers) $M ($D __interface_wait_and_yield.maxtimers ? __interface_wait_and_yield.maxtimers $: _i.i2c_master_if._client_call_y.max.maxtimers) $M 0
	.globl	_i.i2c_master_if._chan_yield.read.maxtimers
	.weak	_i.i2c_master_if._chan_yield.read.maxtimers
	.set	_i.i2c_master_if._chan_yield.read.maxchanends,(1 + ($D __interface_client_call_y.maxchanends ? __interface_client_call_y.maxchanends $: _i.i2c_master_if._client_call_y.max.maxchanends)) $M (1 + ($D __interface_wait_and_yield.maxchanends ? __interface_wait_and_yield.maxchanends $: _i.i2c_master_if._client_call_y.max.maxchanends)) $M 1
	.globl	_i.i2c_master_if._chan_yield.read.maxchanends
	.weak	_i.i2c_master_if._chan_yield.read.maxchanends
.Ltmp43:
	.size	_i.i2c_master_if._chan_yield.read, .Ltmp43-_i.i2c_master_if._chan_yield.read
	.cfi_endproc

	.weak	_i.i2c_master_if._chan_yield.write
	.align	4
	.type	_i.i2c_master_if._chan_yield.write,@function
	.cc_top _i.i2c_master_if._chan_yield.write.function,_i.i2c_master_if._chan_yield.write
_i.i2c_master_if._chan_yield.write:     # @_i.i2c_master_if._chan_yield.write
	.cfi_startproc
	.issue_mode single
# BB#0:                                 # %allocas
	ENTSP_lu6 10
.Ltmp44:
	.cfi_def_cfa_offset 40
.Ltmp45:
	.cfi_offset 15, 0
	std r5, r4, sp[1]               # 4-byte Folded Spill
.Ltmp46:
	.cfi_offset 4, -32
.Ltmp47:
	.cfi_offset 5, -28
	std r7, r6, sp[2]               # 4-byte Folded Spill
.Ltmp48:
	.cfi_offset 6, -24
.Ltmp49:
	.cfi_offset 7, -20
	std r9, r8, sp[3]               # 4-byte Folded Spill
.Ltmp50:
	.cfi_offset 8, -16
.Ltmp51:
	.cfi_offset 9, -12
	stw r10, sp[8]                  # 4-byte Folded Spill
.Ltmp52:
	.cfi_offset 10, -8
	#DEBUG_VALUE: _i.i2c_master_if._chan_yield.write:s <- R0
	#DEBUG_VALUE: _i.i2c_master_if._chan_yield.write:param1 <- R1
	#DEBUG_VALUE: _i.i2c_master_if._chan_yield.write:param2 <- R2
	#DEBUG_VALUE: _i.i2c_master_if._chan_yield.write:param3 <- R3
	#DEBUG_VALUE: _i.i2c_master_if._chan_yield.write:param4 <- [SP+44]
	#DEBUG_VALUE: _i.i2c_master_if._chan_yield.write:param5 <- [SP+48]
	mov r5, r3
	#DEBUG_VALUE: _i.i2c_master_if._chan_yield.write:param3 <- R5
	mov r6, r2
	#DEBUG_VALUE: _i.i2c_master_if._chan_yield.write:param2 <- R6
	mov r7, r1
	#DEBUG_VALUE: _i.i2c_master_if._chan_yield.write:param1 <- R7
	ldw r10, sp[12]
	ldw r9, sp[11]
	ldw r1, r0[0]
	getr r4, 2
	setd res[r4], r1
	out res[r4], r4
	outct res[r4], 2
	ldw r8, r0[1]
	mov r0, r4
	mov r1, r8
	bl __interface_wait_and_yield
	chkct res[r4], 1
	outt res[r4], r7
	stw r6, sp[1]
	out res[r4], r5
	ldw r0, r9[0]
	out res[r4], r0
	out res[r4], r10
	outct res[r4], 2
	ldaw r1, sp[1]
	mov r0, r4
	mov r2, r8
	bl __interface_client_call_y
	in r0, res[r4]
	stw r0, r9[0]
	in r0, res[r4]
	chkct res[r4], 1
	freer res[r4]
	ldw r10, sp[8]                  # 4-byte Folded Reload
	ldd r9, r8, sp[3]               # 4-byte Folded Reload
	ldd r7, r6, sp[2]               # 4-byte Folded Reload
	ldd r5, r4, sp[1]               # 4-byte Folded Reload
	retsp 10
	# RETURN_REG_HOLDER
	.cc_bottom _i.i2c_master_if._chan_yield.write.function
	.set	_i.i2c_master_if._chan_yield.write.nstackwords,((($D __interface_wait_and_yield.nstackwords ? __interface_wait_and_yield.nstackwords $: _i.i2c_master_if._client_call_y.max.nstackwords) $M _i.i2c_master_if._client_call_y.max.nstackwords $M ($D __interface_client_call_y.nstackwords ? __interface_client_call_y.nstackwords $: _i.i2c_master_if._client_call_y.max.nstackwords)) + 10)
	.globl	_i.i2c_master_if._chan_yield.write.nstackwords
	.weak	_i.i2c_master_if._chan_yield.write.nstackwords
	.set	_i.i2c_master_if._chan_yield.write.maxcores,($D __interface_client_call_y.maxcores ? __interface_client_call_y.maxcores $: _i.i2c_master_if._client_call_y.max.maxcores) $M ($D __interface_wait_and_yield.maxcores ? __interface_wait_and_yield.maxcores $: _i.i2c_master_if._client_call_y.max.maxcores) $M 1
	.globl	_i.i2c_master_if._chan_yield.write.maxcores
	.weak	_i.i2c_master_if._chan_yield.write.maxcores
	.set	_i.i2c_master_if._chan_yield.write.maxtimers,($D __interface_client_call_y.maxtimers ? __interface_client_call_y.maxtimers $: _i.i2c_master_if._client_call_y.max.maxtimers) $M ($D __interface_wait_and_yield.maxtimers ? __interface_wait_and_yield.maxtimers $: _i.i2c_master_if._client_call_y.max.maxtimers) $M 0
	.globl	_i.i2c_master_if._chan_yield.write.maxtimers
	.weak	_i.i2c_master_if._chan_yield.write.maxtimers
	.set	_i.i2c_master_if._chan_yield.write.maxchanends,(1 + ($D __interface_client_call_y.maxchanends ? __interface_client_call_y.maxchanends $: _i.i2c_master_if._client_call_y.max.maxchanends)) $M (1 + ($D __interface_wait_and_yield.maxchanends ? __interface_wait_and_yield.maxchanends $: _i.i2c_master_if._client_call_y.max.maxchanends)) $M 1
	.globl	_i.i2c_master_if._chan_yield.write.maxchanends
	.weak	_i.i2c_master_if._chan_yield.write.maxchanends
.Ltmp53:
	.size	_i.i2c_master_if._chan_yield.write, .Ltmp53-_i.i2c_master_if._chan_yield.write
	.cfi_endproc

	.weak	_i.i2c_master_async_if._chan.shutdown
	.align	4
	.type	_i.i2c_master_async_if._chan.shutdown,@function
	.cc_top _i.i2c_master_async_if._chan.shutdown.function,_i.i2c_master_async_if._chan.shutdown
_i.i2c_master_async_if._chan.shutdown:  # @_i.i2c_master_async_if._chan.shutdown
	.cfi_startproc
	.issue_mode single
# BB#0:                                 # %allocas
	ENTSP_lu6 4
.Ltmp54:
	.cfi_def_cfa_offset 16
.Ltmp55:
	.cfi_offset 15, 0
	stw r4, sp[2]                   # 4-byte Folded Spill
.Ltmp56:
	.cfi_offset 4, -8
	#DEBUG_VALUE: _i.i2c_master_async_if._chan.shutdown:dest <- R0
	getr r4, 2
	setd res[r4], r0
	add r0, r4, 5
	out res[r4], r0
	outct res[r4], 2
	ldc r1, 0
	mov r0, r4
	bl __interface_wait_and_yield
	in r0, res[r4]
	chkct res[r4], 1
	freer res[r4]
	ldw r4, sp[2]                   # 4-byte Folded Reload
	retsp 4
	# RETURN_REG_HOLDER
	.cc_bottom _i.i2c_master_async_if._chan.shutdown.function
	.set	_i.i2c_master_async_if._chan.shutdown.nstackwords,((_i.i2c_master_async_if._client_call_y.max.nstackwords $M ($D __interface_wait_and_yield.nstackwords ? __interface_wait_and_yield.nstackwords $: _i.i2c_master_async_if._client_call_y.max.nstackwords)) + 4)
	.globl	_i.i2c_master_async_if._chan.shutdown.nstackwords
	.weak	_i.i2c_master_async_if._chan.shutdown.nstackwords
	.set	_i.i2c_master_async_if._chan.shutdown.maxcores,($D __interface_wait_and_yield.maxcores ? __interface_wait_and_yield.maxcores $: _i.i2c_master_async_if._client_call_y.max.maxcores) $M 1
	.globl	_i.i2c_master_async_if._chan.shutdown.maxcores
	.weak	_i.i2c_master_async_if._chan.shutdown.maxcores
	.set	_i.i2c_master_async_if._chan.shutdown.maxtimers,($D __interface_wait_and_yield.maxtimers ? __interface_wait_and_yield.maxtimers $: _i.i2c_master_async_if._client_call_y.max.maxtimers) $M 0
	.globl	_i.i2c_master_async_if._chan.shutdown.maxtimers
	.weak	_i.i2c_master_async_if._chan.shutdown.maxtimers
	.set	_i.i2c_master_async_if._chan.shutdown.maxchanends,(1 + ($D __interface_wait_and_yield.maxchanends ? __interface_wait_and_yield.maxchanends $: _i.i2c_master_async_if._client_call_y.max.maxchanends)) $M 1
	.globl	_i.i2c_master_async_if._chan.shutdown.maxchanends
	.weak	_i.i2c_master_async_if._chan.shutdown.maxchanends
.Ltmp57:
	.size	_i.i2c_master_async_if._chan.shutdown, .Ltmp57-_i.i2c_master_async_if._chan.shutdown
	.cfi_endproc

	.weak	_i.i2c_master_async_if._chan.send_stop_bit
	.align	4
	.type	_i.i2c_master_async_if._chan.send_stop_bit,@function
	.cc_top _i.i2c_master_async_if._chan.send_stop_bit.function,_i.i2c_master_async_if._chan.send_stop_bit
_i.i2c_master_async_if._chan.send_stop_bit: # @_i.i2c_master_async_if._chan.send_stop_bit
	.cfi_startproc
	.issue_mode single
# BB#0:                                 # %allocas
	ENTSP_lu6 4
.Ltmp58:
	.cfi_def_cfa_offset 16
.Ltmp59:
	.cfi_offset 15, 0
	stw r4, sp[2]                   # 4-byte Folded Spill
.Ltmp60:
	.cfi_offset 4, -8
	#DEBUG_VALUE: _i.i2c_master_async_if._chan.send_stop_bit:dest <- R0
	getr r4, 2
	setd res[r4], r0
	add r0, r4, 4
	out res[r4], r0
	outct res[r4], 2
	ldc r1, 0
	mov r0, r4
	bl __interface_wait_and_yield
	in r0, res[r4]
	chkct res[r4], 1
	freer res[r4]
	ldw r4, sp[2]                   # 4-byte Folded Reload
	retsp 4
	# RETURN_REG_HOLDER
	.cc_bottom _i.i2c_master_async_if._chan.send_stop_bit.function
	.set	_i.i2c_master_async_if._chan.send_stop_bit.nstackwords,((_i.i2c_master_async_if._client_call_y.max.nstackwords $M ($D __interface_wait_and_yield.nstackwords ? __interface_wait_and_yield.nstackwords $: _i.i2c_master_async_if._client_call_y.max.nstackwords)) + 4)
	.globl	_i.i2c_master_async_if._chan.send_stop_bit.nstackwords
	.weak	_i.i2c_master_async_if._chan.send_stop_bit.nstackwords
	.set	_i.i2c_master_async_if._chan.send_stop_bit.maxcores,($D __interface_wait_and_yield.maxcores ? __interface_wait_and_yield.maxcores $: _i.i2c_master_async_if._client_call_y.max.maxcores) $M 1
	.globl	_i.i2c_master_async_if._chan.send_stop_bit.maxcores
	.weak	_i.i2c_master_async_if._chan.send_stop_bit.maxcores
	.set	_i.i2c_master_async_if._chan.send_stop_bit.maxtimers,($D __interface_wait_and_yield.maxtimers ? __interface_wait_and_yield.maxtimers $: _i.i2c_master_async_if._client_call_y.max.maxtimers) $M 0
	.globl	_i.i2c_master_async_if._chan.send_stop_bit.maxtimers
	.weak	_i.i2c_master_async_if._chan.send_stop_bit.maxtimers
	.set	_i.i2c_master_async_if._chan.send_stop_bit.maxchanends,(1 + ($D __interface_wait_and_yield.maxchanends ? __interface_wait_and_yield.maxchanends $: _i.i2c_master_async_if._client_call_y.max.maxchanends)) $M 1
	.globl	_i.i2c_master_async_if._chan.send_stop_bit.maxchanends
	.weak	_i.i2c_master_async_if._chan.send_stop_bit.maxchanends
.Ltmp61:
	.size	_i.i2c_master_async_if._chan.send_stop_bit, .Ltmp61-_i.i2c_master_async_if._chan.send_stop_bit
	.cfi_endproc

	.weak	_i.i2c_master_async_if._chan.get_read_data
	.align	4
	.type	_i.i2c_master_async_if._chan.get_read_data,@function
	.cc_top _i.i2c_master_async_if._chan.get_read_data.function,_i.i2c_master_async_if._chan.get_read_data
_i.i2c_master_async_if._chan.get_read_data: # @_i.i2c_master_async_if._chan.get_read_data
	.cfi_startproc
	.issue_mode single
# BB#0:                                 # %allocas
	ENTSP_lu6 6
.Ltmp62:
	.cfi_def_cfa_offset 24
.Ltmp63:
	.cfi_offset 15, 0
	std r5, r4, sp[1]               # 4-byte Folded Spill
.Ltmp64:
	.cfi_offset 4, -16
.Ltmp65:
	.cfi_offset 5, -12
	std r7, r6, sp[2]               # 4-byte Folded Spill
.Ltmp66:
	.cfi_offset 6, -8
.Ltmp67:
	.cfi_offset 7, -4
	#DEBUG_VALUE: _i.i2c_master_async_if._chan.get_read_data:dest <- R0
	#DEBUG_VALUE: _i.i2c_master_async_if._chan.get_read_data:clientNotifyFlag <- R1
	#DEBUG_VALUE: _i.i2c_master_async_if._chan.get_read_data:param2 <- R2
	#DEBUG_VALUE: _i.i2c_master_async_if._chan.get_read_data:param3 <- R3
	mov r4, r3
	#DEBUG_VALUE: _i.i2c_master_async_if._chan.get_read_data:param3 <- R4
	mov r5, r2
	#DEBUG_VALUE: _i.i2c_master_async_if._chan.get_read_data:param2 <- R5
	mov r6, r1
	#DEBUG_VALUE: _i.i2c_master_async_if._chan.get_read_data:clientNotifyFlag <- R6
	getr r7, 2
	setd res[r7], r0
	add r0, r7, 3
	out res[r7], r0
	outct res[r7], 2
	ldc r1, 0
	mov r0, r7
	bl __interface_wait_and_yield
	chkct res[r7], 1
	out res[r7], r6
	stw r5, sp[1]
	out res[r7], r4
	outct res[r7], 2
	ldaw r1, sp[1]
	mov r0, r7
	bl __interface_client_call
	in r0, res[r7]
	chkct res[r7], 1
	freer res[r7]
	ldd r7, r6, sp[2]               # 4-byte Folded Reload
	ldd r5, r4, sp[1]               # 4-byte Folded Reload
	retsp 6
	# RETURN_REG_HOLDER
	.cc_bottom _i.i2c_master_async_if._chan.get_read_data.function
	.set	_i.i2c_master_async_if._chan.get_read_data.nstackwords,((_i.i2c_master_async_if._client_call_y.max.nstackwords $M ($D __interface_wait_and_yield.nstackwords ? __interface_wait_and_yield.nstackwords $: _i.i2c_master_async_if._client_call_y.max.nstackwords) $M __interface_client_call.nstackwords) + 6)
	.globl	_i.i2c_master_async_if._chan.get_read_data.nstackwords
	.weak	_i.i2c_master_async_if._chan.get_read_data.nstackwords
	.set	_i.i2c_master_async_if._chan.get_read_data.maxcores,__interface_client_call.maxcores $M ($D __interface_wait_and_yield.maxcores ? __interface_wait_and_yield.maxcores $: _i.i2c_master_async_if._client_call_y.max.maxcores) $M 1
	.globl	_i.i2c_master_async_if._chan.get_read_data.maxcores
	.weak	_i.i2c_master_async_if._chan.get_read_data.maxcores
	.set	_i.i2c_master_async_if._chan.get_read_data.maxtimers,__interface_client_call.maxtimers $M ($D __interface_wait_and_yield.maxtimers ? __interface_wait_and_yield.maxtimers $: _i.i2c_master_async_if._client_call_y.max.maxtimers) $M 0
	.globl	_i.i2c_master_async_if._chan.get_read_data.maxtimers
	.weak	_i.i2c_master_async_if._chan.get_read_data.maxtimers
	.set	_i.i2c_master_async_if._chan.get_read_data.maxchanends,(1 + __interface_client_call.maxchanends) $M (1 + ($D __interface_wait_and_yield.maxchanends ? __interface_wait_and_yield.maxchanends $: _i.i2c_master_async_if._client_call_y.max.maxchanends)) $M 1
	.globl	_i.i2c_master_async_if._chan.get_read_data.maxchanends
	.weak	_i.i2c_master_async_if._chan.get_read_data.maxchanends
.Ltmp68:
	.size	_i.i2c_master_async_if._chan.get_read_data, .Ltmp68-_i.i2c_master_async_if._chan.get_read_data
	.cfi_endproc

	.weak	_i.i2c_master_async_if._chan.get_write_result
	.align	4
	.type	_i.i2c_master_async_if._chan.get_write_result,@function
	.cc_top _i.i2c_master_async_if._chan.get_write_result.function,_i.i2c_master_async_if._chan.get_write_result
_i.i2c_master_async_if._chan.get_write_result: # @_i.i2c_master_async_if._chan.get_write_result
	.cfi_startproc
	.issue_mode single
# BB#0:                                 # %allocas
	ENTSP_lu6 6
.Ltmp69:
	.cfi_def_cfa_offset 24
.Ltmp70:
	.cfi_offset 15, 0
	std r5, r4, sp[1]               # 4-byte Folded Spill
.Ltmp71:
	.cfi_offset 4, -16
.Ltmp72:
	.cfi_offset 5, -12
	stw r6, sp[4]                   # 4-byte Folded Spill
.Ltmp73:
	.cfi_offset 6, -8
	#DEBUG_VALUE: _i.i2c_master_async_if._chan.get_write_result:dest <- R0
	#DEBUG_VALUE: _i.i2c_master_async_if._chan.get_write_result:clientNotifyFlag <- R1
	#DEBUG_VALUE: _i.i2c_master_async_if._chan.get_write_result:param2 <- R2
	mov r4, r2
	#DEBUG_VALUE: _i.i2c_master_async_if._chan.get_write_result:param2 <- R4
	mov r5, r1
	#DEBUG_VALUE: _i.i2c_master_async_if._chan.get_write_result:clientNotifyFlag <- R5
	getr r6, 2
	setd res[r6], r0
	add r0, r6, 2
	out res[r6], r0
	outct res[r6], 2
	ldc r1, 0
	mov r0, r6
	bl __interface_wait_and_yield
	chkct res[r6], 1
	out res[r6], r5
	ldw r0, r4[0]
	out res[r6], r0
	outct res[r6], 2
	in r0, res[r6]
	in r0, res[r6]
	stw r0, r4[0]
	in r0, res[r6]
	chkct res[r6], 1
	freer res[r6]
	ldw r6, sp[4]                   # 4-byte Folded Reload
	ldd r5, r4, sp[1]               # 4-byte Folded Reload
	retsp 6
	# RETURN_REG_HOLDER
	.cc_bottom _i.i2c_master_async_if._chan.get_write_result.function
	.set	_i.i2c_master_async_if._chan.get_write_result.nstackwords,((_i.i2c_master_async_if._client_call_y.max.nstackwords $M ($D __interface_wait_and_yield.nstackwords ? __interface_wait_and_yield.nstackwords $: _i.i2c_master_async_if._client_call_y.max.nstackwords)) + 6)
	.globl	_i.i2c_master_async_if._chan.get_write_result.nstackwords
	.weak	_i.i2c_master_async_if._chan.get_write_result.nstackwords
	.set	_i.i2c_master_async_if._chan.get_write_result.maxcores,($D __interface_wait_and_yield.maxcores ? __interface_wait_and_yield.maxcores $: _i.i2c_master_async_if._client_call_y.max.maxcores) $M 1
	.globl	_i.i2c_master_async_if._chan.get_write_result.maxcores
	.weak	_i.i2c_master_async_if._chan.get_write_result.maxcores
	.set	_i.i2c_master_async_if._chan.get_write_result.maxtimers,($D __interface_wait_and_yield.maxtimers ? __interface_wait_and_yield.maxtimers $: _i.i2c_master_async_if._client_call_y.max.maxtimers) $M 0
	.globl	_i.i2c_master_async_if._chan.get_write_result.maxtimers
	.weak	_i.i2c_master_async_if._chan.get_write_result.maxtimers
	.set	_i.i2c_master_async_if._chan.get_write_result.maxchanends,(1 + ($D __interface_wait_and_yield.maxchanends ? __interface_wait_and_yield.maxchanends $: _i.i2c_master_async_if._client_call_y.max.maxchanends)) $M 1
	.globl	_i.i2c_master_async_if._chan.get_write_result.maxchanends
	.weak	_i.i2c_master_async_if._chan.get_write_result.maxchanends
.Ltmp74:
	.size	_i.i2c_master_async_if._chan.get_write_result, .Ltmp74-_i.i2c_master_async_if._chan.get_write_result
	.cfi_endproc

	.weak	_i.i2c_master_async_if._chan.read
	.align	4
	.type	_i.i2c_master_async_if._chan.read,@function
	.cc_top _i.i2c_master_async_if._chan.read.function,_i.i2c_master_async_if._chan.read
_i.i2c_master_async_if._chan.read:      # @_i.i2c_master_async_if._chan.read
	.cfi_startproc
	.issue_mode single
# BB#0:                                 # %allocas
	ENTSP_lu6 6
.Ltmp75:
	.cfi_def_cfa_offset 24
.Ltmp76:
	.cfi_offset 15, 0
	std r5, r4, sp[1]               # 4-byte Folded Spill
.Ltmp77:
	.cfi_offset 4, -16
.Ltmp78:
	.cfi_offset 5, -12
	std r7, r6, sp[2]               # 4-byte Folded Spill
.Ltmp79:
	.cfi_offset 6, -8
.Ltmp80:
	.cfi_offset 7, -4
	#DEBUG_VALUE: _i.i2c_master_async_if._chan.read:dest <- R0
	#DEBUG_VALUE: _i.i2c_master_async_if._chan.read:param1 <- R1
	#DEBUG_VALUE: _i.i2c_master_async_if._chan.read:param2 <- R2
	#DEBUG_VALUE: _i.i2c_master_async_if._chan.read:param3 <- R3
	mov r4, r3
	#DEBUG_VALUE: _i.i2c_master_async_if._chan.read:param3 <- R4
	mov r5, r2
	#DEBUG_VALUE: _i.i2c_master_async_if._chan.read:param2 <- R5
	mov r6, r1
	#DEBUG_VALUE: _i.i2c_master_async_if._chan.read:param1 <- R6
	getr r7, 2
	setd res[r7], r0
	add r0, r7, 1
	out res[r7], r0
	outct res[r7], 2
	ldc r1, 0
	mov r0, r7
	bl __interface_wait_and_yield
	chkct res[r7], 1
	outt res[r7], r6
	out res[r7], r5
	out res[r7], r4
	outct res[r7], 2
	in r0, res[r7]
	chkct res[r7], 1
	freer res[r7]
	ldd r7, r6, sp[2]               # 4-byte Folded Reload
	ldd r5, r4, sp[1]               # 4-byte Folded Reload
	retsp 6
	# RETURN_REG_HOLDER
	.cc_bottom _i.i2c_master_async_if._chan.read.function
	.set	_i.i2c_master_async_if._chan.read.nstackwords,((_i.i2c_master_async_if._client_call_y.max.nstackwords $M ($D __interface_wait_and_yield.nstackwords ? __interface_wait_and_yield.nstackwords $: _i.i2c_master_async_if._client_call_y.max.nstackwords)) + 6)
	.globl	_i.i2c_master_async_if._chan.read.nstackwords
	.weak	_i.i2c_master_async_if._chan.read.nstackwords
	.set	_i.i2c_master_async_if._chan.read.maxcores,($D __interface_wait_and_yield.maxcores ? __interface_wait_and_yield.maxcores $: _i.i2c_master_async_if._client_call_y.max.maxcores) $M 1
	.globl	_i.i2c_master_async_if._chan.read.maxcores
	.weak	_i.i2c_master_async_if._chan.read.maxcores
	.set	_i.i2c_master_async_if._chan.read.maxtimers,($D __interface_wait_and_yield.maxtimers ? __interface_wait_and_yield.maxtimers $: _i.i2c_master_async_if._client_call_y.max.maxtimers) $M 0
	.globl	_i.i2c_master_async_if._chan.read.maxtimers
	.weak	_i.i2c_master_async_if._chan.read.maxtimers
	.set	_i.i2c_master_async_if._chan.read.maxchanends,(1 + ($D __interface_wait_and_yield.maxchanends ? __interface_wait_and_yield.maxchanends $: _i.i2c_master_async_if._client_call_y.max.maxchanends)) $M 1
	.globl	_i.i2c_master_async_if._chan.read.maxchanends
	.weak	_i.i2c_master_async_if._chan.read.maxchanends
.Ltmp81:
	.size	_i.i2c_master_async_if._chan.read, .Ltmp81-_i.i2c_master_async_if._chan.read
	.cfi_endproc

	.weak	_i.i2c_master_async_if._chan.write
	.align	4
	.type	_i.i2c_master_async_if._chan.write,@function
	.cc_top _i.i2c_master_async_if._chan.write.function,_i.i2c_master_async_if._chan.write
_i.i2c_master_async_if._chan.write:     # @_i.i2c_master_async_if._chan.write
	.cfi_startproc
	.issue_mode single
# BB#0:                                 # %allocas
	ENTSP_lu6 8
.Ltmp82:
	.cfi_def_cfa_offset 32
.Ltmp83:
	.cfi_offset 15, 0
	std r5, r4, sp[1]               # 4-byte Folded Spill
.Ltmp84:
	.cfi_offset 4, -24
.Ltmp85:
	.cfi_offset 5, -20
	std r7, r6, sp[2]               # 4-byte Folded Spill
.Ltmp86:
	.cfi_offset 6, -16
.Ltmp87:
	.cfi_offset 7, -12
	stw r8, sp[6]                   # 4-byte Folded Spill
.Ltmp88:
	.cfi_offset 8, -8
	#DEBUG_VALUE: _i.i2c_master_async_if._chan.write:dest <- R0
	#DEBUG_VALUE: _i.i2c_master_async_if._chan.write:param1 <- R1
	#DEBUG_VALUE: _i.i2c_master_async_if._chan.write:param2 <- R2
	#DEBUG_VALUE: _i.i2c_master_async_if._chan.write:param3 <- R3
	#DEBUG_VALUE: _i.i2c_master_async_if._chan.write:param4 <- [SP+36]
	mov r4, r3
	#DEBUG_VALUE: _i.i2c_master_async_if._chan.write:param3 <- R4
	mov r5, r2
	#DEBUG_VALUE: _i.i2c_master_async_if._chan.write:param2 <- R5
	mov r6, r1
	#DEBUG_VALUE: _i.i2c_master_async_if._chan.write:param1 <- R6
	ldw r8, sp[9]
	getr r7, 2
	setd res[r7], r0
	out res[r7], r7
	outct res[r7], 2
	ldc r1, 0
	mov r0, r7
	bl __interface_wait_and_yield
	chkct res[r7], 1
	outt res[r7], r6
	stw r5, sp[1]
	out res[r7], r4
	out res[r7], r8
	outct res[r7], 2
	ldaw r1, sp[1]
	mov r0, r7
	bl __interface_client_call
	chkct res[r7], 1
	freer res[r7]
	ldw r8, sp[6]                   # 4-byte Folded Reload
	ldd r7, r6, sp[2]               # 4-byte Folded Reload
	ldd r5, r4, sp[1]               # 4-byte Folded Reload
	retsp 8
	# RETURN_REG_HOLDER
	.cc_bottom _i.i2c_master_async_if._chan.write.function
	.set	_i.i2c_master_async_if._chan.write.nstackwords,((_i.i2c_master_async_if._client_call_y.max.nstackwords $M ($D __interface_wait_and_yield.nstackwords ? __interface_wait_and_yield.nstackwords $: _i.i2c_master_async_if._client_call_y.max.nstackwords) $M __interface_client_call.nstackwords) + 8)
	.globl	_i.i2c_master_async_if._chan.write.nstackwords
	.weak	_i.i2c_master_async_if._chan.write.nstackwords
	.set	_i.i2c_master_async_if._chan.write.maxcores,__interface_client_call.maxcores $M ($D __interface_wait_and_yield.maxcores ? __interface_wait_and_yield.maxcores $: _i.i2c_master_async_if._client_call_y.max.maxcores) $M 1
	.globl	_i.i2c_master_async_if._chan.write.maxcores
	.weak	_i.i2c_master_async_if._chan.write.maxcores
	.set	_i.i2c_master_async_if._chan.write.maxtimers,__interface_client_call.maxtimers $M ($D __interface_wait_and_yield.maxtimers ? __interface_wait_and_yield.maxtimers $: _i.i2c_master_async_if._client_call_y.max.maxtimers) $M 0
	.globl	_i.i2c_master_async_if._chan.write.maxtimers
	.weak	_i.i2c_master_async_if._chan.write.maxtimers
	.set	_i.i2c_master_async_if._chan.write.maxchanends,(1 + __interface_client_call.maxchanends) $M (1 + ($D __interface_wait_and_yield.maxchanends ? __interface_wait_and_yield.maxchanends $: _i.i2c_master_async_if._client_call_y.max.maxchanends)) $M 1
	.globl	_i.i2c_master_async_if._chan.write.maxchanends
	.weak	_i.i2c_master_async_if._chan.write.maxchanends
.Ltmp89:
	.size	_i.i2c_master_async_if._chan.write, .Ltmp89-_i.i2c_master_async_if._chan.write
	.cfi_endproc

	.weak	_i.i2c_master_async_if._chan_yield.shutdown
	.align	4
	.type	_i.i2c_master_async_if._chan_yield.shutdown,@function
	.cc_top _i.i2c_master_async_if._chan_yield.shutdown.function,_i.i2c_master_async_if._chan_yield.shutdown
_i.i2c_master_async_if._chan_yield.shutdown: # @_i.i2c_master_async_if._chan_yield.shutdown
	.cfi_startproc
	.issue_mode single
# BB#0:                                 # %allocas
	ENTSP_lu6 4
.Ltmp90:
	.cfi_def_cfa_offset 16
.Ltmp91:
	.cfi_offset 15, 0
	std r5, r4, sp[1]               # 4-byte Folded Spill
.Ltmp92:
	.cfi_offset 4, -8
.Ltmp93:
	.cfi_offset 5, -4
	#DEBUG_VALUE: _i.i2c_master_async_if._chan_yield.shutdown:s <- R0
	ldw r1, r0[0]
	getr r4, 2
	setd res[r4], r1
	add r1, r4, 5
	out res[r4], r1
	outct res[r4], 2
	ldw r5, r0[1]
	mov r0, r4
	mov r1, r5
	bl __interface_wait_and_yield
	ldc r1, 0
	mov r0, r4
	mov r2, r5
	bl __interface_client_call_y
	chkct res[r4], 1
	freer res[r4]
	ldd r5, r4, sp[1]               # 4-byte Folded Reload
	retsp 4
	# RETURN_REG_HOLDER
	.cc_bottom _i.i2c_master_async_if._chan_yield.shutdown.function
	.set	_i.i2c_master_async_if._chan_yield.shutdown.nstackwords,((($D __interface_wait_and_yield.nstackwords ? __interface_wait_and_yield.nstackwords $: _i.i2c_master_async_if._client_call_y.max.nstackwords) $M _i.i2c_master_async_if._client_call_y.max.nstackwords $M ($D __interface_client_call_y.nstackwords ? __interface_client_call_y.nstackwords $: _i.i2c_master_async_if._client_call_y.max.nstackwords)) + 4)
	.globl	_i.i2c_master_async_if._chan_yield.shutdown.nstackwords
	.weak	_i.i2c_master_async_if._chan_yield.shutdown.nstackwords
	.set	_i.i2c_master_async_if._chan_yield.shutdown.maxcores,($D __interface_client_call_y.maxcores ? __interface_client_call_y.maxcores $: _i.i2c_master_async_if._client_call_y.max.maxcores) $M ($D __interface_wait_and_yield.maxcores ? __interface_wait_and_yield.maxcores $: _i.i2c_master_async_if._client_call_y.max.maxcores) $M 1
	.globl	_i.i2c_master_async_if._chan_yield.shutdown.maxcores
	.weak	_i.i2c_master_async_if._chan_yield.shutdown.maxcores
	.set	_i.i2c_master_async_if._chan_yield.shutdown.maxtimers,($D __interface_client_call_y.maxtimers ? __interface_client_call_y.maxtimers $: _i.i2c_master_async_if._client_call_y.max.maxtimers) $M ($D __interface_wait_and_yield.maxtimers ? __interface_wait_and_yield.maxtimers $: _i.i2c_master_async_if._client_call_y.max.maxtimers) $M 0
	.globl	_i.i2c_master_async_if._chan_yield.shutdown.maxtimers
	.weak	_i.i2c_master_async_if._chan_yield.shutdown.maxtimers
	.set	_i.i2c_master_async_if._chan_yield.shutdown.maxchanends,(1 + ($D __interface_client_call_y.maxchanends ? __interface_client_call_y.maxchanends $: _i.i2c_master_async_if._client_call_y.max.maxchanends)) $M (1 + ($D __interface_wait_and_yield.maxchanends ? __interface_wait_and_yield.maxchanends $: _i.i2c_master_async_if._client_call_y.max.maxchanends)) $M 1
	.globl	_i.i2c_master_async_if._chan_yield.shutdown.maxchanends
	.weak	_i.i2c_master_async_if._chan_yield.shutdown.maxchanends
.Ltmp94:
	.size	_i.i2c_master_async_if._chan_yield.shutdown, .Ltmp94-_i.i2c_master_async_if._chan_yield.shutdown
	.cfi_endproc

	.weak	_i.i2c_master_async_if._chan_yield.send_stop_bit
	.align	4
	.type	_i.i2c_master_async_if._chan_yield.send_stop_bit,@function
	.cc_top _i.i2c_master_async_if._chan_yield.send_stop_bit.function,_i.i2c_master_async_if._chan_yield.send_stop_bit
_i.i2c_master_async_if._chan_yield.send_stop_bit: # @_i.i2c_master_async_if._chan_yield.send_stop_bit
	.cfi_startproc
	.issue_mode single
# BB#0:                                 # %allocas
	ENTSP_lu6 4
.Ltmp95:
	.cfi_def_cfa_offset 16
.Ltmp96:
	.cfi_offset 15, 0
	std r5, r4, sp[1]               # 4-byte Folded Spill
.Ltmp97:
	.cfi_offset 4, -8
.Ltmp98:
	.cfi_offset 5, -4
	#DEBUG_VALUE: _i.i2c_master_async_if._chan_yield.send_stop_bit:s <- R0
	ldw r1, r0[0]
	getr r4, 2
	setd res[r4], r1
	add r1, r4, 4
	out res[r4], r1
	outct res[r4], 2
	ldw r5, r0[1]
	mov r0, r4
	mov r1, r5
	bl __interface_wait_and_yield
	ldc r1, 0
	mov r0, r4
	mov r2, r5
	bl __interface_client_call_y
	chkct res[r4], 1
	freer res[r4]
	ldd r5, r4, sp[1]               # 4-byte Folded Reload
	retsp 4
	# RETURN_REG_HOLDER
	.cc_bottom _i.i2c_master_async_if._chan_yield.send_stop_bit.function
	.set	_i.i2c_master_async_if._chan_yield.send_stop_bit.nstackwords,((($D __interface_wait_and_yield.nstackwords ? __interface_wait_and_yield.nstackwords $: _i.i2c_master_async_if._client_call_y.max.nstackwords) $M _i.i2c_master_async_if._client_call_y.max.nstackwords $M ($D __interface_client_call_y.nstackwords ? __interface_client_call_y.nstackwords $: _i.i2c_master_async_if._client_call_y.max.nstackwords)) + 4)
	.globl	_i.i2c_master_async_if._chan_yield.send_stop_bit.nstackwords
	.weak	_i.i2c_master_async_if._chan_yield.send_stop_bit.nstackwords
	.set	_i.i2c_master_async_if._chan_yield.send_stop_bit.maxcores,($D __interface_client_call_y.maxcores ? __interface_client_call_y.maxcores $: _i.i2c_master_async_if._client_call_y.max.maxcores) $M ($D __interface_wait_and_yield.maxcores ? __interface_wait_and_yield.maxcores $: _i.i2c_master_async_if._client_call_y.max.maxcores) $M 1
	.globl	_i.i2c_master_async_if._chan_yield.send_stop_bit.maxcores
	.weak	_i.i2c_master_async_if._chan_yield.send_stop_bit.maxcores
	.set	_i.i2c_master_async_if._chan_yield.send_stop_bit.maxtimers,($D __interface_client_call_y.maxtimers ? __interface_client_call_y.maxtimers $: _i.i2c_master_async_if._client_call_y.max.maxtimers) $M ($D __interface_wait_and_yield.maxtimers ? __interface_wait_and_yield.maxtimers $: _i.i2c_master_async_if._client_call_y.max.maxtimers) $M 0
	.globl	_i.i2c_master_async_if._chan_yield.send_stop_bit.maxtimers
	.weak	_i.i2c_master_async_if._chan_yield.send_stop_bit.maxtimers
	.set	_i.i2c_master_async_if._chan_yield.send_stop_bit.maxchanends,(1 + ($D __interface_client_call_y.maxchanends ? __interface_client_call_y.maxchanends $: _i.i2c_master_async_if._client_call_y.max.maxchanends)) $M (1 + ($D __interface_wait_and_yield.maxchanends ? __interface_wait_and_yield.maxchanends $: _i.i2c_master_async_if._client_call_y.max.maxchanends)) $M 1
	.globl	_i.i2c_master_async_if._chan_yield.send_stop_bit.maxchanends
	.weak	_i.i2c_master_async_if._chan_yield.send_stop_bit.maxchanends
.Ltmp99:
	.size	_i.i2c_master_async_if._chan_yield.send_stop_bit, .Ltmp99-_i.i2c_master_async_if._chan_yield.send_stop_bit
	.cfi_endproc

	.weak	_i.i2c_master_async_if._chan_yield.get_read_data
	.align	4
	.type	_i.i2c_master_async_if._chan_yield.get_read_data,@function
	.cc_top _i.i2c_master_async_if._chan_yield.get_read_data.function,_i.i2c_master_async_if._chan_yield.get_read_data
_i.i2c_master_async_if._chan_yield.get_read_data: # @_i.i2c_master_async_if._chan_yield.get_read_data
	.cfi_startproc
	.issue_mode single
# BB#0:                                 # %allocas
	ENTSP_lu6 8
.Ltmp100:
	.cfi_def_cfa_offset 32
.Ltmp101:
	.cfi_offset 15, 0
	std r5, r4, sp[1]               # 4-byte Folded Spill
.Ltmp102:
	.cfi_offset 4, -24
.Ltmp103:
	.cfi_offset 5, -20
	std r7, r6, sp[2]               # 4-byte Folded Spill
.Ltmp104:
	.cfi_offset 6, -16
.Ltmp105:
	.cfi_offset 7, -12
	stw r8, sp[6]                   # 4-byte Folded Spill
.Ltmp106:
	.cfi_offset 8, -8
	#DEBUG_VALUE: _i.i2c_master_async_if._chan_yield.get_read_data:s <- R0
	#DEBUG_VALUE: _i.i2c_master_async_if._chan_yield.get_read_data:clientNotifyFlag <- R1
	#DEBUG_VALUE: _i.i2c_master_async_if._chan_yield.get_read_data:param2 <- R2
	#DEBUG_VALUE: _i.i2c_master_async_if._chan_yield.get_read_data:param3 <- R3
	mov r5, r3
	#DEBUG_VALUE: _i.i2c_master_async_if._chan_yield.get_read_data:param3 <- R5
	mov r6, r2
	#DEBUG_VALUE: _i.i2c_master_async_if._chan_yield.get_read_data:param2 <- R6
	mov r7, r1
	#DEBUG_VALUE: _i.i2c_master_async_if._chan_yield.get_read_data:clientNotifyFlag <- R7
	ldw r1, r0[0]
	getr r4, 2
	setd res[r4], r1
	add r1, r4, 3
	out res[r4], r1
	outct res[r4], 2
	ldw r8, r0[1]
	mov r0, r4
	mov r1, r8
	bl __interface_wait_and_yield
	chkct res[r4], 1
	out res[r4], r7
	stw r6, sp[1]
	out res[r4], r5
	outct res[r4], 2
	ldaw r1, sp[1]
	mov r0, r4
	mov r2, r8
	bl __interface_client_call_y
	in r0, res[r4]
	chkct res[r4], 1
	freer res[r4]
	ldw r8, sp[6]                   # 4-byte Folded Reload
	ldd r7, r6, sp[2]               # 4-byte Folded Reload
	ldd r5, r4, sp[1]               # 4-byte Folded Reload
	retsp 8
	# RETURN_REG_HOLDER
	.cc_bottom _i.i2c_master_async_if._chan_yield.get_read_data.function
	.set	_i.i2c_master_async_if._chan_yield.get_read_data.nstackwords,((($D __interface_wait_and_yield.nstackwords ? __interface_wait_and_yield.nstackwords $: _i.i2c_master_async_if._client_call_y.max.nstackwords) $M _i.i2c_master_async_if._client_call_y.max.nstackwords $M ($D __interface_client_call_y.nstackwords ? __interface_client_call_y.nstackwords $: _i.i2c_master_async_if._client_call_y.max.nstackwords)) + 8)
	.globl	_i.i2c_master_async_if._chan_yield.get_read_data.nstackwords
	.weak	_i.i2c_master_async_if._chan_yield.get_read_data.nstackwords
	.set	_i.i2c_master_async_if._chan_yield.get_read_data.maxcores,($D __interface_client_call_y.maxcores ? __interface_client_call_y.maxcores $: _i.i2c_master_async_if._client_call_y.max.maxcores) $M ($D __interface_wait_and_yield.maxcores ? __interface_wait_and_yield.maxcores $: _i.i2c_master_async_if._client_call_y.max.maxcores) $M 1
	.globl	_i.i2c_master_async_if._chan_yield.get_read_data.maxcores
	.weak	_i.i2c_master_async_if._chan_yield.get_read_data.maxcores
	.set	_i.i2c_master_async_if._chan_yield.get_read_data.maxtimers,($D __interface_client_call_y.maxtimers ? __interface_client_call_y.maxtimers $: _i.i2c_master_async_if._client_call_y.max.maxtimers) $M ($D __interface_wait_and_yield.maxtimers ? __interface_wait_and_yield.maxtimers $: _i.i2c_master_async_if._client_call_y.max.maxtimers) $M 0
	.globl	_i.i2c_master_async_if._chan_yield.get_read_data.maxtimers
	.weak	_i.i2c_master_async_if._chan_yield.get_read_data.maxtimers
	.set	_i.i2c_master_async_if._chan_yield.get_read_data.maxchanends,(1 + ($D __interface_client_call_y.maxchanends ? __interface_client_call_y.maxchanends $: _i.i2c_master_async_if._client_call_y.max.maxchanends)) $M (1 + ($D __interface_wait_and_yield.maxchanends ? __interface_wait_and_yield.maxchanends $: _i.i2c_master_async_if._client_call_y.max.maxchanends)) $M 1
	.globl	_i.i2c_master_async_if._chan_yield.get_read_data.maxchanends
	.weak	_i.i2c_master_async_if._chan_yield.get_read_data.maxchanends
.Ltmp107:
	.size	_i.i2c_master_async_if._chan_yield.get_read_data, .Ltmp107-_i.i2c_master_async_if._chan_yield.get_read_data
	.cfi_endproc

	.weak	_i.i2c_master_async_if._chan_yield.get_write_result
	.align	4
	.type	_i.i2c_master_async_if._chan_yield.get_write_result,@function
	.cc_top _i.i2c_master_async_if._chan_yield.get_write_result.function,_i.i2c_master_async_if._chan_yield.get_write_result
_i.i2c_master_async_if._chan_yield.get_write_result: # @_i.i2c_master_async_if._chan_yield.get_write_result
	.cfi_startproc
	.issue_mode single
# BB#0:                                 # %allocas
	ENTSP_lu6 6
.Ltmp108:
	.cfi_def_cfa_offset 24
.Ltmp109:
	.cfi_offset 15, 0
	std r5, r4, sp[1]               # 4-byte Folded Spill
.Ltmp110:
	.cfi_offset 4, -16
.Ltmp111:
	.cfi_offset 5, -12
	std r7, r6, sp[2]               # 4-byte Folded Spill
.Ltmp112:
	.cfi_offset 6, -8
.Ltmp113:
	.cfi_offset 7, -4
	#DEBUG_VALUE: _i.i2c_master_async_if._chan_yield.get_write_result:s <- R0
	#DEBUG_VALUE: _i.i2c_master_async_if._chan_yield.get_write_result:clientNotifyFlag <- R1
	#DEBUG_VALUE: _i.i2c_master_async_if._chan_yield.get_write_result:param2 <- R2
	mov r4, r2
	#DEBUG_VALUE: _i.i2c_master_async_if._chan_yield.get_write_result:param2 <- R4
	mov r6, r1
	#DEBUG_VALUE: _i.i2c_master_async_if._chan_yield.get_write_result:clientNotifyFlag <- R6
	ldw r1, r0[0]
	getr r5, 2
	setd res[r5], r1
	add r1, r5, 2
	out res[r5], r1
	outct res[r5], 2
	ldw r7, r0[1]
	mov r0, r5
	mov r1, r7
	bl __interface_wait_and_yield
	chkct res[r5], 1
	out res[r5], r6
	ldw r0, r4[0]
	out res[r5], r0
	outct res[r5], 2
	ldc r1, 0
	mov r0, r5
	mov r2, r7
	bl __interface_client_call_y
	in r0, res[r5]
	stw r0, r4[0]
	in r0, res[r5]
	chkct res[r5], 1
	freer res[r5]
	ldd r7, r6, sp[2]               # 4-byte Folded Reload
	ldd r5, r4, sp[1]               # 4-byte Folded Reload
	retsp 6
	# RETURN_REG_HOLDER
	.cc_bottom _i.i2c_master_async_if._chan_yield.get_write_result.function
	.set	_i.i2c_master_async_if._chan_yield.get_write_result.nstackwords,((($D __interface_wait_and_yield.nstackwords ? __interface_wait_and_yield.nstackwords $: _i.i2c_master_async_if._client_call_y.max.nstackwords) $M _i.i2c_master_async_if._client_call_y.max.nstackwords $M ($D __interface_client_call_y.nstackwords ? __interface_client_call_y.nstackwords $: _i.i2c_master_async_if._client_call_y.max.nstackwords)) + 6)
	.globl	_i.i2c_master_async_if._chan_yield.get_write_result.nstackwords
	.weak	_i.i2c_master_async_if._chan_yield.get_write_result.nstackwords
	.set	_i.i2c_master_async_if._chan_yield.get_write_result.maxcores,($D __interface_client_call_y.maxcores ? __interface_client_call_y.maxcores $: _i.i2c_master_async_if._client_call_y.max.maxcores) $M ($D __interface_wait_and_yield.maxcores ? __interface_wait_and_yield.maxcores $: _i.i2c_master_async_if._client_call_y.max.maxcores) $M 1
	.globl	_i.i2c_master_async_if._chan_yield.get_write_result.maxcores
	.weak	_i.i2c_master_async_if._chan_yield.get_write_result.maxcores
	.set	_i.i2c_master_async_if._chan_yield.get_write_result.maxtimers,($D __interface_client_call_y.maxtimers ? __interface_client_call_y.maxtimers $: _i.i2c_master_async_if._client_call_y.max.maxtimers) $M ($D __interface_wait_and_yield.maxtimers ? __interface_wait_and_yield.maxtimers $: _i.i2c_master_async_if._client_call_y.max.maxtimers) $M 0
	.globl	_i.i2c_master_async_if._chan_yield.get_write_result.maxtimers
	.weak	_i.i2c_master_async_if._chan_yield.get_write_result.maxtimers
	.set	_i.i2c_master_async_if._chan_yield.get_write_result.maxchanends,(1 + ($D __interface_client_call_y.maxchanends ? __interface_client_call_y.maxchanends $: _i.i2c_master_async_if._client_call_y.max.maxchanends)) $M (1 + ($D __interface_wait_and_yield.maxchanends ? __interface_wait_and_yield.maxchanends $: _i.i2c_master_async_if._client_call_y.max.maxchanends)) $M 1
	.globl	_i.i2c_master_async_if._chan_yield.get_write_result.maxchanends
	.weak	_i.i2c_master_async_if._chan_yield.get_write_result.maxchanends
.Ltmp114:
	.size	_i.i2c_master_async_if._chan_yield.get_write_result, .Ltmp114-_i.i2c_master_async_if._chan_yield.get_write_result
	.cfi_endproc

	.weak	_i.i2c_master_async_if._chan_yield.read
	.align	4
	.type	_i.i2c_master_async_if._chan_yield.read,@function
	.cc_top _i.i2c_master_async_if._chan_yield.read.function,_i.i2c_master_async_if._chan_yield.read
_i.i2c_master_async_if._chan_yield.read: # @_i.i2c_master_async_if._chan_yield.read
	.cfi_startproc
	.issue_mode single
# BB#0:                                 # %allocas
	ENTSP_lu6 8
.Ltmp115:
	.cfi_def_cfa_offset 32
.Ltmp116:
	.cfi_offset 15, 0
	std r5, r4, sp[1]               # 4-byte Folded Spill
.Ltmp117:
	.cfi_offset 4, -24
.Ltmp118:
	.cfi_offset 5, -20
	std r7, r6, sp[2]               # 4-byte Folded Spill
.Ltmp119:
	.cfi_offset 6, -16
.Ltmp120:
	.cfi_offset 7, -12
	stw r8, sp[6]                   # 4-byte Folded Spill
.Ltmp121:
	.cfi_offset 8, -8
	#DEBUG_VALUE: _i.i2c_master_async_if._chan_yield.read:s <- R0
	#DEBUG_VALUE: _i.i2c_master_async_if._chan_yield.read:param1 <- R1
	#DEBUG_VALUE: _i.i2c_master_async_if._chan_yield.read:param2 <- R2
	#DEBUG_VALUE: _i.i2c_master_async_if._chan_yield.read:param3 <- R3
	mov r4, r3
	#DEBUG_VALUE: _i.i2c_master_async_if._chan_yield.read:param3 <- R4
	mov r5, r2
	#DEBUG_VALUE: _i.i2c_master_async_if._chan_yield.read:param2 <- R5
	mov r6, r1
	#DEBUG_VALUE: _i.i2c_master_async_if._chan_yield.read:param1 <- R6
	ldw r1, r0[0]
	getr r7, 2
	setd res[r7], r1
	add r1, r7, 1
	out res[r7], r1
	outct res[r7], 2
	ldw r8, r0[1]
	mov r0, r7
	mov r1, r8
	bl __interface_wait_and_yield
	chkct res[r7], 1
	outt res[r7], r6
	out res[r7], r5
	out res[r7], r4
	outct res[r7], 2
	ldc r1, 0
	mov r0, r7
	mov r2, r8
	bl __interface_client_call_y
	chkct res[r7], 1
	freer res[r7]
	ldw r8, sp[6]                   # 4-byte Folded Reload
	ldd r7, r6, sp[2]               # 4-byte Folded Reload
	ldd r5, r4, sp[1]               # 4-byte Folded Reload
	retsp 8
	# RETURN_REG_HOLDER
	.cc_bottom _i.i2c_master_async_if._chan_yield.read.function
	.set	_i.i2c_master_async_if._chan_yield.read.nstackwords,((($D __interface_wait_and_yield.nstackwords ? __interface_wait_and_yield.nstackwords $: _i.i2c_master_async_if._client_call_y.max.nstackwords) $M _i.i2c_master_async_if._client_call_y.max.nstackwords $M ($D __interface_client_call_y.nstackwords ? __interface_client_call_y.nstackwords $: _i.i2c_master_async_if._client_call_y.max.nstackwords)) + 8)
	.globl	_i.i2c_master_async_if._chan_yield.read.nstackwords
	.weak	_i.i2c_master_async_if._chan_yield.read.nstackwords
	.set	_i.i2c_master_async_if._chan_yield.read.maxcores,($D __interface_client_call_y.maxcores ? __interface_client_call_y.maxcores $: _i.i2c_master_async_if._client_call_y.max.maxcores) $M ($D __interface_wait_and_yield.maxcores ? __interface_wait_and_yield.maxcores $: _i.i2c_master_async_if._client_call_y.max.maxcores) $M 1
	.globl	_i.i2c_master_async_if._chan_yield.read.maxcores
	.weak	_i.i2c_master_async_if._chan_yield.read.maxcores
	.set	_i.i2c_master_async_if._chan_yield.read.maxtimers,($D __interface_client_call_y.maxtimers ? __interface_client_call_y.maxtimers $: _i.i2c_master_async_if._client_call_y.max.maxtimers) $M ($D __interface_wait_and_yield.maxtimers ? __interface_wait_and_yield.maxtimers $: _i.i2c_master_async_if._client_call_y.max.maxtimers) $M 0
	.globl	_i.i2c_master_async_if._chan_yield.read.maxtimers
	.weak	_i.i2c_master_async_if._chan_yield.read.maxtimers
	.set	_i.i2c_master_async_if._chan_yield.read.maxchanends,(1 + ($D __interface_client_call_y.maxchanends ? __interface_client_call_y.maxchanends $: _i.i2c_master_async_if._client_call_y.max.maxchanends)) $M (1 + ($D __interface_wait_and_yield.maxchanends ? __interface_wait_and_yield.maxchanends $: _i.i2c_master_async_if._client_call_y.max.maxchanends)) $M 1
	.globl	_i.i2c_master_async_if._chan_yield.read.maxchanends
	.weak	_i.i2c_master_async_if._chan_yield.read.maxchanends
.Ltmp122:
	.size	_i.i2c_master_async_if._chan_yield.read, .Ltmp122-_i.i2c_master_async_if._chan_yield.read
	.cfi_endproc

	.weak	_i.i2c_master_async_if._chan_yield.write
	.align	4
	.type	_i.i2c_master_async_if._chan_yield.write,@function
	.cc_top _i.i2c_master_async_if._chan_yield.write.function,_i.i2c_master_async_if._chan_yield.write
_i.i2c_master_async_if._chan_yield.write: # @_i.i2c_master_async_if._chan_yield.write
	.cfi_startproc
	.issue_mode single
# BB#0:                                 # %allocas
	ENTSP_lu6 8
.Ltmp123:
	.cfi_def_cfa_offset 32
.Ltmp124:
	.cfi_offset 15, 0
	std r5, r4, sp[1]               # 4-byte Folded Spill
.Ltmp125:
	.cfi_offset 4, -24
.Ltmp126:
	.cfi_offset 5, -20
	std r7, r6, sp[2]               # 4-byte Folded Spill
.Ltmp127:
	.cfi_offset 6, -16
.Ltmp128:
	.cfi_offset 7, -12
	std r9, r8, sp[3]               # 4-byte Folded Spill
.Ltmp129:
	.cfi_offset 8, -8
.Ltmp130:
	.cfi_offset 9, -4
	#DEBUG_VALUE: _i.i2c_master_async_if._chan_yield.write:s <- R0
	#DEBUG_VALUE: _i.i2c_master_async_if._chan_yield.write:param1 <- R1
	#DEBUG_VALUE: _i.i2c_master_async_if._chan_yield.write:param2 <- R2
	#DEBUG_VALUE: _i.i2c_master_async_if._chan_yield.write:param3 <- R3
	#DEBUG_VALUE: _i.i2c_master_async_if._chan_yield.write:param4 <- [SP+36]
	mov r4, r3
	#DEBUG_VALUE: _i.i2c_master_async_if._chan_yield.write:param3 <- R4
	mov r5, r2
	#DEBUG_VALUE: _i.i2c_master_async_if._chan_yield.write:param2 <- R5
	mov r6, r1
	#DEBUG_VALUE: _i.i2c_master_async_if._chan_yield.write:param1 <- R6
	ldw r9, sp[9]
	ldw r1, r0[0]
	getr r7, 2
	setd res[r7], r1
	out res[r7], r7
	outct res[r7], 2
	ldw r8, r0[1]
	mov r0, r7
	mov r1, r8
	bl __interface_wait_and_yield
	chkct res[r7], 1
	outt res[r7], r6
	stw r5, sp[1]
	out res[r7], r4
	out res[r7], r9
	outct res[r7], 2
	ldaw r1, sp[1]
	mov r0, r7
	mov r2, r8
	bl __interface_client_call_y
	chkct res[r7], 1
	freer res[r7]
	ldd r9, r8, sp[3]               # 4-byte Folded Reload
	ldd r7, r6, sp[2]               # 4-byte Folded Reload
	ldd r5, r4, sp[1]               # 4-byte Folded Reload
	retsp 8
	# RETURN_REG_HOLDER
	.cc_bottom _i.i2c_master_async_if._chan_yield.write.function
	.set	_i.i2c_master_async_if._chan_yield.write.nstackwords,((($D __interface_wait_and_yield.nstackwords ? __interface_wait_and_yield.nstackwords $: _i.i2c_master_async_if._client_call_y.max.nstackwords) $M _i.i2c_master_async_if._client_call_y.max.nstackwords $M ($D __interface_client_call_y.nstackwords ? __interface_client_call_y.nstackwords $: _i.i2c_master_async_if._client_call_y.max.nstackwords)) + 8)
	.globl	_i.i2c_master_async_if._chan_yield.write.nstackwords
	.weak	_i.i2c_master_async_if._chan_yield.write.nstackwords
	.set	_i.i2c_master_async_if._chan_yield.write.maxcores,($D __interface_client_call_y.maxcores ? __interface_client_call_y.maxcores $: _i.i2c_master_async_if._client_call_y.max.maxcores) $M ($D __interface_wait_and_yield.maxcores ? __interface_wait_and_yield.maxcores $: _i.i2c_master_async_if._client_call_y.max.maxcores) $M 1
	.globl	_i.i2c_master_async_if._chan_yield.write.maxcores
	.weak	_i.i2c_master_async_if._chan_yield.write.maxcores
	.set	_i.i2c_master_async_if._chan_yield.write.maxtimers,($D __interface_client_call_y.maxtimers ? __interface_client_call_y.maxtimers $: _i.i2c_master_async_if._client_call_y.max.maxtimers) $M ($D __interface_wait_and_yield.maxtimers ? __interface_wait_and_yield.maxtimers $: _i.i2c_master_async_if._client_call_y.max.maxtimers) $M 0
	.globl	_i.i2c_master_async_if._chan_yield.write.maxtimers
	.weak	_i.i2c_master_async_if._chan_yield.write.maxtimers
	.set	_i.i2c_master_async_if._chan_yield.write.maxchanends,(1 + ($D __interface_client_call_y.maxchanends ? __interface_client_call_y.maxchanends $: _i.i2c_master_async_if._client_call_y.max.maxchanends)) $M (1 + ($D __interface_wait_and_yield.maxchanends ? __interface_wait_and_yield.maxchanends $: _i.i2c_master_async_if._client_call_y.max.maxchanends)) $M 1
	.globl	_i.i2c_master_async_if._chan_yield.write.maxchanends
	.weak	_i.i2c_master_async_if._chan_yield.write.maxchanends
.Ltmp131:
	.size	_i.i2c_master_async_if._chan_yield.write, .Ltmp131-_i.i2c_master_async_if._chan_yield.write
	.cfi_endproc

	.weak	_i.i2c_slave_callback_if._chan.stop_bit
	.align	4
	.type	_i.i2c_slave_callback_if._chan.stop_bit,@function
	.cc_top _i.i2c_slave_callback_if._chan.stop_bit.function,_i.i2c_slave_callback_if._chan.stop_bit
_i.i2c_slave_callback_if._chan.stop_bit: # @_i.i2c_slave_callback_if._chan.stop_bit
	.cfi_startproc
	.issue_mode single
# BB#0:                                 # %allocas
	ENTSP_lu6 4
.Ltmp132:
	.cfi_def_cfa_offset 16
.Ltmp133:
	.cfi_offset 15, 0
	stw r4, sp[2]                   # 4-byte Folded Spill
.Ltmp134:
	.cfi_offset 4, -8
	#DEBUG_VALUE: _i.i2c_slave_callback_if._chan.stop_bit:dest <- R0
	getr r4, 2
	setd res[r4], r0
	add r0, r4, 4
	out res[r4], r0
	outct res[r4], 2
	ldc r1, 0
	mov r0, r4
	bl __interface_wait_and_yield
	in r0, res[r4]
	chkct res[r4], 1
	freer res[r4]
	ldw r4, sp[2]                   # 4-byte Folded Reload
	retsp 4
	# RETURN_REG_HOLDER
	.cc_bottom _i.i2c_slave_callback_if._chan.stop_bit.function
	.set	_i.i2c_slave_callback_if._chan.stop_bit.nstackwords,((_i.i2c_slave_callback_if._client_call_y.max.nstackwords $M ($D __interface_wait_and_yield.nstackwords ? __interface_wait_and_yield.nstackwords $: _i.i2c_slave_callback_if._client_call_y.max.nstackwords)) + 4)
	.globl	_i.i2c_slave_callback_if._chan.stop_bit.nstackwords
	.weak	_i.i2c_slave_callback_if._chan.stop_bit.nstackwords
	.set	_i.i2c_slave_callback_if._chan.stop_bit.maxcores,($D __interface_wait_and_yield.maxcores ? __interface_wait_and_yield.maxcores $: _i.i2c_slave_callback_if._client_call_y.max.maxcores) $M 1
	.globl	_i.i2c_slave_callback_if._chan.stop_bit.maxcores
	.weak	_i.i2c_slave_callback_if._chan.stop_bit.maxcores
	.set	_i.i2c_slave_callback_if._chan.stop_bit.maxtimers,($D __interface_wait_and_yield.maxtimers ? __interface_wait_and_yield.maxtimers $: _i.i2c_slave_callback_if._client_call_y.max.maxtimers) $M 0
	.globl	_i.i2c_slave_callback_if._chan.stop_bit.maxtimers
	.weak	_i.i2c_slave_callback_if._chan.stop_bit.maxtimers
	.set	_i.i2c_slave_callback_if._chan.stop_bit.maxchanends,(1 + ($D __interface_wait_and_yield.maxchanends ? __interface_wait_and_yield.maxchanends $: _i.i2c_slave_callback_if._client_call_y.max.maxchanends)) $M 1
	.globl	_i.i2c_slave_callback_if._chan.stop_bit.maxchanends
	.weak	_i.i2c_slave_callback_if._chan.stop_bit.maxchanends
.Ltmp135:
	.size	_i.i2c_slave_callback_if._chan.stop_bit, .Ltmp135-_i.i2c_slave_callback_if._chan.stop_bit
	.cfi_endproc

	.weak	_i.i2c_slave_callback_if._chan.master_sent_data
	.align	4
	.type	_i.i2c_slave_callback_if._chan.master_sent_data,@function
	.cc_top _i.i2c_slave_callback_if._chan.master_sent_data.function,_i.i2c_slave_callback_if._chan.master_sent_data
_i.i2c_slave_callback_if._chan.master_sent_data: # @_i.i2c_slave_callback_if._chan.master_sent_data
	.cfi_startproc
	.issue_mode single
# BB#0:                                 # %allocas
	ENTSP_lu6 4
.Ltmp136:
	.cfi_def_cfa_offset 16
.Ltmp137:
	.cfi_offset 15, 0
	std r5, r4, sp[1]               # 4-byte Folded Spill
.Ltmp138:
	.cfi_offset 4, -8
.Ltmp139:
	.cfi_offset 5, -4
	#DEBUG_VALUE: _i.i2c_slave_callback_if._chan.master_sent_data:dest <- R0
	#DEBUG_VALUE: _i.i2c_slave_callback_if._chan.master_sent_data:param1 <- R1
	mov r4, r1
	#DEBUG_VALUE: _i.i2c_slave_callback_if._chan.master_sent_data:param1 <- R4
	getr r5, 2
	setd res[r5], r0
	add r0, r5, 3
	out res[r5], r0
	outct res[r5], 2
	ldc r1, 0
	mov r0, r5
	bl __interface_wait_and_yield
	chkct res[r5], 1
	outt res[r5], r4
	outct res[r5], 2
	in r0, res[r5]
	in r0, res[r5]
	chkct res[r5], 1
	freer res[r5]
	ldd r5, r4, sp[1]               # 4-byte Folded Reload
	retsp 4
	# RETURN_REG_HOLDER
	.cc_bottom _i.i2c_slave_callback_if._chan.master_sent_data.function
	.set	_i.i2c_slave_callback_if._chan.master_sent_data.nstackwords,((_i.i2c_slave_callback_if._client_call_y.max.nstackwords $M ($D __interface_wait_and_yield.nstackwords ? __interface_wait_and_yield.nstackwords $: _i.i2c_slave_callback_if._client_call_y.max.nstackwords)) + 4)
	.globl	_i.i2c_slave_callback_if._chan.master_sent_data.nstackwords
	.weak	_i.i2c_slave_callback_if._chan.master_sent_data.nstackwords
	.set	_i.i2c_slave_callback_if._chan.master_sent_data.maxcores,($D __interface_wait_and_yield.maxcores ? __interface_wait_and_yield.maxcores $: _i.i2c_slave_callback_if._client_call_y.max.maxcores) $M 1
	.globl	_i.i2c_slave_callback_if._chan.master_sent_data.maxcores
	.weak	_i.i2c_slave_callback_if._chan.master_sent_data.maxcores
	.set	_i.i2c_slave_callback_if._chan.master_sent_data.maxtimers,($D __interface_wait_and_yield.maxtimers ? __interface_wait_and_yield.maxtimers $: _i.i2c_slave_callback_if._client_call_y.max.maxtimers) $M 0
	.globl	_i.i2c_slave_callback_if._chan.master_sent_data.maxtimers
	.weak	_i.i2c_slave_callback_if._chan.master_sent_data.maxtimers
	.set	_i.i2c_slave_callback_if._chan.master_sent_data.maxchanends,(1 + ($D __interface_wait_and_yield.maxchanends ? __interface_wait_and_yield.maxchanends $: _i.i2c_slave_callback_if._client_call_y.max.maxchanends)) $M 1
	.globl	_i.i2c_slave_callback_if._chan.master_sent_data.maxchanends
	.weak	_i.i2c_slave_callback_if._chan.master_sent_data.maxchanends
.Ltmp140:
	.size	_i.i2c_slave_callback_if._chan.master_sent_data, .Ltmp140-_i.i2c_slave_callback_if._chan.master_sent_data
	.cfi_endproc

	.weak	_i.i2c_slave_callback_if._chan.master_requires_data
	.align	4
	.type	_i.i2c_slave_callback_if._chan.master_requires_data,@function
	.cc_top _i.i2c_slave_callback_if._chan.master_requires_data.function,_i.i2c_slave_callback_if._chan.master_requires_data
_i.i2c_slave_callback_if._chan.master_requires_data: # @_i.i2c_slave_callback_if._chan.master_requires_data
	.cfi_startproc
	.issue_mode single
# BB#0:                                 # %allocas
	ENTSP_lu6 4
.Ltmp141:
	.cfi_def_cfa_offset 16
.Ltmp142:
	.cfi_offset 15, 0
	stw r4, sp[2]                   # 4-byte Folded Spill
.Ltmp143:
	.cfi_offset 4, -8
	#DEBUG_VALUE: _i.i2c_slave_callback_if._chan.master_requires_data:dest <- R0
	getr r4, 2
	setd res[r4], r0
	add r0, r4, 2
	out res[r4], r0
	outct res[r4], 2
	ldc r1, 0
	mov r0, r4
	bl __interface_wait_and_yield
	in r0, res[r4]
	int r0, res[r4]
	chkct res[r4], 1
	freer res[r4]
	ldw r4, sp[2]                   # 4-byte Folded Reload
	retsp 4
	# RETURN_REG_HOLDER
	.cc_bottom _i.i2c_slave_callback_if._chan.master_requires_data.function
	.set	_i.i2c_slave_callback_if._chan.master_requires_data.nstackwords,((_i.i2c_slave_callback_if._client_call_y.max.nstackwords $M ($D __interface_wait_and_yield.nstackwords ? __interface_wait_and_yield.nstackwords $: _i.i2c_slave_callback_if._client_call_y.max.nstackwords)) + 4)
	.globl	_i.i2c_slave_callback_if._chan.master_requires_data.nstackwords
	.weak	_i.i2c_slave_callback_if._chan.master_requires_data.nstackwords
	.set	_i.i2c_slave_callback_if._chan.master_requires_data.maxcores,($D __interface_wait_and_yield.maxcores ? __interface_wait_and_yield.maxcores $: _i.i2c_slave_callback_if._client_call_y.max.maxcores) $M 1
	.globl	_i.i2c_slave_callback_if._chan.master_requires_data.maxcores
	.weak	_i.i2c_slave_callback_if._chan.master_requires_data.maxcores
	.set	_i.i2c_slave_callback_if._chan.master_requires_data.maxtimers,($D __interface_wait_and_yield.maxtimers ? __interface_wait_and_yield.maxtimers $: _i.i2c_slave_callback_if._client_call_y.max.maxtimers) $M 0
	.globl	_i.i2c_slave_callback_if._chan.master_requires_data.maxtimers
	.weak	_i.i2c_slave_callback_if._chan.master_requires_data.maxtimers
	.set	_i.i2c_slave_callback_if._chan.master_requires_data.maxchanends,(1 + ($D __interface_wait_and_yield.maxchanends ? __interface_wait_and_yield.maxchanends $: _i.i2c_slave_callback_if._client_call_y.max.maxchanends)) $M 1
	.globl	_i.i2c_slave_callback_if._chan.master_requires_data.maxchanends
	.weak	_i.i2c_slave_callback_if._chan.master_requires_data.maxchanends
.Ltmp144:
	.size	_i.i2c_slave_callback_if._chan.master_requires_data, .Ltmp144-_i.i2c_slave_callback_if._chan.master_requires_data
	.cfi_endproc

	.weak	_i.i2c_slave_callback_if._chan.ack_write_request
	.align	4
	.type	_i.i2c_slave_callback_if._chan.ack_write_request,@function
	.cc_top _i.i2c_slave_callback_if._chan.ack_write_request.function,_i.i2c_slave_callback_if._chan.ack_write_request
_i.i2c_slave_callback_if._chan.ack_write_request: # @_i.i2c_slave_callback_if._chan.ack_write_request
	.cfi_startproc
	.issue_mode single
# BB#0:                                 # %allocas
	ENTSP_lu6 4
.Ltmp145:
	.cfi_def_cfa_offset 16
.Ltmp146:
	.cfi_offset 15, 0
	stw r4, sp[2]                   # 4-byte Folded Spill
.Ltmp147:
	.cfi_offset 4, -8
	#DEBUG_VALUE: _i.i2c_slave_callback_if._chan.ack_write_request:dest <- R0
	getr r4, 2
	setd res[r4], r0
	add r0, r4, 1
	out res[r4], r0
	outct res[r4], 2
	ldc r1, 0
	mov r0, r4
	bl __interface_wait_and_yield
	in r0, res[r4]
	in r0, res[r4]
	chkct res[r4], 1
	freer res[r4]
	ldw r4, sp[2]                   # 4-byte Folded Reload
	retsp 4
	# RETURN_REG_HOLDER
	.cc_bottom _i.i2c_slave_callback_if._chan.ack_write_request.function
	.set	_i.i2c_slave_callback_if._chan.ack_write_request.nstackwords,((_i.i2c_slave_callback_if._client_call_y.max.nstackwords $M ($D __interface_wait_and_yield.nstackwords ? __interface_wait_and_yield.nstackwords $: _i.i2c_slave_callback_if._client_call_y.max.nstackwords)) + 4)
	.globl	_i.i2c_slave_callback_if._chan.ack_write_request.nstackwords
	.weak	_i.i2c_slave_callback_if._chan.ack_write_request.nstackwords
	.set	_i.i2c_slave_callback_if._chan.ack_write_request.maxcores,($D __interface_wait_and_yield.maxcores ? __interface_wait_and_yield.maxcores $: _i.i2c_slave_callback_if._client_call_y.max.maxcores) $M 1
	.globl	_i.i2c_slave_callback_if._chan.ack_write_request.maxcores
	.weak	_i.i2c_slave_callback_if._chan.ack_write_request.maxcores
	.set	_i.i2c_slave_callback_if._chan.ack_write_request.maxtimers,($D __interface_wait_and_yield.maxtimers ? __interface_wait_and_yield.maxtimers $: _i.i2c_slave_callback_if._client_call_y.max.maxtimers) $M 0
	.globl	_i.i2c_slave_callback_if._chan.ack_write_request.maxtimers
	.weak	_i.i2c_slave_callback_if._chan.ack_write_request.maxtimers
	.set	_i.i2c_slave_callback_if._chan.ack_write_request.maxchanends,(1 + ($D __interface_wait_and_yield.maxchanends ? __interface_wait_and_yield.maxchanends $: _i.i2c_slave_callback_if._client_call_y.max.maxchanends)) $M 1
	.globl	_i.i2c_slave_callback_if._chan.ack_write_request.maxchanends
	.weak	_i.i2c_slave_callback_if._chan.ack_write_request.maxchanends
.Ltmp148:
	.size	_i.i2c_slave_callback_if._chan.ack_write_request, .Ltmp148-_i.i2c_slave_callback_if._chan.ack_write_request
	.cfi_endproc

	.weak	_i.i2c_slave_callback_if._chan.ack_read_request
	.align	4
	.type	_i.i2c_slave_callback_if._chan.ack_read_request,@function
	.cc_top _i.i2c_slave_callback_if._chan.ack_read_request.function,_i.i2c_slave_callback_if._chan.ack_read_request
_i.i2c_slave_callback_if._chan.ack_read_request: # @_i.i2c_slave_callback_if._chan.ack_read_request
	.cfi_startproc
	.issue_mode single
# BB#0:                                 # %allocas
	ENTSP_lu6 4
.Ltmp149:
	.cfi_def_cfa_offset 16
.Ltmp150:
	.cfi_offset 15, 0
	stw r4, sp[2]                   # 4-byte Folded Spill
.Ltmp151:
	.cfi_offset 4, -8
	#DEBUG_VALUE: _i.i2c_slave_callback_if._chan.ack_read_request:dest <- R0
	getr r4, 2
	setd res[r4], r0
	out res[r4], r4
	outct res[r4], 2
	ldc r1, 0
	mov r0, r4
	bl __interface_wait_and_yield
	in r0, res[r4]
	in r0, res[r4]
	chkct res[r4], 1
	freer res[r4]
	ldw r4, sp[2]                   # 4-byte Folded Reload
	retsp 4
	# RETURN_REG_HOLDER
	.cc_bottom _i.i2c_slave_callback_if._chan.ack_read_request.function
	.set	_i.i2c_slave_callback_if._chan.ack_read_request.nstackwords,((_i.i2c_slave_callback_if._client_call_y.max.nstackwords $M ($D __interface_wait_and_yield.nstackwords ? __interface_wait_and_yield.nstackwords $: _i.i2c_slave_callback_if._client_call_y.max.nstackwords)) + 4)
	.globl	_i.i2c_slave_callback_if._chan.ack_read_request.nstackwords
	.weak	_i.i2c_slave_callback_if._chan.ack_read_request.nstackwords
	.set	_i.i2c_slave_callback_if._chan.ack_read_request.maxcores,($D __interface_wait_and_yield.maxcores ? __interface_wait_and_yield.maxcores $: _i.i2c_slave_callback_if._client_call_y.max.maxcores) $M 1
	.globl	_i.i2c_slave_callback_if._chan.ack_read_request.maxcores
	.weak	_i.i2c_slave_callback_if._chan.ack_read_request.maxcores
	.set	_i.i2c_slave_callback_if._chan.ack_read_request.maxtimers,($D __interface_wait_and_yield.maxtimers ? __interface_wait_and_yield.maxtimers $: _i.i2c_slave_callback_if._client_call_y.max.maxtimers) $M 0
	.globl	_i.i2c_slave_callback_if._chan.ack_read_request.maxtimers
	.weak	_i.i2c_slave_callback_if._chan.ack_read_request.maxtimers
	.set	_i.i2c_slave_callback_if._chan.ack_read_request.maxchanends,(1 + ($D __interface_wait_and_yield.maxchanends ? __interface_wait_and_yield.maxchanends $: _i.i2c_slave_callback_if._client_call_y.max.maxchanends)) $M 1
	.globl	_i.i2c_slave_callback_if._chan.ack_read_request.maxchanends
	.weak	_i.i2c_slave_callback_if._chan.ack_read_request.maxchanends
.Ltmp152:
	.size	_i.i2c_slave_callback_if._chan.ack_read_request, .Ltmp152-_i.i2c_slave_callback_if._chan.ack_read_request
	.cfi_endproc

	.weak	_i.i2c_slave_callback_if._chan_yield.stop_bit
	.align	4
	.type	_i.i2c_slave_callback_if._chan_yield.stop_bit,@function
	.cc_top _i.i2c_slave_callback_if._chan_yield.stop_bit.function,_i.i2c_slave_callback_if._chan_yield.stop_bit
_i.i2c_slave_callback_if._chan_yield.stop_bit: # @_i.i2c_slave_callback_if._chan_yield.stop_bit
	.cfi_startproc
	.issue_mode single
# BB#0:                                 # %allocas
	ENTSP_lu6 4
.Ltmp153:
	.cfi_def_cfa_offset 16
.Ltmp154:
	.cfi_offset 15, 0
	std r5, r4, sp[1]               # 4-byte Folded Spill
.Ltmp155:
	.cfi_offset 4, -8
.Ltmp156:
	.cfi_offset 5, -4
	#DEBUG_VALUE: _i.i2c_slave_callback_if._chan_yield.stop_bit:s <- R0
	ldw r1, r0[0]
	getr r4, 2
	setd res[r4], r1
	add r1, r4, 4
	out res[r4], r1
	outct res[r4], 2
	ldw r5, r0[1]
	mov r0, r4
	mov r1, r5
	bl __interface_wait_and_yield
	ldc r1, 0
	mov r0, r4
	mov r2, r5
	bl __interface_client_call_y
	chkct res[r4], 1
	freer res[r4]
	ldd r5, r4, sp[1]               # 4-byte Folded Reload
	retsp 4
	# RETURN_REG_HOLDER
	.cc_bottom _i.i2c_slave_callback_if._chan_yield.stop_bit.function
	.set	_i.i2c_slave_callback_if._chan_yield.stop_bit.nstackwords,((($D __interface_wait_and_yield.nstackwords ? __interface_wait_and_yield.nstackwords $: _i.i2c_slave_callback_if._client_call_y.max.nstackwords) $M _i.i2c_slave_callback_if._client_call_y.max.nstackwords $M ($D __interface_client_call_y.nstackwords ? __interface_client_call_y.nstackwords $: _i.i2c_slave_callback_if._client_call_y.max.nstackwords)) + 4)
	.globl	_i.i2c_slave_callback_if._chan_yield.stop_bit.nstackwords
	.weak	_i.i2c_slave_callback_if._chan_yield.stop_bit.nstackwords
	.set	_i.i2c_slave_callback_if._chan_yield.stop_bit.maxcores,($D __interface_client_call_y.maxcores ? __interface_client_call_y.maxcores $: _i.i2c_slave_callback_if._client_call_y.max.maxcores) $M ($D __interface_wait_and_yield.maxcores ? __interface_wait_and_yield.maxcores $: _i.i2c_slave_callback_if._client_call_y.max.maxcores) $M 1
	.globl	_i.i2c_slave_callback_if._chan_yield.stop_bit.maxcores
	.weak	_i.i2c_slave_callback_if._chan_yield.stop_bit.maxcores
	.set	_i.i2c_slave_callback_if._chan_yield.stop_bit.maxtimers,($D __interface_client_call_y.maxtimers ? __interface_client_call_y.maxtimers $: _i.i2c_slave_callback_if._client_call_y.max.maxtimers) $M ($D __interface_wait_and_yield.maxtimers ? __interface_wait_and_yield.maxtimers $: _i.i2c_slave_callback_if._client_call_y.max.maxtimers) $M 0
	.globl	_i.i2c_slave_callback_if._chan_yield.stop_bit.maxtimers
	.weak	_i.i2c_slave_callback_if._chan_yield.stop_bit.maxtimers
	.set	_i.i2c_slave_callback_if._chan_yield.stop_bit.maxchanends,(1 + ($D __interface_client_call_y.maxchanends ? __interface_client_call_y.maxchanends $: _i.i2c_slave_callback_if._client_call_y.max.maxchanends)) $M (1 + ($D __interface_wait_and_yield.maxchanends ? __interface_wait_and_yield.maxchanends $: _i.i2c_slave_callback_if._client_call_y.max.maxchanends)) $M 1
	.globl	_i.i2c_slave_callback_if._chan_yield.stop_bit.maxchanends
	.weak	_i.i2c_slave_callback_if._chan_yield.stop_bit.maxchanends
.Ltmp157:
	.size	_i.i2c_slave_callback_if._chan_yield.stop_bit, .Ltmp157-_i.i2c_slave_callback_if._chan_yield.stop_bit
	.cfi_endproc

	.weak	_i.i2c_slave_callback_if._chan_yield.master_sent_data
	.align	4
	.type	_i.i2c_slave_callback_if._chan_yield.master_sent_data,@function
	.cc_top _i.i2c_slave_callback_if._chan_yield.master_sent_data.function,_i.i2c_slave_callback_if._chan_yield.master_sent_data
_i.i2c_slave_callback_if._chan_yield.master_sent_data: # @_i.i2c_slave_callback_if._chan_yield.master_sent_data
	.cfi_startproc
	.issue_mode single
# BB#0:                                 # %allocas
	ENTSP_lu6 6
.Ltmp158:
	.cfi_def_cfa_offset 24
.Ltmp159:
	.cfi_offset 15, 0
	std r5, r4, sp[1]               # 4-byte Folded Spill
.Ltmp160:
	.cfi_offset 4, -16
.Ltmp161:
	.cfi_offset 5, -12
	stw r6, sp[4]                   # 4-byte Folded Spill
.Ltmp162:
	.cfi_offset 6, -8
	#DEBUG_VALUE: _i.i2c_slave_callback_if._chan_yield.master_sent_data:s <- R0
	#DEBUG_VALUE: _i.i2c_slave_callback_if._chan_yield.master_sent_data:param1 <- R1
	mov r4, r1
	#DEBUG_VALUE: _i.i2c_slave_callback_if._chan_yield.master_sent_data:param1 <- R4
	ldw r1, r0[0]
	getr r5, 2
	setd res[r5], r1
	add r1, r5, 3
	out res[r5], r1
	outct res[r5], 2
	ldw r6, r0[1]
	mov r0, r5
	mov r1, r6
	bl __interface_wait_and_yield
	chkct res[r5], 1
	outt res[r5], r4
	outct res[r5], 2
	ldc r1, 0
	mov r0, r5
	mov r2, r6
	bl __interface_client_call_y
	in r0, res[r5]
	chkct res[r5], 1
	freer res[r5]
	ldw r6, sp[4]                   # 4-byte Folded Reload
	ldd r5, r4, sp[1]               # 4-byte Folded Reload
	retsp 6
	# RETURN_REG_HOLDER
	.cc_bottom _i.i2c_slave_callback_if._chan_yield.master_sent_data.function
	.set	_i.i2c_slave_callback_if._chan_yield.master_sent_data.nstackwords,((($D __interface_wait_and_yield.nstackwords ? __interface_wait_and_yield.nstackwords $: _i.i2c_slave_callback_if._client_call_y.max.nstackwords) $M _i.i2c_slave_callback_if._client_call_y.max.nstackwords $M ($D __interface_client_call_y.nstackwords ? __interface_client_call_y.nstackwords $: _i.i2c_slave_callback_if._client_call_y.max.nstackwords)) + 6)
	.globl	_i.i2c_slave_callback_if._chan_yield.master_sent_data.nstackwords
	.weak	_i.i2c_slave_callback_if._chan_yield.master_sent_data.nstackwords
	.set	_i.i2c_slave_callback_if._chan_yield.master_sent_data.maxcores,($D __interface_client_call_y.maxcores ? __interface_client_call_y.maxcores $: _i.i2c_slave_callback_if._client_call_y.max.maxcores) $M ($D __interface_wait_and_yield.maxcores ? __interface_wait_and_yield.maxcores $: _i.i2c_slave_callback_if._client_call_y.max.maxcores) $M 1
	.globl	_i.i2c_slave_callback_if._chan_yield.master_sent_data.maxcores
	.weak	_i.i2c_slave_callback_if._chan_yield.master_sent_data.maxcores
	.set	_i.i2c_slave_callback_if._chan_yield.master_sent_data.maxtimers,($D __interface_client_call_y.maxtimers ? __interface_client_call_y.maxtimers $: _i.i2c_slave_callback_if._client_call_y.max.maxtimers) $M ($D __interface_wait_and_yield.maxtimers ? __interface_wait_and_yield.maxtimers $: _i.i2c_slave_callback_if._client_call_y.max.maxtimers) $M 0
	.globl	_i.i2c_slave_callback_if._chan_yield.master_sent_data.maxtimers
	.weak	_i.i2c_slave_callback_if._chan_yield.master_sent_data.maxtimers
	.set	_i.i2c_slave_callback_if._chan_yield.master_sent_data.maxchanends,(1 + ($D __interface_client_call_y.maxchanends ? __interface_client_call_y.maxchanends $: _i.i2c_slave_callback_if._client_call_y.max.maxchanends)) $M (1 + ($D __interface_wait_and_yield.maxchanends ? __interface_wait_and_yield.maxchanends $: _i.i2c_slave_callback_if._client_call_y.max.maxchanends)) $M 1
	.globl	_i.i2c_slave_callback_if._chan_yield.master_sent_data.maxchanends
	.weak	_i.i2c_slave_callback_if._chan_yield.master_sent_data.maxchanends
.Ltmp163:
	.size	_i.i2c_slave_callback_if._chan_yield.master_sent_data, .Ltmp163-_i.i2c_slave_callback_if._chan_yield.master_sent_data
	.cfi_endproc

	.weak	_i.i2c_slave_callback_if._chan_yield.master_requires_data
	.align	4
	.type	_i.i2c_slave_callback_if._chan_yield.master_requires_data,@function
	.cc_top _i.i2c_slave_callback_if._chan_yield.master_requires_data.function,_i.i2c_slave_callback_if._chan_yield.master_requires_data
_i.i2c_slave_callback_if._chan_yield.master_requires_data: # @_i.i2c_slave_callback_if._chan_yield.master_requires_data
	.cfi_startproc
	.issue_mode single
# BB#0:                                 # %allocas
	ENTSP_lu6 4
.Ltmp164:
	.cfi_def_cfa_offset 16
.Ltmp165:
	.cfi_offset 15, 0
	std r5, r4, sp[1]               # 4-byte Folded Spill
.Ltmp166:
	.cfi_offset 4, -8
.Ltmp167:
	.cfi_offset 5, -4
	#DEBUG_VALUE: _i.i2c_slave_callback_if._chan_yield.master_requires_data:s <- R0
	ldw r1, r0[0]
	getr r4, 2
	setd res[r4], r1
	add r1, r4, 2
	out res[r4], r1
	outct res[r4], 2
	ldw r5, r0[1]
	mov r0, r4
	mov r1, r5
	bl __interface_wait_and_yield
	ldc r1, 0
	mov r0, r4
	mov r2, r5
	bl __interface_client_call_y
	int r0, res[r4]
	chkct res[r4], 1
	freer res[r4]
	ldd r5, r4, sp[1]               # 4-byte Folded Reload
	retsp 4
	# RETURN_REG_HOLDER
	.cc_bottom _i.i2c_slave_callback_if._chan_yield.master_requires_data.function
	.set	_i.i2c_slave_callback_if._chan_yield.master_requires_data.nstackwords,((($D __interface_wait_and_yield.nstackwords ? __interface_wait_and_yield.nstackwords $: _i.i2c_slave_callback_if._client_call_y.max.nstackwords) $M _i.i2c_slave_callback_if._client_call_y.max.nstackwords $M ($D __interface_client_call_y.nstackwords ? __interface_client_call_y.nstackwords $: _i.i2c_slave_callback_if._client_call_y.max.nstackwords)) + 4)
	.globl	_i.i2c_slave_callback_if._chan_yield.master_requires_data.nstackwords
	.weak	_i.i2c_slave_callback_if._chan_yield.master_requires_data.nstackwords
	.set	_i.i2c_slave_callback_if._chan_yield.master_requires_data.maxcores,($D __interface_client_call_y.maxcores ? __interface_client_call_y.maxcores $: _i.i2c_slave_callback_if._client_call_y.max.maxcores) $M ($D __interface_wait_and_yield.maxcores ? __interface_wait_and_yield.maxcores $: _i.i2c_slave_callback_if._client_call_y.max.maxcores) $M 1
	.globl	_i.i2c_slave_callback_if._chan_yield.master_requires_data.maxcores
	.weak	_i.i2c_slave_callback_if._chan_yield.master_requires_data.maxcores
	.set	_i.i2c_slave_callback_if._chan_yield.master_requires_data.maxtimers,($D __interface_client_call_y.maxtimers ? __interface_client_call_y.maxtimers $: _i.i2c_slave_callback_if._client_call_y.max.maxtimers) $M ($D __interface_wait_and_yield.maxtimers ? __interface_wait_and_yield.maxtimers $: _i.i2c_slave_callback_if._client_call_y.max.maxtimers) $M 0
	.globl	_i.i2c_slave_callback_if._chan_yield.master_requires_data.maxtimers
	.weak	_i.i2c_slave_callback_if._chan_yield.master_requires_data.maxtimers
	.set	_i.i2c_slave_callback_if._chan_yield.master_requires_data.maxchanends,(1 + ($D __interface_client_call_y.maxchanends ? __interface_client_call_y.maxchanends $: _i.i2c_slave_callback_if._client_call_y.max.maxchanends)) $M (1 + ($D __interface_wait_and_yield.maxchanends ? __interface_wait_and_yield.maxchanends $: _i.i2c_slave_callback_if._client_call_y.max.maxchanends)) $M 1
	.globl	_i.i2c_slave_callback_if._chan_yield.master_requires_data.maxchanends
	.weak	_i.i2c_slave_callback_if._chan_yield.master_requires_data.maxchanends
.Ltmp168:
	.size	_i.i2c_slave_callback_if._chan_yield.master_requires_data, .Ltmp168-_i.i2c_slave_callback_if._chan_yield.master_requires_data
	.cfi_endproc

	.weak	_i.i2c_slave_callback_if._chan_yield.ack_write_request
	.align	4
	.type	_i.i2c_slave_callback_if._chan_yield.ack_write_request,@function
	.cc_top _i.i2c_slave_callback_if._chan_yield.ack_write_request.function,_i.i2c_slave_callback_if._chan_yield.ack_write_request
_i.i2c_slave_callback_if._chan_yield.ack_write_request: # @_i.i2c_slave_callback_if._chan_yield.ack_write_request
	.cfi_startproc
	.issue_mode single
# BB#0:                                 # %allocas
	ENTSP_lu6 4
.Ltmp169:
	.cfi_def_cfa_offset 16
.Ltmp170:
	.cfi_offset 15, 0
	std r5, r4, sp[1]               # 4-byte Folded Spill
.Ltmp171:
	.cfi_offset 4, -8
.Ltmp172:
	.cfi_offset 5, -4
	#DEBUG_VALUE: _i.i2c_slave_callback_if._chan_yield.ack_write_request:s <- R0
	ldw r1, r0[0]
	getr r4, 2
	setd res[r4], r1
	add r1, r4, 1
	out res[r4], r1
	outct res[r4], 2
	ldw r5, r0[1]
	mov r0, r4
	mov r1, r5
	bl __interface_wait_and_yield
	ldc r1, 0
	mov r0, r4
	mov r2, r5
	bl __interface_client_call_y
	in r0, res[r4]
	chkct res[r4], 1
	freer res[r4]
	ldd r5, r4, sp[1]               # 4-byte Folded Reload
	retsp 4
	# RETURN_REG_HOLDER
	.cc_bottom _i.i2c_slave_callback_if._chan_yield.ack_write_request.function
	.set	_i.i2c_slave_callback_if._chan_yield.ack_write_request.nstackwords,((($D __interface_wait_and_yield.nstackwords ? __interface_wait_and_yield.nstackwords $: _i.i2c_slave_callback_if._client_call_y.max.nstackwords) $M _i.i2c_slave_callback_if._client_call_y.max.nstackwords $M ($D __interface_client_call_y.nstackwords ? __interface_client_call_y.nstackwords $: _i.i2c_slave_callback_if._client_call_y.max.nstackwords)) + 4)
	.globl	_i.i2c_slave_callback_if._chan_yield.ack_write_request.nstackwords
	.weak	_i.i2c_slave_callback_if._chan_yield.ack_write_request.nstackwords
	.set	_i.i2c_slave_callback_if._chan_yield.ack_write_request.maxcores,($D __interface_client_call_y.maxcores ? __interface_client_call_y.maxcores $: _i.i2c_slave_callback_if._client_call_y.max.maxcores) $M ($D __interface_wait_and_yield.maxcores ? __interface_wait_and_yield.maxcores $: _i.i2c_slave_callback_if._client_call_y.max.maxcores) $M 1
	.globl	_i.i2c_slave_callback_if._chan_yield.ack_write_request.maxcores
	.weak	_i.i2c_slave_callback_if._chan_yield.ack_write_request.maxcores
	.set	_i.i2c_slave_callback_if._chan_yield.ack_write_request.maxtimers,($D __interface_client_call_y.maxtimers ? __interface_client_call_y.maxtimers $: _i.i2c_slave_callback_if._client_call_y.max.maxtimers) $M ($D __interface_wait_and_yield.maxtimers ? __interface_wait_and_yield.maxtimers $: _i.i2c_slave_callback_if._client_call_y.max.maxtimers) $M 0
	.globl	_i.i2c_slave_callback_if._chan_yield.ack_write_request.maxtimers
	.weak	_i.i2c_slave_callback_if._chan_yield.ack_write_request.maxtimers
	.set	_i.i2c_slave_callback_if._chan_yield.ack_write_request.maxchanends,(1 + ($D __interface_client_call_y.maxchanends ? __interface_client_call_y.maxchanends $: _i.i2c_slave_callback_if._client_call_y.max.maxchanends)) $M (1 + ($D __interface_wait_and_yield.maxchanends ? __interface_wait_and_yield.maxchanends $: _i.i2c_slave_callback_if._client_call_y.max.maxchanends)) $M 1
	.globl	_i.i2c_slave_callback_if._chan_yield.ack_write_request.maxchanends
	.weak	_i.i2c_slave_callback_if._chan_yield.ack_write_request.maxchanends
.Ltmp173:
	.size	_i.i2c_slave_callback_if._chan_yield.ack_write_request, .Ltmp173-_i.i2c_slave_callback_if._chan_yield.ack_write_request
	.cfi_endproc

	.weak	_i.i2c_slave_callback_if._chan_yield.ack_read_request
	.align	4
	.type	_i.i2c_slave_callback_if._chan_yield.ack_read_request,@function
	.cc_top _i.i2c_slave_callback_if._chan_yield.ack_read_request.function,_i.i2c_slave_callback_if._chan_yield.ack_read_request
_i.i2c_slave_callback_if._chan_yield.ack_read_request: # @_i.i2c_slave_callback_if._chan_yield.ack_read_request
	.cfi_startproc
	.issue_mode single
# BB#0:                                 # %allocas
	ENTSP_lu6 4
.Ltmp174:
	.cfi_def_cfa_offset 16
.Ltmp175:
	.cfi_offset 15, 0
	std r5, r4, sp[1]               # 4-byte Folded Spill
.Ltmp176:
	.cfi_offset 4, -8
.Ltmp177:
	.cfi_offset 5, -4
	#DEBUG_VALUE: _i.i2c_slave_callback_if._chan_yield.ack_read_request:s <- R0
	ldw r1, r0[0]
	getr r4, 2
	setd res[r4], r1
	out res[r4], r4
	outct res[r4], 2
	ldw r5, r0[1]
	mov r0, r4
	mov r1, r5
	bl __interface_wait_and_yield
	ldc r1, 0
	mov r0, r4
	mov r2, r5
	bl __interface_client_call_y
	in r0, res[r4]
	chkct res[r4], 1
	freer res[r4]
	ldd r5, r4, sp[1]               # 4-byte Folded Reload
	retsp 4
	# RETURN_REG_HOLDER
	.cc_bottom _i.i2c_slave_callback_if._chan_yield.ack_read_request.function
	.set	_i.i2c_slave_callback_if._chan_yield.ack_read_request.nstackwords,((($D __interface_wait_and_yield.nstackwords ? __interface_wait_and_yield.nstackwords $: _i.i2c_slave_callback_if._client_call_y.max.nstackwords) $M _i.i2c_slave_callback_if._client_call_y.max.nstackwords $M ($D __interface_client_call_y.nstackwords ? __interface_client_call_y.nstackwords $: _i.i2c_slave_callback_if._client_call_y.max.nstackwords)) + 4)
	.globl	_i.i2c_slave_callback_if._chan_yield.ack_read_request.nstackwords
	.weak	_i.i2c_slave_callback_if._chan_yield.ack_read_request.nstackwords
	.set	_i.i2c_slave_callback_if._chan_yield.ack_read_request.maxcores,($D __interface_client_call_y.maxcores ? __interface_client_call_y.maxcores $: _i.i2c_slave_callback_if._client_call_y.max.maxcores) $M ($D __interface_wait_and_yield.maxcores ? __interface_wait_and_yield.maxcores $: _i.i2c_slave_callback_if._client_call_y.max.maxcores) $M 1
	.globl	_i.i2c_slave_callback_if._chan_yield.ack_read_request.maxcores
	.weak	_i.i2c_slave_callback_if._chan_yield.ack_read_request.maxcores
	.set	_i.i2c_slave_callback_if._chan_yield.ack_read_request.maxtimers,($D __interface_client_call_y.maxtimers ? __interface_client_call_y.maxtimers $: _i.i2c_slave_callback_if._client_call_y.max.maxtimers) $M ($D __interface_wait_and_yield.maxtimers ? __interface_wait_and_yield.maxtimers $: _i.i2c_slave_callback_if._client_call_y.max.maxtimers) $M 0
	.globl	_i.i2c_slave_callback_if._chan_yield.ack_read_request.maxtimers
	.weak	_i.i2c_slave_callback_if._chan_yield.ack_read_request.maxtimers
	.set	_i.i2c_slave_callback_if._chan_yield.ack_read_request.maxchanends,(1 + ($D __interface_client_call_y.maxchanends ? __interface_client_call_y.maxchanends $: _i.i2c_slave_callback_if._client_call_y.max.maxchanends)) $M (1 + ($D __interface_wait_and_yield.maxchanends ? __interface_wait_and_yield.maxchanends $: _i.i2c_slave_callback_if._client_call_y.max.maxchanends)) $M 1
	.globl	_i.i2c_slave_callback_if._chan_yield.ack_read_request.maxchanends
	.weak	_i.i2c_slave_callback_if._chan_yield.ack_read_request.maxchanends
.Ltmp178:
	.size	_i.i2c_slave_callback_if._chan_yield.ack_read_request, .Ltmp178-_i.i2c_slave_callback_if._chan_yield.ack_read_request
	.cfi_endproc

	.globl	__i_i2c_master_if_read_reg
	.align	4
	.type	__i_i2c_master_if_read_reg,@function
	.cc_top __i_i2c_master_if_read_reg.function,__i_i2c_master_if_read_reg
__i_i2c_master_if_read_reg:             # @__i_i2c_master_if_read_reg
.Lfunc_begin30:
	.loc	1 120 0                 # /home/evgeny/git/104/UI-01_sw1_hw1/lib_i2c/api/i2c.h:120:0
	.cfi_startproc
	.issue_mode single
# BB#0:                                 # %allocas
.Lxtalabel0:
	ENTSP_lu6 12
.Ltmp179:
	.cfi_def_cfa_offset 48
.Ltmp180:
	.cfi_offset 15, 0
	std r5, r4, sp[3]               # 4-byte Folded Spill
.Ltmp181:
	.cfi_offset 4, -24
.Ltmp182:
	.cfi_offset 5, -20
	std r7, r6, sp[4]               # 4-byte Folded Spill
.Ltmp183:
	.cfi_offset 6, -16
.Ltmp184:
	.cfi_offset 7, -12
	std r9, r8, sp[5]               # 4-byte Folded Spill
.Ltmp185:
	.cfi_offset 8, -8
.Ltmp186:
	.cfi_offset 9, -4
	#DEBUG_VALUE: read_reg:i <- R0
	#DEBUG_VALUE: read_reg:device_addr <- R1
	#DEBUG_VALUE: read_reg:reg <- R2
	#DEBUG_VALUE: read_reg:result <- R3
	mov r4, r3
.Ltmp187:
	#DEBUG_VALUE: read_reg:result <- R4
	mov r7, r1
.Ltmp188:
	#DEBUG_VALUE: read_reg:device_addr <- R7
	mov r8, r0
.Ltmp189:
	#DEBUG_VALUE: read_reg:i <- R8
	.loc	1 122 0 prologue_end    # /home/evgeny/git/104/UI-01_sw1_hw1/lib_i2c/api/i2c.h:122:0
	ldc r6, 0
	ldaw r3, sp[5]
.Ltmp190:
	.loc	1 121 0                 # /home/evgeny/git/104/UI-01_sw1_hw1/lib_i2c/api/i2c.h:121:0
	st8 r2, r3[r6]
	ldaw r5, sp[4]
	.loc	1 122 0                 # /home/evgeny/git/104/UI-01_sw1_hw1/lib_i2c/api/i2c.h:122:0
.Ltmp191:
	st8 r6, r5[r6]
	.loc	1 125 0                 # /home/evgeny/git/104/UI-01_sw1_hw1/lib_i2c/api/i2c.h:125:0
.Ltmp192:
	ldw r0, r8[0]
	.loc	1 125 0                 # /home/evgeny/git/104/UI-01_sw1_hw1/lib_i2c/api/i2c.h:125:0
	ldw r1, r8[1]
	.loc	1 125 0                 # /home/evgeny/git/104/UI-01_sw1_hw1/lib_i2c/api/i2c.h:125:0
	ldw r11, r1[0]
	.loc	1 125 0                 # /home/evgeny/git/104/UI-01_sw1_hw1/lib_i2c/api/i2c.h:125:0
	stw r6, sp[2]
	ldaw r1, sp[3]
.Ltmp193:
	#DEBUG_VALUE: n <- [R1+0]
	stw r1, sp[1]
	mkmsk r9, 1
	mov r1, r7
.Ltmp194:
	mov r2, r3
.Ltmp195:
	mov r3, r9
.Lxta.call_labels0:
	bla r11
	.loc	1 126 5                 # /home/evgeny/git/104/UI-01_sw1_hw1/lib_i2c/api/i2c.h:126:5
	ldw r0, sp[3]
	.loc	1 126 5                 # /home/evgeny/git/104/UI-01_sw1_hw1/lib_i2c/api/i2c.h:126:5
	eq r0, r0, 1
	.loc	1 126 5                 # /home/evgeny/git/104/UI-01_sw1_hw1/lib_i2c/api/i2c.h:126:5
	bf r0, .LBB30_1
.Ltmp196:
# BB#2:                                 # %ifdone
.Lxtalabel1:
	#DEBUG_VALUE: read_reg:i <- R8
	#DEBUG_VALUE: read_reg:device_addr <- R7
	#DEBUG_VALUE: read_reg:result <- R4
	.loc	1 131 0                 # /home/evgeny/git/104/UI-01_sw1_hw1/lib_i2c/api/i2c.h:131:0
	ldw r0, r8[0]
	.loc	1 131 0                 # /home/evgeny/git/104/UI-01_sw1_hw1/lib_i2c/api/i2c.h:131:0
	ldw r1, r8[1]
	.loc	1 131 0                 # /home/evgeny/git/104/UI-01_sw1_hw1/lib_i2c/api/i2c.h:131:0
	ldw r11, r1[1]
	.loc	1 131 0                 # /home/evgeny/git/104/UI-01_sw1_hw1/lib_i2c/api/i2c.h:131:0
	stw r9, sp[1]
	mov r1, r7
	mov r2, r5
	mov r3, r9
.Lxta.call_labels1:
	bla r11
.Ltmp197:
	#DEBUG_VALUE: res <- R0
	.loc	1 133 0                 # /home/evgeny/git/104/UI-01_sw1_hw1/lib_i2c/api/i2c.h:133:0
	eq r0, r0, 1
.Ltmp198:
	eq r0, r0, 0
	.loc	1 135 0                 # /home/evgeny/git/104/UI-01_sw1_hw1/lib_i2c/api/i2c.h:135:0
	stw r0, r4[0]
	.loc	1 137 5                 # /home/evgeny/git/104/UI-01_sw1_hw1/lib_i2c/api/i2c.h:137:5
	ldc r0, 0
	ld8u r6, r5[r0]
	bu .LBB30_3
.Ltmp199:
.LBB30_1:                               # %iftrue
.Lxtalabel2:
	#DEBUG_VALUE: read_reg:i <- R8
	#DEBUG_VALUE: read_reg:result <- R4
	.loc	1 127 0                 # /home/evgeny/git/104/UI-01_sw1_hw1/lib_i2c/api/i2c.h:127:0
	stw r9, r4[0]
	.loc	1 128 0                 # /home/evgeny/git/104/UI-01_sw1_hw1/lib_i2c/api/i2c.h:128:0
	ldw r0, r8[0]
	.loc	1 128 0                 # /home/evgeny/git/104/UI-01_sw1_hw1/lib_i2c/api/i2c.h:128:0
	ldw r1, r8[1]
	.loc	1 128 0                 # /home/evgeny/git/104/UI-01_sw1_hw1/lib_i2c/api/i2c.h:128:0
	ldw r1, r1[2]
	.loc	1 128 0                 # /home/evgeny/git/104/UI-01_sw1_hw1/lib_i2c/api/i2c.h:128:0
.Lxta.call_labels2:
	bla r1
.Ltmp200:
.LBB30_3:                               # %return
	mov r0, r6
	ldd r9, r8, sp[5]               # 4-byte Folded Reload
	ldd r7, r6, sp[4]               # 4-byte Folded Reload
	ldd r5, r4, sp[3]               # 4-byte Folded Reload
	retsp 12
	# RETURN_REG_HOLDER
	.cc_bottom __i_i2c_master_if_read_reg.function
	.set	__i_i2c_master_if_read_reg.nstackwords,((_i.i2c_master_if.write.max.nstackwords $M _i.i2c_master_if.read.max.nstackwords $M _i.i2c_master_if.send_stop_bit.max.nstackwords) + 12)
	.globl	__i_i2c_master_if_read_reg.nstackwords
	.set	__i_i2c_master_if_read_reg.maxcores,_i.i2c_master_if.read.max.maxcores $M _i.i2c_master_if.send_stop_bit.max.maxcores $M _i.i2c_master_if.write.max.maxcores $M 1
	.globl	__i_i2c_master_if_read_reg.maxcores
	.set	__i_i2c_master_if_read_reg.maxtimers,_i.i2c_master_if.read.max.maxtimers $M _i.i2c_master_if.send_stop_bit.max.maxtimers $M _i.i2c_master_if.write.max.maxtimers $M 0
	.globl	__i_i2c_master_if_read_reg.maxtimers
	.set	__i_i2c_master_if_read_reg.maxchanends,_i.i2c_master_if.read.max.maxchanends $M _i.i2c_master_if.send_stop_bit.max.maxchanends $M _i.i2c_master_if.write.max.maxchanends $M 0
	.globl	__i_i2c_master_if_read_reg.maxchanends
.Ltmp201:
	.size	__i_i2c_master_if_read_reg, .Ltmp201-__i_i2c_master_if_read_reg
.Lfunc_end30:
	.cfi_endproc

	.globl	__i_i2c_master_if_write_reg
	.align	4
	.type	__i_i2c_master_if_write_reg,@function
	.cc_top __i_i2c_master_if_write_reg.function,__i_i2c_master_if_write_reg
__i_i2c_master_if_write_reg:            # @__i_i2c_master_if_write_reg
.Lfunc_begin31:
	.loc	1 154 0                 # /home/evgeny/git/104/UI-01_sw1_hw1/lib_i2c/api/i2c.h:154:0
	.cfi_startproc
	.issue_mode single
# BB#0:                                 # %allocas
.Lxtalabel3:
	ENTSP_lu6 10
.Ltmp202:
	.cfi_def_cfa_offset 40
.Ltmp203:
	.cfi_offset 15, 0
	std r5, r4, sp[3]               # 4-byte Folded Spill
.Ltmp204:
	.cfi_offset 4, -16
.Ltmp205:
	.cfi_offset 5, -12
	stw r6, sp[8]                   # 4-byte Folded Spill
.Ltmp206:
	.cfi_offset 6, -8
	#DEBUG_VALUE: write_reg:i <- R0
	#DEBUG_VALUE: write_reg:device_addr <- R1
	#DEBUG_VALUE: write_reg:reg <- R2
	#DEBUG_VALUE: write_reg:data <- R3
	.loc	1 155 0 prologue_end    # /home/evgeny/git/104/UI-01_sw1_hw1/lib_i2c/api/i2c.h:155:0
.Ltmp207:
	ldc r5, 0
	ldaw r11, sp[5]
	.loc	1 155 0                 # /home/evgeny/git/104/UI-01_sw1_hw1/lib_i2c/api/i2c.h:155:0
	st8 r2, r11[r5]
	mkmsk r4, 1
	.loc	1 155 0                 # /home/evgeny/git/104/UI-01_sw1_hw1/lib_i2c/api/i2c.h:155:0
	or r2, r11, r4
.Ltmp208:
	.loc	1 155 0                 # /home/evgeny/git/104/UI-01_sw1_hw1/lib_i2c/api/i2c.h:155:0
	st8 r3, r2[r5]
	.loc	1 157 0                 # /home/evgeny/git/104/UI-01_sw1_hw1/lib_i2c/api/i2c.h:157:0
.Ltmp209:
	ldw r2, r0[0]
	.loc	1 157 0                 # /home/evgeny/git/104/UI-01_sw1_hw1/lib_i2c/api/i2c.h:157:0
	ldw r0, r0[1]
.Ltmp210:
	.loc	1 157 0                 # /home/evgeny/git/104/UI-01_sw1_hw1/lib_i2c/api/i2c.h:157:0
	ldw r6, r0[0]
	.loc	1 157 0                 # /home/evgeny/git/104/UI-01_sw1_hw1/lib_i2c/api/i2c.h:157:0
	stw r4, sp[2]
	ldaw r0, sp[4]
.Ltmp211:
	#DEBUG_VALUE: n <- [R0+0]
	stw r0, sp[1]
	ldc r5, 2
	mov r0, r2
.Ltmp212:
	mov r2, r11
	mov r3, r5
.Ltmp213:
.Lxta.call_labels3:
	bla r6
.Ltmp214:
	.loc	1 158 5                 # /home/evgeny/git/104/UI-01_sw1_hw1/lib_i2c/api/i2c.h:158:5
	ldw r0, sp[4]
	bf r0, .LBB31_2
# BB#1:                                 # %ifdone
.Lxtalabel4:
	.loc	1 161 5                 # /home/evgeny/git/104/UI-01_sw1_hw1/lib_i2c/api/i2c.h:161:5
	lsu r0, r0, r5
	.loc	1 162 7                 # /home/evgeny/git/104/UI-01_sw1_hw1/lib_i2c/api/i2c.h:162:7
	shl r4, r0, 1
.Ltmp215:
.LBB31_2:                               # %return
	mov r0, r4
	ldw r6, sp[8]                   # 4-byte Folded Reload
	ldd r5, r4, sp[3]               # 4-byte Folded Reload
	retsp 10
	# RETURN_REG_HOLDER
	.cc_bottom __i_i2c_master_if_write_reg.function
	.set	__i_i2c_master_if_write_reg.nstackwords,(_i.i2c_master_if.write.max.nstackwords + 10)
	.globl	__i_i2c_master_if_write_reg.nstackwords
	.set	__i_i2c_master_if_write_reg.maxcores,_i.i2c_master_if.write.max.maxcores $M 1
	.globl	__i_i2c_master_if_write_reg.maxcores
	.set	__i_i2c_master_if_write_reg.maxtimers,_i.i2c_master_if.write.max.maxtimers $M 0
	.globl	__i_i2c_master_if_write_reg.maxtimers
	.set	__i_i2c_master_if_write_reg.maxchanends,_i.i2c_master_if.write.max.maxchanends $M 0
	.globl	__i_i2c_master_if_write_reg.maxchanends
.Ltmp216:
	.size	__i_i2c_master_if_write_reg, .Ltmp216-__i_i2c_master_if_write_reg
.Lfunc_end31:
	.cfi_endproc

	.globl	__i_i2c_master_if_read_reg8_addr16
	.align	4
	.type	__i_i2c_master_if_read_reg8_addr16,@function
	.cc_top __i_i2c_master_if_read_reg8_addr16.function,__i_i2c_master_if_read_reg8_addr16
__i_i2c_master_if_read_reg8_addr16:     # @__i_i2c_master_if_read_reg8_addr16
.Lfunc_begin32:
	.loc	1 191 0                 # /home/evgeny/git/104/UI-01_sw1_hw1/lib_i2c/api/i2c.h:191:0
	.cfi_startproc
	.issue_mode single
# BB#0:                                 # %allocas
.Lxtalabel5:
	ENTSP_lu6 12
.Ltmp217:
	.cfi_def_cfa_offset 48
.Ltmp218:
	.cfi_offset 15, 0
	std r5, r4, sp[3]               # 4-byte Folded Spill
.Ltmp219:
	.cfi_offset 4, -24
.Ltmp220:
	.cfi_offset 5, -20
	std r7, r6, sp[4]               # 4-byte Folded Spill
.Ltmp221:
	.cfi_offset 6, -16
.Ltmp222:
	.cfi_offset 7, -12
	std r9, r8, sp[5]               # 4-byte Folded Spill
.Ltmp223:
	.cfi_offset 8, -8
.Ltmp224:
	.cfi_offset 9, -4
	#DEBUG_VALUE: read_reg8_addr16:i <- R0
	#DEBUG_VALUE: read_reg8_addr16:device_addr <- R1
	#DEBUG_VALUE: read_reg8_addr16:reg <- R2
	#DEBUG_VALUE: read_reg8_addr16:result <- R3
	mov r4, r3
.Ltmp225:
	#DEBUG_VALUE: read_reg8_addr16:result <- R4
	mov r6, r1
.Ltmp226:
	#DEBUG_VALUE: read_reg8_addr16:device_addr <- R6
	mov r8, r0
.Ltmp227:
	#DEBUG_VALUE: read_reg8_addr16:i <- R8
	.loc	1 192 0 prologue_end    # /home/evgeny/git/104/UI-01_sw1_hw1/lib_i2c/api/i2c.h:192:0
	shr r0, r2, 8
	.loc	1 192 0                 # /home/evgeny/git/104/UI-01_sw1_hw1/lib_i2c/api/i2c.h:192:0
	ldc r5, 0
	ldaw r11, sp[5]
	.loc	1 192 0                 # /home/evgeny/git/104/UI-01_sw1_hw1/lib_i2c/api/i2c.h:192:0
	st8 r0, r11[r5]
	mkmsk r7, 1
	.loc	1 192 0                 # /home/evgeny/git/104/UI-01_sw1_hw1/lib_i2c/api/i2c.h:192:0
	or r0, r11, r7
	.loc	1 192 0                 # /home/evgeny/git/104/UI-01_sw1_hw1/lib_i2c/api/i2c.h:192:0
	st8 r2, r0[r5]
	.loc	1 196 0                 # /home/evgeny/git/104/UI-01_sw1_hw1/lib_i2c/api/i2c.h:196:0
.Ltmp228:
	ldw r0, r8[0]
	.loc	1 196 0                 # /home/evgeny/git/104/UI-01_sw1_hw1/lib_i2c/api/i2c.h:196:0
	ldw r1, r8[1]
	.loc	1 196 0                 # /home/evgeny/git/104/UI-01_sw1_hw1/lib_i2c/api/i2c.h:196:0
	ldw r9, r1[0]
	.loc	1 196 0                 # /home/evgeny/git/104/UI-01_sw1_hw1/lib_i2c/api/i2c.h:196:0
	stw r5, sp[2]
	ldaw r1, sp[3]
.Ltmp229:
	#DEBUG_VALUE: n <- [R1+0]
	stw r1, sp[1]
	ldc r3, 2
	mov r1, r6
.Ltmp230:
	mov r2, r11
.Ltmp231:
.Lxta.call_labels4:
	bla r9
	.loc	1 197 5                 # /home/evgeny/git/104/UI-01_sw1_hw1/lib_i2c/api/i2c.h:197:5
	ldw r0, sp[3]
	.loc	1 197 5                 # /home/evgeny/git/104/UI-01_sw1_hw1/lib_i2c/api/i2c.h:197:5
	eq r0, r0, 2
	.loc	1 197 5                 # /home/evgeny/git/104/UI-01_sw1_hw1/lib_i2c/api/i2c.h:197:5
	bf r0, .LBB32_1
.Ltmp232:
# BB#2:                                 # %ifdone
.Lxtalabel6:
	#DEBUG_VALUE: read_reg8_addr16:i <- R8
	#DEBUG_VALUE: read_reg8_addr16:device_addr <- R6
	#DEBUG_VALUE: read_reg8_addr16:result <- R4
	.loc	1 202 0                 # /home/evgeny/git/104/UI-01_sw1_hw1/lib_i2c/api/i2c.h:202:0
	ldw r0, r8[0]
	.loc	1 202 0                 # /home/evgeny/git/104/UI-01_sw1_hw1/lib_i2c/api/i2c.h:202:0
	ldw r1, r8[1]
	.loc	1 202 0                 # /home/evgeny/git/104/UI-01_sw1_hw1/lib_i2c/api/i2c.h:202:0
	ldw r11, r1[1]
	.loc	1 202 0                 # /home/evgeny/git/104/UI-01_sw1_hw1/lib_i2c/api/i2c.h:202:0
	stw r7, sp[1]
	ldaw r5, sp[4]
	mov r1, r6
	mov r2, r5
	mov r3, r7
.Lxta.call_labels5:
	bla r11
.Ltmp233:
	#DEBUG_VALUE: res <- R0
	.loc	1 203 5                 # /home/evgeny/git/104/UI-01_sw1_hw1/lib_i2c/api/i2c.h:203:5
	eq r0, r0, 0
.Ltmp234:
	.loc	1 206 0                 # /home/evgeny/git/104/UI-01_sw1_hw1/lib_i2c/api/i2c.h:206:0
	stw r0, r4[0]
	.loc	1 208 5                 # /home/evgeny/git/104/UI-01_sw1_hw1/lib_i2c/api/i2c.h:208:5
	ldc r0, 0
	ld8u r5, r5[r0]
	bu .LBB32_3
.Ltmp235:
.LBB32_1:                               # %iftrue
.Lxtalabel7:
	#DEBUG_VALUE: read_reg8_addr16:i <- R8
	#DEBUG_VALUE: read_reg8_addr16:result <- R4
	.loc	1 198 0                 # /home/evgeny/git/104/UI-01_sw1_hw1/lib_i2c/api/i2c.h:198:0
	stw r7, r4[0]
	.loc	1 199 0                 # /home/evgeny/git/104/UI-01_sw1_hw1/lib_i2c/api/i2c.h:199:0
	ldw r0, r8[0]
	.loc	1 199 0                 # /home/evgeny/git/104/UI-01_sw1_hw1/lib_i2c/api/i2c.h:199:0
	ldw r1, r8[1]
	.loc	1 199 0                 # /home/evgeny/git/104/UI-01_sw1_hw1/lib_i2c/api/i2c.h:199:0
	ldw r1, r1[2]
	.loc	1 199 0                 # /home/evgeny/git/104/UI-01_sw1_hw1/lib_i2c/api/i2c.h:199:0
.Lxta.call_labels6:
	bla r1
.Ltmp236:
.LBB32_3:                               # %return
	mov r0, r5
	ldd r9, r8, sp[5]               # 4-byte Folded Reload
	ldd r7, r6, sp[4]               # 4-byte Folded Reload
	ldd r5, r4, sp[3]               # 4-byte Folded Reload
	retsp 12
	# RETURN_REG_HOLDER
	.cc_bottom __i_i2c_master_if_read_reg8_addr16.function
	.set	__i_i2c_master_if_read_reg8_addr16.nstackwords,((_i.i2c_master_if.write.max.nstackwords $M _i.i2c_master_if.read.max.nstackwords $M _i.i2c_master_if.send_stop_bit.max.nstackwords) + 12)
	.globl	__i_i2c_master_if_read_reg8_addr16.nstackwords
	.set	__i_i2c_master_if_read_reg8_addr16.maxcores,_i.i2c_master_if.read.max.maxcores $M _i.i2c_master_if.send_stop_bit.max.maxcores $M _i.i2c_master_if.write.max.maxcores $M 1
	.globl	__i_i2c_master_if_read_reg8_addr16.maxcores
	.set	__i_i2c_master_if_read_reg8_addr16.maxtimers,_i.i2c_master_if.read.max.maxtimers $M _i.i2c_master_if.send_stop_bit.max.maxtimers $M _i.i2c_master_if.write.max.maxtimers $M 0
	.globl	__i_i2c_master_if_read_reg8_addr16.maxtimers
	.set	__i_i2c_master_if_read_reg8_addr16.maxchanends,_i.i2c_master_if.read.max.maxchanends $M _i.i2c_master_if.send_stop_bit.max.maxchanends $M _i.i2c_master_if.write.max.maxchanends $M 0
	.globl	__i_i2c_master_if_read_reg8_addr16.maxchanends
.Ltmp237:
	.size	__i_i2c_master_if_read_reg8_addr16, .Ltmp237-__i_i2c_master_if_read_reg8_addr16
.Lfunc_end32:
	.cfi_endproc

	.globl	__i_i2c_master_if_write_reg8_addr16
	.align	4
	.type	__i_i2c_master_if_write_reg8_addr16,@function
	.cc_top __i_i2c_master_if_write_reg8_addr16.function,__i_i2c_master_if_write_reg8_addr16
__i_i2c_master_if_write_reg8_addr16:    # @__i_i2c_master_if_write_reg8_addr16
.Lfunc_begin33:
	.loc	1 226 0                 # /home/evgeny/git/104/UI-01_sw1_hw1/lib_i2c/api/i2c.h:226:0
	.cfi_startproc
	.issue_mode single
# BB#0:                                 # %allocas
.Lxtalabel8:
	ENTSP_lu6 10
.Ltmp238:
	.cfi_def_cfa_offset 40
.Ltmp239:
	.cfi_offset 15, 0
	std r5, r4, sp[3]               # 4-byte Folded Spill
.Ltmp240:
	.cfi_offset 4, -16
.Ltmp241:
	.cfi_offset 5, -12
	stw r6, sp[8]                   # 4-byte Folded Spill
.Ltmp242:
	.cfi_offset 6, -8
	#DEBUG_VALUE: write_reg8_addr16:i <- R0
	#DEBUG_VALUE: write_reg8_addr16:device_addr <- R1
	#DEBUG_VALUE: write_reg8_addr16:reg <- R2
	#DEBUG_VALUE: write_reg8_addr16:data <- R3
	.loc	1 227 0 prologue_end    # /home/evgeny/git/104/UI-01_sw1_hw1/lib_i2c/api/i2c.h:227:0
.Ltmp243:
	shr r4, r2, 8
	.loc	1 227 0                 # /home/evgeny/git/104/UI-01_sw1_hw1/lib_i2c/api/i2c.h:227:0
	ldc r5, 0
	ldaw r11, sp[5]
	.loc	1 227 0                 # /home/evgeny/git/104/UI-01_sw1_hw1/lib_i2c/api/i2c.h:227:0
	st8 r4, r11[r5]
	mkmsk r4, 1
	.loc	1 227 0                 # /home/evgeny/git/104/UI-01_sw1_hw1/lib_i2c/api/i2c.h:227:0
	or r6, r11, r4
	.loc	1 227 0                 # /home/evgeny/git/104/UI-01_sw1_hw1/lib_i2c/api/i2c.h:227:0
	st8 r2, r6[r5]
	ldc r2, 2
.Ltmp244:
	.loc	1 227 0                 # /home/evgeny/git/104/UI-01_sw1_hw1/lib_i2c/api/i2c.h:227:0
	or r2, r11, r2
	.loc	1 227 0                 # /home/evgeny/git/104/UI-01_sw1_hw1/lib_i2c/api/i2c.h:227:0
	st8 r3, r2[r5]
	.loc	1 229 0                 # /home/evgeny/git/104/UI-01_sw1_hw1/lib_i2c/api/i2c.h:229:0
.Ltmp245:
	ldw r2, r0[0]
	.loc	1 229 0                 # /home/evgeny/git/104/UI-01_sw1_hw1/lib_i2c/api/i2c.h:229:0
	ldw r0, r0[1]
.Ltmp246:
	.loc	1 229 0                 # /home/evgeny/git/104/UI-01_sw1_hw1/lib_i2c/api/i2c.h:229:0
	ldw r6, r0[0]
	.loc	1 229 0                 # /home/evgeny/git/104/UI-01_sw1_hw1/lib_i2c/api/i2c.h:229:0
	stw r4, sp[2]
	ldaw r0, sp[4]
.Ltmp247:
	#DEBUG_VALUE: n <- [R0+0]
	stw r0, sp[1]
	mkmsk r5, 2
	mov r0, r2
.Ltmp248:
	mov r2, r11
	mov r3, r5
.Ltmp249:
.Lxta.call_labels7:
	bla r6
.Ltmp250:
	.loc	1 230 5                 # /home/evgeny/git/104/UI-01_sw1_hw1/lib_i2c/api/i2c.h:230:5
	ldw r0, sp[4]
	bf r0, .LBB33_2
# BB#1:                                 # %ifdone
.Lxtalabel9:
	.loc	1 233 5                 # /home/evgeny/git/104/UI-01_sw1_hw1/lib_i2c/api/i2c.h:233:5
	lsu r0, r0, r5
	.loc	1 234 7                 # /home/evgeny/git/104/UI-01_sw1_hw1/lib_i2c/api/i2c.h:234:7
	shl r4, r0, 1
.Ltmp251:
.LBB33_2:                               # %return
	mov r0, r4
	ldw r6, sp[8]                   # 4-byte Folded Reload
	ldd r5, r4, sp[3]               # 4-byte Folded Reload
	retsp 10
	# RETURN_REG_HOLDER
	.cc_bottom __i_i2c_master_if_write_reg8_addr16.function
	.set	__i_i2c_master_if_write_reg8_addr16.nstackwords,(_i.i2c_master_if.write.max.nstackwords + 10)
	.globl	__i_i2c_master_if_write_reg8_addr16.nstackwords
	.set	__i_i2c_master_if_write_reg8_addr16.maxcores,_i.i2c_master_if.write.max.maxcores $M 1
	.globl	__i_i2c_master_if_write_reg8_addr16.maxcores
	.set	__i_i2c_master_if_write_reg8_addr16.maxtimers,_i.i2c_master_if.write.max.maxtimers $M 0
	.globl	__i_i2c_master_if_write_reg8_addr16.maxtimers
	.set	__i_i2c_master_if_write_reg8_addr16.maxchanends,_i.i2c_master_if.write.max.maxchanends $M 0
	.globl	__i_i2c_master_if_write_reg8_addr16.maxchanends
.Ltmp252:
	.size	__i_i2c_master_if_write_reg8_addr16, .Ltmp252-__i_i2c_master_if_write_reg8_addr16
.Lfunc_end33:
	.cfi_endproc

	.globl	__i_i2c_master_if_read_reg16
	.align	4
	.type	__i_i2c_master_if_read_reg16,@function
	.cc_top __i_i2c_master_if_read_reg16.function,__i_i2c_master_if_read_reg16
__i_i2c_master_if_read_reg16:           # @__i_i2c_master_if_read_reg16
.Lfunc_begin34:
	.loc	1 263 0                 # /home/evgeny/git/104/UI-01_sw1_hw1/lib_i2c/api/i2c.h:263:0
	.cfi_startproc
	.issue_mode single
# BB#0:                                 # %allocas
.Lxtalabel10:
	ENTSP_lu6 12
.Ltmp253:
	.cfi_def_cfa_offset 48
.Ltmp254:
	.cfi_offset 15, 0
	std r5, r4, sp[3]               # 4-byte Folded Spill
.Ltmp255:
	.cfi_offset 4, -24
.Ltmp256:
	.cfi_offset 5, -20
	std r7, r6, sp[4]               # 4-byte Folded Spill
.Ltmp257:
	.cfi_offset 6, -16
.Ltmp258:
	.cfi_offset 7, -12
	std r9, r8, sp[5]               # 4-byte Folded Spill
.Ltmp259:
	.cfi_offset 8, -8
.Ltmp260:
	.cfi_offset 9, -4
	#DEBUG_VALUE: read_reg16:i <- R0
	#DEBUG_VALUE: read_reg16:device_addr <- R1
	#DEBUG_VALUE: read_reg16:reg <- R2
	#DEBUG_VALUE: read_reg16:result <- R3
	mov r4, r3
.Ltmp261:
	#DEBUG_VALUE: read_reg16:result <- R4
	mov r6, r1
.Ltmp262:
	#DEBUG_VALUE: read_reg16:device_addr <- R6
	mov r7, r0
.Ltmp263:
	#DEBUG_VALUE: read_reg16:i <- R7
	.loc	1 264 0 prologue_end    # /home/evgeny/git/104/UI-01_sw1_hw1/lib_i2c/api/i2c.h:264:0
	shr r0, r2, 8
	.loc	1 264 0                 # /home/evgeny/git/104/UI-01_sw1_hw1/lib_i2c/api/i2c.h:264:0
	ldc r5, 0
	ldaw r11, sp[5]
	.loc	1 264 0                 # /home/evgeny/git/104/UI-01_sw1_hw1/lib_i2c/api/i2c.h:264:0
	st8 r0, r11[r5]
	mkmsk r8, 1
	.loc	1 264 0                 # /home/evgeny/git/104/UI-01_sw1_hw1/lib_i2c/api/i2c.h:264:0
	or r0, r11, r8
	.loc	1 264 0                 # /home/evgeny/git/104/UI-01_sw1_hw1/lib_i2c/api/i2c.h:264:0
	st8 r2, r0[r5]
	.loc	1 268 0                 # /home/evgeny/git/104/UI-01_sw1_hw1/lib_i2c/api/i2c.h:268:0
.Ltmp264:
	ldw r0, r7[0]
	.loc	1 268 0                 # /home/evgeny/git/104/UI-01_sw1_hw1/lib_i2c/api/i2c.h:268:0
	ldw r1, r7[1]
	.loc	1 268 0                 # /home/evgeny/git/104/UI-01_sw1_hw1/lib_i2c/api/i2c.h:268:0
	ldw r9, r1[0]
	.loc	1 268 0                 # /home/evgeny/git/104/UI-01_sw1_hw1/lib_i2c/api/i2c.h:268:0
	stw r5, sp[2]
	ldaw r1, sp[3]
.Ltmp265:
	#DEBUG_VALUE: n <- [R1+0]
	stw r1, sp[1]
	ldc r3, 2
	mov r1, r6
.Ltmp266:
	mov r2, r11
.Ltmp267:
.Lxta.call_labels8:
	bla r9
	.loc	1 269 5                 # /home/evgeny/git/104/UI-01_sw1_hw1/lib_i2c/api/i2c.h:269:5
	ldw r0, sp[3]
	.loc	1 269 5                 # /home/evgeny/git/104/UI-01_sw1_hw1/lib_i2c/api/i2c.h:269:5
	eq r0, r0, 2
	.loc	1 269 5                 # /home/evgeny/git/104/UI-01_sw1_hw1/lib_i2c/api/i2c.h:269:5
	bf r0, .LBB34_1
.Ltmp268:
# BB#2:                                 # %ifdone
.Lxtalabel11:
	#DEBUG_VALUE: read_reg16:i <- R7
	#DEBUG_VALUE: read_reg16:device_addr <- R6
	#DEBUG_VALUE: read_reg16:result <- R4
	.loc	1 274 0                 # /home/evgeny/git/104/UI-01_sw1_hw1/lib_i2c/api/i2c.h:274:0
	ldw r0, r7[0]
	.loc	1 274 0                 # /home/evgeny/git/104/UI-01_sw1_hw1/lib_i2c/api/i2c.h:274:0
	ldw r1, r7[1]
	.loc	1 274 0                 # /home/evgeny/git/104/UI-01_sw1_hw1/lib_i2c/api/i2c.h:274:0
	ldw r11, r1[1]
	.loc	1 274 0                 # /home/evgeny/git/104/UI-01_sw1_hw1/lib_i2c/api/i2c.h:274:0
	stw r8, sp[1]
	ldaw r5, sp[4]
	ldc r3, 2
	mov r1, r6
	mov r2, r5
.Lxta.call_labels9:
	bla r11
.Ltmp269:
	#DEBUG_VALUE: res <- R0
	.loc	1 275 5                 # /home/evgeny/git/104/UI-01_sw1_hw1/lib_i2c/api/i2c.h:275:5
	eq r0, r0, 0
.Ltmp270:
	.loc	1 278 0                 # /home/evgeny/git/104/UI-01_sw1_hw1/lib_i2c/api/i2c.h:278:0
	stw r0, r4[0]
	.loc	1 280 5                 # /home/evgeny/git/104/UI-01_sw1_hw1/lib_i2c/api/i2c.h:280:5
	ldc r0, 0
	ld16s r0, r5[r0]
	zext r0, 16
	.loc	1 280 5                 # /home/evgeny/git/104/UI-01_sw1_hw1/lib_i2c/api/i2c.h:280:5
	shl r1, r0, 8
	shr r0, r0, 8
	.loc	1 280 5                 # /home/evgeny/git/104/UI-01_sw1_hw1/lib_i2c/api/i2c.h:280:5
	or r5, r1, r0
	bu .LBB34_3
.Ltmp271:
.LBB34_1:                               # %iftrue
.Lxtalabel12:
	#DEBUG_VALUE: read_reg16:i <- R7
	#DEBUG_VALUE: read_reg16:result <- R4
	.loc	1 270 0                 # /home/evgeny/git/104/UI-01_sw1_hw1/lib_i2c/api/i2c.h:270:0
	stw r8, r4[0]
	.loc	1 271 0                 # /home/evgeny/git/104/UI-01_sw1_hw1/lib_i2c/api/i2c.h:271:0
	ldw r0, r7[0]
	.loc	1 271 0                 # /home/evgeny/git/104/UI-01_sw1_hw1/lib_i2c/api/i2c.h:271:0
	ldw r1, r7[1]
	.loc	1 271 0                 # /home/evgeny/git/104/UI-01_sw1_hw1/lib_i2c/api/i2c.h:271:0
	ldw r1, r1[2]
	.loc	1 271 0                 # /home/evgeny/git/104/UI-01_sw1_hw1/lib_i2c/api/i2c.h:271:0
.Lxta.call_labels10:
	bla r1
.Ltmp272:
.LBB34_3:                               # %return
	zext r5, 16
	mov r0, r5
	ldd r9, r8, sp[5]               # 4-byte Folded Reload
	ldd r7, r6, sp[4]               # 4-byte Folded Reload
	ldd r5, r4, sp[3]               # 4-byte Folded Reload
	retsp 12
	# RETURN_REG_HOLDER
	.cc_bottom __i_i2c_master_if_read_reg16.function
	.set	__i_i2c_master_if_read_reg16.nstackwords,((_i.i2c_master_if.write.max.nstackwords $M _i.i2c_master_if.read.max.nstackwords $M _i.i2c_master_if.send_stop_bit.max.nstackwords) + 12)
	.globl	__i_i2c_master_if_read_reg16.nstackwords
	.set	__i_i2c_master_if_read_reg16.maxcores,_i.i2c_master_if.read.max.maxcores $M _i.i2c_master_if.send_stop_bit.max.maxcores $M _i.i2c_master_if.write.max.maxcores $M 1
	.globl	__i_i2c_master_if_read_reg16.maxcores
	.set	__i_i2c_master_if_read_reg16.maxtimers,_i.i2c_master_if.read.max.maxtimers $M _i.i2c_master_if.send_stop_bit.max.maxtimers $M _i.i2c_master_if.write.max.maxtimers $M 0
	.globl	__i_i2c_master_if_read_reg16.maxtimers
	.set	__i_i2c_master_if_read_reg16.maxchanends,_i.i2c_master_if.read.max.maxchanends $M _i.i2c_master_if.send_stop_bit.max.maxchanends $M _i.i2c_master_if.write.max.maxchanends $M 0
	.globl	__i_i2c_master_if_read_reg16.maxchanends
.Ltmp273:
	.size	__i_i2c_master_if_read_reg16, .Ltmp273-__i_i2c_master_if_read_reg16
.Lfunc_end34:
	.cfi_endproc

	.globl	__i_i2c_master_if_write_reg16
	.align	4
	.type	__i_i2c_master_if_write_reg16,@function
	.cc_top __i_i2c_master_if_write_reg16.function,__i_i2c_master_if_write_reg16
__i_i2c_master_if_write_reg16:          # @__i_i2c_master_if_write_reg16
.Lfunc_begin35:
	.loc	1 303 0                 # /home/evgeny/git/104/UI-01_sw1_hw1/lib_i2c/api/i2c.h:303:0
	.cfi_startproc
	.issue_mode single
# BB#0:                                 # %allocas
.Lxtalabel13:
	ENTSP_lu6 10
.Ltmp274:
	.cfi_def_cfa_offset 40
.Ltmp275:
	.cfi_offset 15, 0
	std r5, r4, sp[3]               # 4-byte Folded Spill
.Ltmp276:
	.cfi_offset 4, -16
.Ltmp277:
	.cfi_offset 5, -12
	stw r6, sp[8]                   # 4-byte Folded Spill
.Ltmp278:
	.cfi_offset 6, -8
	#DEBUG_VALUE: write_reg16:i <- R0
	#DEBUG_VALUE: write_reg16:device_addr <- R1
	#DEBUG_VALUE: write_reg16:reg <- R2
	#DEBUG_VALUE: write_reg16:data <- R3
	.loc	1 304 0 prologue_end    # /home/evgeny/git/104/UI-01_sw1_hw1/lib_i2c/api/i2c.h:304:0
.Ltmp279:
	shr r4, r2, 8
	.loc	1 304 0                 # /home/evgeny/git/104/UI-01_sw1_hw1/lib_i2c/api/i2c.h:304:0
	ldc r5, 0
	ldaw r11, sp[5]
	.loc	1 304 0                 # /home/evgeny/git/104/UI-01_sw1_hw1/lib_i2c/api/i2c.h:304:0
	st8 r4, r11[r5]
	mkmsk r4, 1
	.loc	1 304 0                 # /home/evgeny/git/104/UI-01_sw1_hw1/lib_i2c/api/i2c.h:304:0
	or r6, r11, r4
	.loc	1 304 0                 # /home/evgeny/git/104/UI-01_sw1_hw1/lib_i2c/api/i2c.h:304:0
	st8 r2, r6[r5]
	ldc r2, 2
.Ltmp280:
	.loc	1 304 0                 # /home/evgeny/git/104/UI-01_sw1_hw1/lib_i2c/api/i2c.h:304:0
	or r2, r11, r2
	.loc	1 304 0                 # /home/evgeny/git/104/UI-01_sw1_hw1/lib_i2c/api/i2c.h:304:0
	shr r6, r3, 8
	.loc	1 304 0                 # /home/evgeny/git/104/UI-01_sw1_hw1/lib_i2c/api/i2c.h:304:0
	st8 r6, r2[r5]
	mkmsk r2, 2
	.loc	1 304 0                 # /home/evgeny/git/104/UI-01_sw1_hw1/lib_i2c/api/i2c.h:304:0
	or r2, r11, r2
	.loc	1 304 0                 # /home/evgeny/git/104/UI-01_sw1_hw1/lib_i2c/api/i2c.h:304:0
	st8 r3, r2[r5]
	.loc	1 306 0                 # /home/evgeny/git/104/UI-01_sw1_hw1/lib_i2c/api/i2c.h:306:0
.Ltmp281:
	ldw r2, r0[0]
	.loc	1 306 0                 # /home/evgeny/git/104/UI-01_sw1_hw1/lib_i2c/api/i2c.h:306:0
	ldw r0, r0[1]
.Ltmp282:
	.loc	1 306 0                 # /home/evgeny/git/104/UI-01_sw1_hw1/lib_i2c/api/i2c.h:306:0
	ldw r6, r0[0]
	.loc	1 306 0                 # /home/evgeny/git/104/UI-01_sw1_hw1/lib_i2c/api/i2c.h:306:0
	stw r4, sp[2]
	ldaw r0, sp[4]
.Ltmp283:
	#DEBUG_VALUE: n <- [R0+0]
	stw r0, sp[1]
	ldc r5, 4
	mov r0, r2
.Ltmp284:
	mov r2, r11
	mov r3, r5
.Ltmp285:
.Lxta.call_labels11:
	bla r6
.Ltmp286:
	.loc	1 307 5                 # /home/evgeny/git/104/UI-01_sw1_hw1/lib_i2c/api/i2c.h:307:5
	ldw r0, sp[4]
	bf r0, .LBB35_2
# BB#1:                                 # %ifdone
.Lxtalabel14:
	.loc	1 310 5                 # /home/evgeny/git/104/UI-01_sw1_hw1/lib_i2c/api/i2c.h:310:5
	lsu r0, r0, r5
	.loc	1 311 7                 # /home/evgeny/git/104/UI-01_sw1_hw1/lib_i2c/api/i2c.h:311:7
	shl r4, r0, 1
.Ltmp287:
.LBB35_2:                               # %return
	mov r0, r4
	ldw r6, sp[8]                   # 4-byte Folded Reload
	ldd r5, r4, sp[3]               # 4-byte Folded Reload
	retsp 10
	# RETURN_REG_HOLDER
	.cc_bottom __i_i2c_master_if_write_reg16.function
	.set	__i_i2c_master_if_write_reg16.nstackwords,(_i.i2c_master_if.write.max.nstackwords + 10)
	.globl	__i_i2c_master_if_write_reg16.nstackwords
	.set	__i_i2c_master_if_write_reg16.maxcores,_i.i2c_master_if.write.max.maxcores $M 1
	.globl	__i_i2c_master_if_write_reg16.maxcores
	.set	__i_i2c_master_if_write_reg16.maxtimers,_i.i2c_master_if.write.max.maxtimers $M 0
	.globl	__i_i2c_master_if_write_reg16.maxtimers
	.set	__i_i2c_master_if_write_reg16.maxchanends,_i.i2c_master_if.write.max.maxchanends $M 0
	.globl	__i_i2c_master_if_write_reg16.maxchanends
.Ltmp288:
	.size	__i_i2c_master_if_write_reg16, .Ltmp288-__i_i2c_master_if_write_reg16
.Lfunc_end35:
	.cfi_endproc

	.globl	__i_i2c_master_if_read_reg16_addr8
	.align	4
	.type	__i_i2c_master_if_read_reg16_addr8,@function
	.cc_top __i_i2c_master_if_read_reg16_addr8.function,__i_i2c_master_if_read_reg16_addr8
__i_i2c_master_if_read_reg16_addr8:     # @__i_i2c_master_if_read_reg16_addr8
.Lfunc_begin36:
	.loc	1 339 0                 # /home/evgeny/git/104/UI-01_sw1_hw1/lib_i2c/api/i2c.h:339:0
	.cfi_startproc
	.issue_mode single
# BB#0:                                 # %allocas
.Lxtalabel15:
	ENTSP_lu6 12
.Ltmp289:
	.cfi_def_cfa_offset 48
.Ltmp290:
	.cfi_offset 15, 0
	std r5, r4, sp[3]               # 4-byte Folded Spill
.Ltmp291:
	.cfi_offset 4, -24
.Ltmp292:
	.cfi_offset 5, -20
	std r7, r6, sp[4]               # 4-byte Folded Spill
.Ltmp293:
	.cfi_offset 6, -16
.Ltmp294:
	.cfi_offset 7, -12
	stw r8, sp[10]                  # 4-byte Folded Spill
.Ltmp295:
	.cfi_offset 8, -8
	#DEBUG_VALUE: read_reg16_addr8:i <- R0
	#DEBUG_VALUE: read_reg16_addr8:device_addr <- R1
	#DEBUG_VALUE: read_reg16_addr8:reg <- R2
	#DEBUG_VALUE: read_reg16_addr8:result <- R3
	mov r4, r3
.Ltmp296:
	#DEBUG_VALUE: read_reg16_addr8:result <- R4
	mov r6, r1
.Ltmp297:
	#DEBUG_VALUE: read_reg16_addr8:device_addr <- R6
	mov r7, r0
.Ltmp298:
	#DEBUG_VALUE: read_reg16_addr8:i <- R7
	.loc	1 340 0 prologue_end    # /home/evgeny/git/104/UI-01_sw1_hw1/lib_i2c/api/i2c.h:340:0
	ldc r5, 0
	ldaw r3, sp[5]
	st8 r2, r3[r5]
	.loc	1 344 0                 # /home/evgeny/git/104/UI-01_sw1_hw1/lib_i2c/api/i2c.h:344:0
.Ltmp299:
	ldw r0, r7[0]
	.loc	1 344 0                 # /home/evgeny/git/104/UI-01_sw1_hw1/lib_i2c/api/i2c.h:344:0
	ldw r1, r7[1]
	.loc	1 344 0                 # /home/evgeny/git/104/UI-01_sw1_hw1/lib_i2c/api/i2c.h:344:0
	ldw r11, r1[0]
	.loc	1 344 0                 # /home/evgeny/git/104/UI-01_sw1_hw1/lib_i2c/api/i2c.h:344:0
	stw r5, sp[2]
	ldaw r1, sp[3]
.Ltmp300:
	#DEBUG_VALUE: n <- [R1+0]
	stw r1, sp[1]
	mkmsk r8, 1
	mov r1, r6
.Ltmp301:
	mov r2, r3
.Ltmp302:
	mov r3, r8
.Lxta.call_labels12:
	bla r11
	.loc	1 345 5                 # /home/evgeny/git/104/UI-01_sw1_hw1/lib_i2c/api/i2c.h:345:5
	ldw r0, sp[3]
	.loc	1 345 5                 # /home/evgeny/git/104/UI-01_sw1_hw1/lib_i2c/api/i2c.h:345:5
	eq r0, r0, 1
	.loc	1 345 5                 # /home/evgeny/git/104/UI-01_sw1_hw1/lib_i2c/api/i2c.h:345:5
	bf r0, .LBB36_1
.Ltmp303:
# BB#2:                                 # %ifdone
.Lxtalabel16:
	#DEBUG_VALUE: read_reg16_addr8:i <- R7
	#DEBUG_VALUE: read_reg16_addr8:device_addr <- R6
	#DEBUG_VALUE: read_reg16_addr8:result <- R4
	.loc	1 350 0                 # /home/evgeny/git/104/UI-01_sw1_hw1/lib_i2c/api/i2c.h:350:0
	ldw r0, r7[0]
	.loc	1 350 0                 # /home/evgeny/git/104/UI-01_sw1_hw1/lib_i2c/api/i2c.h:350:0
	ldw r1, r7[1]
	.loc	1 350 0                 # /home/evgeny/git/104/UI-01_sw1_hw1/lib_i2c/api/i2c.h:350:0
	ldw r11, r1[1]
	.loc	1 350 0                 # /home/evgeny/git/104/UI-01_sw1_hw1/lib_i2c/api/i2c.h:350:0
	stw r8, sp[1]
	ldaw r5, sp[4]
	ldc r3, 2
	mov r1, r6
	mov r2, r5
.Lxta.call_labels13:
	bla r11
.Ltmp304:
	#DEBUG_VALUE: res <- R0
	.loc	1 351 5                 # /home/evgeny/git/104/UI-01_sw1_hw1/lib_i2c/api/i2c.h:351:5
	eq r0, r0, 0
.Ltmp305:
	.loc	1 354 0                 # /home/evgeny/git/104/UI-01_sw1_hw1/lib_i2c/api/i2c.h:354:0
	stw r0, r4[0]
	.loc	1 356 5                 # /home/evgeny/git/104/UI-01_sw1_hw1/lib_i2c/api/i2c.h:356:5
	ldc r0, 0
	ld16s r0, r5[r0]
	zext r0, 16
	.loc	1 356 5                 # /home/evgeny/git/104/UI-01_sw1_hw1/lib_i2c/api/i2c.h:356:5
	shl r1, r0, 8
	shr r0, r0, 8
	.loc	1 356 5                 # /home/evgeny/git/104/UI-01_sw1_hw1/lib_i2c/api/i2c.h:356:5
	or r5, r1, r0
	bu .LBB36_3
.Ltmp306:
.LBB36_1:                               # %iftrue
.Lxtalabel17:
	#DEBUG_VALUE: read_reg16_addr8:i <- R7
	#DEBUG_VALUE: read_reg16_addr8:result <- R4
	.loc	1 346 0                 # /home/evgeny/git/104/UI-01_sw1_hw1/lib_i2c/api/i2c.h:346:0
	stw r8, r4[0]
	.loc	1 347 0                 # /home/evgeny/git/104/UI-01_sw1_hw1/lib_i2c/api/i2c.h:347:0
	ldw r0, r7[0]
	.loc	1 347 0                 # /home/evgeny/git/104/UI-01_sw1_hw1/lib_i2c/api/i2c.h:347:0
	ldw r1, r7[1]
	.loc	1 347 0                 # /home/evgeny/git/104/UI-01_sw1_hw1/lib_i2c/api/i2c.h:347:0
	ldw r1, r1[2]
	.loc	1 347 0                 # /home/evgeny/git/104/UI-01_sw1_hw1/lib_i2c/api/i2c.h:347:0
.Lxta.call_labels14:
	bla r1
.Ltmp307:
.LBB36_3:                               # %return
	zext r5, 16
	mov r0, r5
	ldw r8, sp[10]                  # 4-byte Folded Reload
	ldd r7, r6, sp[4]               # 4-byte Folded Reload
	ldd r5, r4, sp[3]               # 4-byte Folded Reload
	retsp 12
	# RETURN_REG_HOLDER
	.cc_bottom __i_i2c_master_if_read_reg16_addr8.function
	.set	__i_i2c_master_if_read_reg16_addr8.nstackwords,((_i.i2c_master_if.write.max.nstackwords $M _i.i2c_master_if.read.max.nstackwords $M _i.i2c_master_if.send_stop_bit.max.nstackwords) + 12)
	.globl	__i_i2c_master_if_read_reg16_addr8.nstackwords
	.set	__i_i2c_master_if_read_reg16_addr8.maxcores,_i.i2c_master_if.read.max.maxcores $M _i.i2c_master_if.send_stop_bit.max.maxcores $M _i.i2c_master_if.write.max.maxcores $M 1
	.globl	__i_i2c_master_if_read_reg16_addr8.maxcores
	.set	__i_i2c_master_if_read_reg16_addr8.maxtimers,_i.i2c_master_if.read.max.maxtimers $M _i.i2c_master_if.send_stop_bit.max.maxtimers $M _i.i2c_master_if.write.max.maxtimers $M 0
	.globl	__i_i2c_master_if_read_reg16_addr8.maxtimers
	.set	__i_i2c_master_if_read_reg16_addr8.maxchanends,_i.i2c_master_if.read.max.maxchanends $M _i.i2c_master_if.send_stop_bit.max.maxchanends $M _i.i2c_master_if.write.max.maxchanends $M 0
	.globl	__i_i2c_master_if_read_reg16_addr8.maxchanends
.Ltmp308:
	.size	__i_i2c_master_if_read_reg16_addr8, .Ltmp308-__i_i2c_master_if_read_reg16_addr8
.Lfunc_end36:
	.cfi_endproc

	.globl	__i_i2c_master_if_write_reg16_addr8
	.align	4
	.type	__i_i2c_master_if_write_reg16_addr8,@function
	.cc_top __i_i2c_master_if_write_reg16_addr8.function,__i_i2c_master_if_write_reg16_addr8
__i_i2c_master_if_write_reg16_addr8:    # @__i_i2c_master_if_write_reg16_addr8
.Lfunc_begin37:
	.loc	1 377 0                 # /home/evgeny/git/104/UI-01_sw1_hw1/lib_i2c/api/i2c.h:377:0
	.cfi_startproc
	.issue_mode single
# BB#0:                                 # %allocas
.Lxtalabel18:
	ENTSP_lu6 10
.Ltmp309:
	.cfi_def_cfa_offset 40
.Ltmp310:
	.cfi_offset 15, 0
	std r5, r4, sp[3]               # 4-byte Folded Spill
.Ltmp311:
	.cfi_offset 4, -16
.Ltmp312:
	.cfi_offset 5, -12
	stw r6, sp[8]                   # 4-byte Folded Spill
.Ltmp313:
	.cfi_offset 6, -8
	#DEBUG_VALUE: write_reg16_addr8:i <- R0
	#DEBUG_VALUE: write_reg16_addr8:device_addr <- R1
	#DEBUG_VALUE: write_reg16_addr8:reg <- R2
	#DEBUG_VALUE: write_reg16_addr8:data <- R3
	.loc	1 378 0 prologue_end    # /home/evgeny/git/104/UI-01_sw1_hw1/lib_i2c/api/i2c.h:378:0
.Ltmp314:
	ldc r5, 0
	ldaw r11, sp[5]
	.loc	1 378 0                 # /home/evgeny/git/104/UI-01_sw1_hw1/lib_i2c/api/i2c.h:378:0
	st8 r2, r11[r5]
	mkmsk r4, 1
	.loc	1 378 0                 # /home/evgeny/git/104/UI-01_sw1_hw1/lib_i2c/api/i2c.h:378:0
	or r2, r11, r4
.Ltmp315:
	.loc	1 378 0                 # /home/evgeny/git/104/UI-01_sw1_hw1/lib_i2c/api/i2c.h:378:0
	shr r6, r3, 8
	.loc	1 378 0                 # /home/evgeny/git/104/UI-01_sw1_hw1/lib_i2c/api/i2c.h:378:0
	st8 r6, r2[r5]
	ldc r2, 2
	.loc	1 378 0                 # /home/evgeny/git/104/UI-01_sw1_hw1/lib_i2c/api/i2c.h:378:0
	or r2, r11, r2
	.loc	1 378 0                 # /home/evgeny/git/104/UI-01_sw1_hw1/lib_i2c/api/i2c.h:378:0
	st8 r3, r2[r5]
	.loc	1 380 0                 # /home/evgeny/git/104/UI-01_sw1_hw1/lib_i2c/api/i2c.h:380:0
.Ltmp316:
	ldw r2, r0[0]
	.loc	1 380 0                 # /home/evgeny/git/104/UI-01_sw1_hw1/lib_i2c/api/i2c.h:380:0
	ldw r0, r0[1]
.Ltmp317:
	.loc	1 380 0                 # /home/evgeny/git/104/UI-01_sw1_hw1/lib_i2c/api/i2c.h:380:0
	ldw r6, r0[0]
	.loc	1 380 0                 # /home/evgeny/git/104/UI-01_sw1_hw1/lib_i2c/api/i2c.h:380:0
	stw r4, sp[2]
	ldaw r0, sp[4]
.Ltmp318:
	#DEBUG_VALUE: n <- [R0+0]
	stw r0, sp[1]
	mkmsk r5, 2
	mov r0, r2
.Ltmp319:
	mov r2, r11
	mov r3, r5
.Ltmp320:
.Lxta.call_labels15:
	bla r6
.Ltmp321:
	.loc	1 381 5                 # /home/evgeny/git/104/UI-01_sw1_hw1/lib_i2c/api/i2c.h:381:5
	ldw r0, sp[4]
	bf r0, .LBB37_2
# BB#1:                                 # %ifdone
.Lxtalabel19:
	.loc	1 384 5                 # /home/evgeny/git/104/UI-01_sw1_hw1/lib_i2c/api/i2c.h:384:5
	lsu r0, r0, r5
	.loc	1 385 7                 # /home/evgeny/git/104/UI-01_sw1_hw1/lib_i2c/api/i2c.h:385:7
	shl r4, r0, 1
.Ltmp322:
.LBB37_2:                               # %return
	mov r0, r4
	ldw r6, sp[8]                   # 4-byte Folded Reload
	ldd r5, r4, sp[3]               # 4-byte Folded Reload
	retsp 10
	# RETURN_REG_HOLDER
	.cc_bottom __i_i2c_master_if_write_reg16_addr8.function
	.set	__i_i2c_master_if_write_reg16_addr8.nstackwords,(_i.i2c_master_if.write.max.nstackwords + 10)
	.globl	__i_i2c_master_if_write_reg16_addr8.nstackwords
	.set	__i_i2c_master_if_write_reg16_addr8.maxcores,_i.i2c_master_if.write.max.maxcores $M 1
	.globl	__i_i2c_master_if_write_reg16_addr8.maxcores
	.set	__i_i2c_master_if_write_reg16_addr8.maxtimers,_i.i2c_master_if.write.max.maxtimers $M 0
	.globl	__i_i2c_master_if_write_reg16_addr8.maxtimers
	.set	__i_i2c_master_if_write_reg16_addr8.maxchanends,_i.i2c_master_if.write.max.maxchanends $M 0
	.globl	__i_i2c_master_if_write_reg16_addr8.maxchanends
.Ltmp323:
	.size	__i_i2c_master_if_write_reg16_addr8, .Ltmp323-__i_i2c_master_if_write_reg16_addr8
.Lfunc_end37:
	.cfi_endproc

.Ldebug_end0:
	.section	.xtacalltable,"",@progbits
.Lentries_start0:
	.long	.Lentries_end1-.Lentries_start0
	.long	0
	.ascii	"/home/evgeny/git/104/UI-01_sw1_hw1/ui01_20190201_100/.build"
	.byte	0
.cc_top cc_0,.Lxta.call_labels0
	.ascii	"/home/evgeny/git/104/UI-01_sw1_hw1/lib_i2c/api/i2c.h"
	.byte	0
	.long	125
	.long	.Lxta.call_labels0
.cc_bottom cc_0
.cc_top cc_1,.Lxta.call_labels2
	.ascii	"/home/evgeny/git/104/UI-01_sw1_hw1/lib_i2c/api/i2c.h"
	.byte	0
	.long	128
	.long	.Lxta.call_labels2
.cc_bottom cc_1
.cc_top cc_2,.Lxta.call_labels1
	.ascii	"/home/evgeny/git/104/UI-01_sw1_hw1/lib_i2c/api/i2c.h"
	.byte	0
	.long	131
	.long	.Lxta.call_labels1
.cc_bottom cc_2
.cc_top cc_3,.Lxta.call_labels3
	.ascii	"/home/evgeny/git/104/UI-01_sw1_hw1/lib_i2c/api/i2c.h"
	.byte	0
	.long	157
	.long	.Lxta.call_labels3
.cc_bottom cc_3
.cc_top cc_4,.Lxta.call_labels4
	.ascii	"/home/evgeny/git/104/UI-01_sw1_hw1/lib_i2c/api/i2c.h"
	.byte	0
	.long	196
	.long	.Lxta.call_labels4
.cc_bottom cc_4
.cc_top cc_5,.Lxta.call_labels6
	.ascii	"/home/evgeny/git/104/UI-01_sw1_hw1/lib_i2c/api/i2c.h"
	.byte	0
	.long	199
	.long	.Lxta.call_labels6
.cc_bottom cc_5
.cc_top cc_6,.Lxta.call_labels5
	.ascii	"/home/evgeny/git/104/UI-01_sw1_hw1/lib_i2c/api/i2c.h"
	.byte	0
	.long	202
	.long	.Lxta.call_labels5
.cc_bottom cc_6
.cc_top cc_7,.Lxta.call_labels7
	.ascii	"/home/evgeny/git/104/UI-01_sw1_hw1/lib_i2c/api/i2c.h"
	.byte	0
	.long	229
	.long	.Lxta.call_labels7
.cc_bottom cc_7
.cc_top cc_8,.Lxta.call_labels8
	.ascii	"/home/evgeny/git/104/UI-01_sw1_hw1/lib_i2c/api/i2c.h"
	.byte	0
	.long	268
	.long	.Lxta.call_labels8
.cc_bottom cc_8
.cc_top cc_9,.Lxta.call_labels10
	.ascii	"/home/evgeny/git/104/UI-01_sw1_hw1/lib_i2c/api/i2c.h"
	.byte	0
	.long	271
	.long	.Lxta.call_labels10
.cc_bottom cc_9
.cc_top cc_10,.Lxta.call_labels9
	.ascii	"/home/evgeny/git/104/UI-01_sw1_hw1/lib_i2c/api/i2c.h"
	.byte	0
	.long	274
	.long	.Lxta.call_labels9
.cc_bottom cc_10
.cc_top cc_11,.Lxta.call_labels11
	.ascii	"/home/evgeny/git/104/UI-01_sw1_hw1/lib_i2c/api/i2c.h"
	.byte	0
	.long	306
	.long	.Lxta.call_labels11
.cc_bottom cc_11
.cc_top cc_12,.Lxta.call_labels12
	.ascii	"/home/evgeny/git/104/UI-01_sw1_hw1/lib_i2c/api/i2c.h"
	.byte	0
	.long	344
	.long	.Lxta.call_labels12
.cc_bottom cc_12
.cc_top cc_13,.Lxta.call_labels14
	.ascii	"/home/evgeny/git/104/UI-01_sw1_hw1/lib_i2c/api/i2c.h"
	.byte	0
	.long	347
	.long	.Lxta.call_labels14
.cc_bottom cc_13
.cc_top cc_14,.Lxta.call_labels13
	.ascii	"/home/evgeny/git/104/UI-01_sw1_hw1/lib_i2c/api/i2c.h"
	.byte	0
	.long	350
	.long	.Lxta.call_labels13
.cc_bottom cc_14
.cc_top cc_15,.Lxta.call_labels15
	.ascii	"/home/evgeny/git/104/UI-01_sw1_hw1/lib_i2c/api/i2c.h"
	.byte	0
	.long	380
	.long	.Lxta.call_labels15
.cc_bottom cc_15
.Lentries_end1:
	.section	.xtalabeltable,"",@progbits
.Lentries_start2:
	.long	.Lentries_end3-.Lentries_start2
	.long	0
	.ascii	"/home/evgeny/git/104/UI-01_sw1_hw1/ui01_20190201_100/.build"
	.byte	0
.cc_top cc_16,.Lxtalabel0
	.ascii	"/home/evgeny/git/104/UI-01_sw1_hw1/lib_i2c/api/i2c.h"
	.byte	0
	.long	121
	.long	126
	.long	.Lxtalabel0
.cc_bottom cc_16
.cc_top cc_17,.Lxtalabel2
	.ascii	"/home/evgeny/git/104/UI-01_sw1_hw1/lib_i2c/api/i2c.h"
	.byte	0
	.long	127
	.long	130
	.long	.Lxtalabel2
.cc_bottom cc_17
.cc_top cc_18,.Lxtalabel1
	.ascii	"/home/evgeny/git/104/UI-01_sw1_hw1/lib_i2c/api/i2c.h"
	.byte	0
	.long	131
	.long	132
	.long	.Lxtalabel1
.cc_bottom cc_18
.cc_top cc_19,.Lxtalabel1
	.ascii	"/home/evgeny/git/104/UI-01_sw1_hw1/lib_i2c/api/i2c.h"
	.byte	0
	.long	137
	.long	138
	.long	.Lxtalabel1
.cc_bottom cc_19
.cc_top cc_20,.Lxtalabel3
	.ascii	"/home/evgeny/git/104/UI-01_sw1_hw1/lib_i2c/api/i2c.h"
	.byte	0
	.long	154
	.long	158
	.long	.Lxtalabel3
.cc_bottom cc_20
.cc_top cc_21,.Lxtalabel3
	.ascii	"/home/evgeny/git/104/UI-01_sw1_hw1/lib_i2c/api/i2c.h"
	.byte	0
	.long	159
	.long	160
	.long	.Lxtalabel3
.cc_bottom cc_21
.cc_top cc_22,.Lxtalabel4
	.ascii	"/home/evgeny/git/104/UI-01_sw1_hw1/lib_i2c/api/i2c.h"
	.byte	0
	.long	161
	.long	161
	.long	.Lxtalabel4
.cc_bottom cc_22
.cc_top cc_23,.Lxtalabel5
	.ascii	"/home/evgeny/git/104/UI-01_sw1_hw1/lib_i2c/api/i2c.h"
	.byte	0
	.long	191
	.long	197
	.long	.Lxtalabel5
.cc_bottom cc_23
.cc_top cc_24,.Lxtalabel7
	.ascii	"/home/evgeny/git/104/UI-01_sw1_hw1/lib_i2c/api/i2c.h"
	.byte	0
	.long	198
	.long	201
	.long	.Lxtalabel7
.cc_bottom cc_24
.cc_top cc_25,.Lxtalabel6
	.ascii	"/home/evgeny/git/104/UI-01_sw1_hw1/lib_i2c/api/i2c.h"
	.byte	0
	.long	202
	.long	203
	.long	.Lxtalabel6
.cc_bottom cc_25
.cc_top cc_26,.Lxtalabel6
	.ascii	"/home/evgeny/git/104/UI-01_sw1_hw1/lib_i2c/api/i2c.h"
	.byte	0
	.long	208
	.long	209
	.long	.Lxtalabel6
.cc_bottom cc_26
.cc_top cc_27,.Lxtalabel8
	.ascii	"/home/evgeny/git/104/UI-01_sw1_hw1/lib_i2c/api/i2c.h"
	.byte	0
	.long	227
	.long	230
	.long	.Lxtalabel8
.cc_bottom cc_27
.cc_top cc_28,.Lxtalabel8
	.ascii	"/home/evgeny/git/104/UI-01_sw1_hw1/lib_i2c/api/i2c.h"
	.byte	0
	.long	231
	.long	232
	.long	.Lxtalabel8
.cc_bottom cc_28
.cc_top cc_29,.Lxtalabel9
	.ascii	"/home/evgeny/git/104/UI-01_sw1_hw1/lib_i2c/api/i2c.h"
	.byte	0
	.long	233
	.long	233
	.long	.Lxtalabel9
.cc_bottom cc_29
.cc_top cc_30,.Lxtalabel10
	.ascii	"/home/evgeny/git/104/UI-01_sw1_hw1/lib_i2c/api/i2c.h"
	.byte	0
	.long	263
	.long	269
	.long	.Lxtalabel10
.cc_bottom cc_30
.cc_top cc_31,.Lxtalabel12
	.ascii	"/home/evgeny/git/104/UI-01_sw1_hw1/lib_i2c/api/i2c.h"
	.byte	0
	.long	270
	.long	273
	.long	.Lxtalabel12
.cc_bottom cc_31
.cc_top cc_32,.Lxtalabel11
	.ascii	"/home/evgeny/git/104/UI-01_sw1_hw1/lib_i2c/api/i2c.h"
	.byte	0
	.long	274
	.long	275
	.long	.Lxtalabel11
.cc_bottom cc_32
.cc_top cc_33,.Lxtalabel11
	.ascii	"/home/evgeny/git/104/UI-01_sw1_hw1/lib_i2c/api/i2c.h"
	.byte	0
	.long	280
	.long	281
	.long	.Lxtalabel11
.cc_bottom cc_33
.cc_top cc_34,.Lxtalabel13
	.ascii	"/home/evgeny/git/104/UI-01_sw1_hw1/lib_i2c/api/i2c.h"
	.byte	0
	.long	304
	.long	307
	.long	.Lxtalabel13
.cc_bottom cc_34
.cc_top cc_35,.Lxtalabel13
	.ascii	"/home/evgeny/git/104/UI-01_sw1_hw1/lib_i2c/api/i2c.h"
	.byte	0
	.long	308
	.long	309
	.long	.Lxtalabel13
.cc_bottom cc_35
.cc_top cc_36,.Lxtalabel14
	.ascii	"/home/evgeny/git/104/UI-01_sw1_hw1/lib_i2c/api/i2c.h"
	.byte	0
	.long	310
	.long	310
	.long	.Lxtalabel14
.cc_bottom cc_36
.cc_top cc_37,.Lxtalabel15
	.ascii	"/home/evgeny/git/104/UI-01_sw1_hw1/lib_i2c/api/i2c.h"
	.byte	0
	.long	339
	.long	345
	.long	.Lxtalabel15
.cc_bottom cc_37
.cc_top cc_38,.Lxtalabel17
	.ascii	"/home/evgeny/git/104/UI-01_sw1_hw1/lib_i2c/api/i2c.h"
	.byte	0
	.long	346
	.long	349
	.long	.Lxtalabel17
.cc_bottom cc_38
.cc_top cc_39,.Lxtalabel16
	.ascii	"/home/evgeny/git/104/UI-01_sw1_hw1/lib_i2c/api/i2c.h"
	.byte	0
	.long	350
	.long	351
	.long	.Lxtalabel16
.cc_bottom cc_39
.cc_top cc_40,.Lxtalabel16
	.ascii	"/home/evgeny/git/104/UI-01_sw1_hw1/lib_i2c/api/i2c.h"
	.byte	0
	.long	356
	.long	357
	.long	.Lxtalabel16
.cc_bottom cc_40
.cc_top cc_41,.Lxtalabel18
	.ascii	"/home/evgeny/git/104/UI-01_sw1_hw1/lib_i2c/api/i2c.h"
	.byte	0
	.long	378
	.long	381
	.long	.Lxtalabel18
.cc_bottom cc_41
.cc_top cc_42,.Lxtalabel18
	.ascii	"/home/evgeny/git/104/UI-01_sw1_hw1/lib_i2c/api/i2c.h"
	.byte	0
	.long	382
	.long	383
	.long	.Lxtalabel18
.cc_bottom cc_42
.cc_top cc_43,.Lxtalabel19
	.ascii	"/home/evgeny/git/104/UI-01_sw1_hw1/lib_i2c/api/i2c.h"
	.byte	0
	.long	384
	.long	384
	.long	.Lxtalabel19
.cc_bottom cc_43
.Lentries_end3:
	.section	.trap_info,"",@progbits
.Ltrap_info_entries_start0:
	.long	.Ltrap_info_entries_end0-.Ltrap_info_entries_start0
	.long	1
.Ltrap_info_entries_end0: